
test.elf:     file format elf32-littleriscv


Disassembly of section .text:

00010074 <main>:
   10074:	00023537          	lui	a0,0x23
   10078:	f0010113          	addi	sp,sp,-256
   1007c:	3f850513          	addi	a0,a0,1016 # 233f8 <rsbox+0x294>
   10080:	0e112e23          	sw	ra,252(sp)
   10084:	0e812c23          	sw	s0,248(sp)
   10088:	0e912a23          	sw	s1,244(sp)
   1008c:	0f212823          	sw	s2,240(sp)
   10090:	6c0020ef          	jal	ra,12750 <puts>
   10094:	669010ef          	jal	ra,11efc <test_encrypt_cbc>
   10098:	00050493          	addi	s1,a0,0
   1009c:	79d010ef          	jal	ra,12038 <test_decrypt_cbc>
   100a0:	00a484b3          	add	s1,s1,a0
   100a4:	00023537          	lui	a0,0x23
   100a8:	40c50513          	addi	a0,a0,1036 # 2340c <rsbox+0x2a8>
   100ac:	0c8020ef          	jal	ra,12174 <test_xcrypt_ctr>
   100b0:	00a484b3          	add	s1,s1,a0
   100b4:	00023537          	lui	a0,0x23
   100b8:	41450513          	addi	a0,a0,1044 # 23414 <rsbox+0x2b0>
   100bc:	00023437          	lui	s0,0x23
   100c0:	0b4020ef          	jal	ra,12174 <test_xcrypt_ctr>
   100c4:	26440413          	addi	s0,s0,612 # 23264 <rsbox+0x100>
   100c8:	10842703          	lw	a4,264(s0)
   100cc:	10c42783          	lw	a5,268(s0)
   100d0:	00042283          	lw	t0,0(s0)
   100d4:	00442f83          	lw	t6,4(s0)
   100d8:	00842f03          	lw	t5,8(s0)
   100dc:	00c42e83          	lw	t4,12(s0)
   100e0:	0f042e03          	lw	t3,240(s0)
   100e4:	0f442303          	lw	t1,244(s0)
   100e8:	0f842883          	lw	a7,248(s0)
   100ec:	0fc42803          	lw	a6,252(s0)
   100f0:	10042603          	lw	a2,256(s0)
   100f4:	10442683          	lw	a3,260(s0)
   100f8:	00010593          	addi	a1,sp,0
   100fc:	00a484b3          	add	s1,s1,a0
   10100:	03010513          	addi	a0,sp,48
   10104:	02e12423          	sw	a4,40(sp)
   10108:	02f12623          	sw	a5,44(sp)
   1010c:	00512023          	sw	t0,0(sp)
   10110:	01f12223          	sw	t6,4(sp)
   10114:	01e12423          	sw	t5,8(sp)
   10118:	01d12623          	sw	t4,12(sp)
   1011c:	01c12823          	sw	t3,16(sp)
   10120:	00612a23          	sw	t1,20(sp)
   10124:	01112c23          	sw	a7,24(sp)
   10128:	01012e23          	sw	a6,28(sp)
   1012c:	02c12023          	sw	a2,32(sp)
   10130:	02d12223          	sw	a3,36(sp)
   10134:	071010ef          	jal	ra,119a4 <AES_init_ctx>
   10138:	01010593          	addi	a1,sp,16
   1013c:	03010513          	addi	a0,sp,48
   10140:	0c1010ef          	jal	ra,11a00 <AES_ECB_decrypt>
   10144:	00023537          	lui	a0,0x23
   10148:	41c50513          	addi	a0,a0,1052 # 2341c <rsbox+0x2b8>
   1014c:	438020ef          	jal	ra,12584 <printf>
   10150:	02012703          	lw	a4,32(sp)
   10154:	01012783          	lw	a5,16(sp)
   10158:	0cf70e63          	beq	a4,a5,10234 <main+0x1c0>
   1015c:	00023537          	lui	a0,0x23
   10160:	39050513          	addi	a0,a0,912 # 23390 <rsbox+0x22c>
   10164:	5ec020ef          	jal	ra,12750 <puts>
   10168:	00100913          	addi	s2,zero,1
   1016c:	10842703          	lw	a4,264(s0)
   10170:	10c42783          	lw	a5,268(s0)
   10174:	00042283          	lw	t0,0(s0)
   10178:	00442f83          	lw	t6,4(s0)
   1017c:	00842f03          	lw	t5,8(s0)
   10180:	00c42e83          	lw	t4,12(s0)
   10184:	0f042e03          	lw	t3,240(s0)
   10188:	0f442303          	lw	t1,244(s0)
   1018c:	0f842883          	lw	a7,248(s0)
   10190:	0fc42803          	lw	a6,252(s0)
   10194:	10042603          	lw	a2,256(s0)
   10198:	10442683          	lw	a3,260(s0)
   1019c:	00010593          	addi	a1,sp,0
   101a0:	03010513          	addi	a0,sp,48
   101a4:	02e12423          	sw	a4,40(sp)
   101a8:	02f12623          	sw	a5,44(sp)
   101ac:	00512023          	sw	t0,0(sp)
   101b0:	01f12223          	sw	t6,4(sp)
   101b4:	01e12423          	sw	t5,8(sp)
   101b8:	01d12623          	sw	t4,12(sp)
   101bc:	01c12823          	sw	t3,16(sp)
   101c0:	00612a23          	sw	t1,20(sp)
   101c4:	01112c23          	sw	a7,24(sp)
   101c8:	01012e23          	sw	a6,28(sp)
   101cc:	02c12023          	sw	a2,32(sp)
   101d0:	02d12223          	sw	a3,36(sp)
   101d4:	7d0010ef          	jal	ra,119a4 <AES_init_ctx>
   101d8:	02010593          	addi	a1,sp,32
   101dc:	03010513          	addi	a0,sp,48
   101e0:	011010ef          	jal	ra,119f0 <AES_ECB_encrypt>
   101e4:	00023537          	lui	a0,0x23
   101e8:	42c50513          	addi	a0,a0,1068 # 2342c <rsbox+0x2c8>
   101ec:	398020ef          	jal	ra,12584 <printf>
   101f0:	01012703          	lw	a4,16(sp)
   101f4:	02012783          	lw	a5,32(sp)
   101f8:	012484b3          	add	s1,s1,s2
   101fc:	06f70863          	beq	a4,a5,1026c <main+0x1f8>
   10200:	00023537          	lui	a0,0x23
   10204:	39050513          	addi	a0,a0,912 # 23390 <rsbox+0x22c>
   10208:	548020ef          	jal	ra,12750 <puts>
   1020c:	00100413          	addi	s0,zero,1
   10210:	0a8020ef          	jal	ra,122b8 <test_encrypt_ecb_verbose>
   10214:	008484b3          	add	s1,s1,s0
   10218:	0fc12083          	lw	ra,252(sp)
   1021c:	0f812403          	lw	s0,248(sp)
   10220:	00048513          	addi	a0,s1,0
   10224:	0f012903          	lw	s2,240(sp)
   10228:	0f412483          	lw	s1,244(sp)
   1022c:	10010113          	addi	sp,sp,256
   10230:	00008067          	jalr	zero,0(ra)
   10234:	02412703          	lw	a4,36(sp)
   10238:	01412783          	lw	a5,20(sp)
   1023c:	f2f710e3          	bne	a4,a5,1015c <main+0xe8>
   10240:	02812703          	lw	a4,40(sp)
   10244:	01812783          	lw	a5,24(sp)
   10248:	f0f71ae3          	bne	a4,a5,1015c <main+0xe8>
   1024c:	02c12703          	lw	a4,44(sp)
   10250:	01c12783          	lw	a5,28(sp)
   10254:	f0f714e3          	bne	a4,a5,1015c <main+0xe8>
   10258:	00023537          	lui	a0,0x23
   1025c:	38450513          	addi	a0,a0,900 # 23384 <rsbox+0x220>
   10260:	00000913          	addi	s2,zero,0
   10264:	4ec020ef          	jal	ra,12750 <puts>
   10268:	f05ff06f          	jal	zero,1016c <main+0xf8>
   1026c:	01412703          	lw	a4,20(sp)
   10270:	02412783          	lw	a5,36(sp)
   10274:	f8f716e3          	bne	a4,a5,10200 <main+0x18c>
   10278:	01812703          	lw	a4,24(sp)
   1027c:	02812783          	lw	a5,40(sp)
   10280:	f8f710e3          	bne	a4,a5,10200 <main+0x18c>
   10284:	01c12703          	lw	a4,28(sp)
   10288:	02c12783          	lw	a5,44(sp)
   1028c:	f6f71ae3          	bne	a4,a5,10200 <main+0x18c>
   10290:	00023537          	lui	a0,0x23
   10294:	38450513          	addi	a0,a0,900 # 23384 <rsbox+0x220>
   10298:	00000413          	addi	s0,zero,0
   1029c:	4b4020ef          	jal	ra,12750 <puts>
   102a0:	f71ff06f          	jal	zero,10210 <main+0x19c>

000102a4 <_start>:
   102a4:	00015197          	auipc	gp,0x15
   102a8:	72c18193          	addi	gp,gp,1836 # 259d0 <__global_pointer$>
   102ac:	1cc18513          	addi	a0,gp,460 # 25b9c <_edata>
   102b0:	22818613          	addi	a2,gp,552 # 25bf8 <__BSS_END__>
   102b4:	40a60633          	sub	a2,a2,a0
   102b8:	00000593          	addi	a1,zero,0
   102bc:	258000ef          	jal	ra,10514 <memset>
   102c0:	00000517          	auipc	a0,0x0
   102c4:	15050513          	addi	a0,a0,336 # 10410 <__libc_fini_array>
   102c8:	104000ef          	jal	ra,103cc <atexit>
   102cc:	1a0000ef          	jal	ra,1046c <__libc_init_array>
   102d0:	00012503          	lw	a0,0(sp)
   102d4:	00410593          	addi	a1,sp,4
   102d8:	00000613          	addi	a2,zero,0
   102dc:	d99ff0ef          	jal	ra,10074 <main>
   102e0:	1000006f          	jal	zero,103e0 <exit>

000102e4 <_fini>:
   102e4:	00008067          	jalr	zero,0(ra)

000102e8 <deregister_tm_clones>:
   102e8:	19c18713          	addi	a4,gp,412 # 25b6c <__TMC_END__>
   102ec:	19c18793          	addi	a5,gp,412 # 25b6c <__TMC_END__>
   102f0:	00e78c63          	beq	a5,a4,10308 <deregister_tm_clones+0x20>
   102f4:	00000337          	lui	t1,0x0
   102f8:	00030313          	addi	t1,t1,0 # 0 <main-0x10074>
   102fc:	00030663          	beq	t1,zero,10308 <deregister_tm_clones+0x20>
   10300:	19c18513          	addi	a0,gp,412 # 25b6c <__TMC_END__>
   10304:	00030067          	jalr	zero,0(t1)
   10308:	00008067          	jalr	zero,0(ra)

0001030c <register_tm_clones>:
   1030c:	19c18593          	addi	a1,gp,412 # 25b6c <__TMC_END__>
   10310:	19c18793          	addi	a5,gp,412 # 25b6c <__TMC_END__>
   10314:	40f585b3          	sub	a1,a1,a5
   10318:	4025d593          	srai	a1,a1,0x2
   1031c:	01f5d793          	srli	a5,a1,0x1f
   10320:	00b785b3          	add	a1,a5,a1
   10324:	4015d593          	srai	a1,a1,0x1
   10328:	00058c63          	beq	a1,zero,10340 <register_tm_clones+0x34>
   1032c:	00000337          	lui	t1,0x0
   10330:	00030313          	addi	t1,t1,0 # 0 <main-0x10074>
   10334:	00030663          	beq	t1,zero,10340 <register_tm_clones+0x34>
   10338:	19c18513          	addi	a0,gp,412 # 25b6c <__TMC_END__>
   1033c:	00030067          	jalr	zero,0(t1)
   10340:	00008067          	jalr	zero,0(ra)

00010344 <__do_global_dtors_aux>:
   10344:	1e01c703          	lbu	a4,480(gp) # 25bb0 <completed.5430>
   10348:	04071663          	bne	a4,zero,10394 <__do_global_dtors_aux+0x50>
   1034c:	ff010113          	addi	sp,sp,-16
   10350:	00812423          	sw	s0,8(sp)
   10354:	00112623          	sw	ra,12(sp)
   10358:	00078413          	addi	s0,a5,0
   1035c:	f8dff0ef          	jal	ra,102e8 <deregister_tm_clones>
   10360:	000007b7          	lui	a5,0x0
   10364:	00078793          	addi	a5,a5,0 # 0 <main-0x10074>
   10368:	00078a63          	beq	a5,zero,1037c <__do_global_dtors_aux+0x38>
   1036c:	00025537          	lui	a0,0x25
   10370:	11450513          	addi	a0,a0,276 # 25114 <__EH_FRAME_BEGIN__>
   10374:	00000097          	auipc	ra,0x0
   10378:	000000e7          	jalr	ra,0(zero) # 0 <main-0x10074>
   1037c:	00100793          	addi	a5,zero,1
   10380:	1ef18023          	sb	a5,480(gp) # 25bb0 <completed.5430>
   10384:	00c12083          	lw	ra,12(sp)
   10388:	00812403          	lw	s0,8(sp)
   1038c:	01010113          	addi	sp,sp,16
   10390:	00008067          	jalr	zero,0(ra) # 10374 <__do_global_dtors_aux+0x30>
   10394:	00008067          	jalr	zero,0(ra)

00010398 <frame_dummy>:
   10398:	000007b7          	lui	a5,0x0
   1039c:	00078793          	addi	a5,a5,0 # 0 <main-0x10074>
   103a0:	02078463          	beq	a5,zero,103c8 <frame_dummy+0x30>
   103a4:	00025537          	lui	a0,0x25
   103a8:	ff010113          	addi	sp,sp,-16
   103ac:	1e418593          	addi	a1,gp,484 # 25bb4 <object.5435>
   103b0:	11450513          	addi	a0,a0,276 # 25114 <__EH_FRAME_BEGIN__>
   103b4:	00112623          	sw	ra,12(sp)
   103b8:	00000097          	auipc	ra,0x0
   103bc:	000000e7          	jalr	ra,0(zero) # 0 <main-0x10074>
   103c0:	00c12083          	lw	ra,12(sp)
   103c4:	01010113          	addi	sp,sp,16
   103c8:	f45ff06f          	jal	zero,1030c <register_tm_clones>

000103cc <atexit>:
   103cc:	00050593          	addi	a1,a0,0
   103d0:	00000693          	addi	a3,zero,0
   103d4:	00000613          	addi	a2,zero,0
   103d8:	00000513          	addi	a0,zero,0
   103dc:	2140006f          	jal	zero,105f0 <__register_exitproc>

000103e0 <exit>:
   103e0:	ff010113          	addi	sp,sp,-16
   103e4:	00000593          	addi	a1,zero,0
   103e8:	00812423          	sw	s0,8(sp)
   103ec:	00112623          	sw	ra,12(sp)
   103f0:	00050413          	addi	s0,a0,0
   103f4:	278000ef          	jal	ra,1066c <__call_exitprocs>
   103f8:	1b81a503          	lw	a0,440(gp) # 25b88 <_global_impure_ptr>
   103fc:	03c52783          	lw	a5,60(a0)
   10400:	00078463          	beq	a5,zero,10408 <exit+0x28>
   10404:	000780e7          	jalr	ra,0(a5)
   10408:	00040513          	addi	a0,s0,0
   1040c:	28d0d0ef          	jal	ra,1de98 <_exit>

00010410 <__libc_fini_array>:
   10410:	ff010113          	addi	sp,sp,-16
   10414:	000257b7          	lui	a5,0x25
   10418:	00812423          	sw	s0,8(sp)
   1041c:	00025437          	lui	s0,0x25
   10420:	1cc78713          	addi	a4,a5,460 # 251cc <__init_array_end>
   10424:	1d040413          	addi	s0,s0,464 # 251d0 <__fini_array_end>
   10428:	40e40433          	sub	s0,s0,a4
   1042c:	00912223          	sw	s1,4(sp)
   10430:	00112623          	sw	ra,12(sp)
   10434:	40245413          	srai	s0,s0,0x2
   10438:	1cc78493          	addi	s1,a5,460
   1043c:	00041c63          	bne	s0,zero,10454 <__libc_fini_array+0x44>
   10440:	00812403          	lw	s0,8(sp)
   10444:	00c12083          	lw	ra,12(sp)
   10448:	00412483          	lw	s1,4(sp)
   1044c:	01010113          	addi	sp,sp,16
   10450:	e95ff06f          	jal	zero,102e4 <_fini>
   10454:	fff40413          	addi	s0,s0,-1
   10458:	00241793          	slli	a5,s0,0x2
   1045c:	00f487b3          	add	a5,s1,a5
   10460:	0007a783          	lw	a5,0(a5)
   10464:	000780e7          	jalr	ra,0(a5)
   10468:	fd5ff06f          	jal	zero,1043c <__libc_fini_array+0x2c>

0001046c <__libc_init_array>:
   1046c:	ff010113          	addi	sp,sp,-16
   10470:	000257b7          	lui	a5,0x25
   10474:	00812423          	sw	s0,8(sp)
   10478:	00025437          	lui	s0,0x25
   1047c:	1c878713          	addi	a4,a5,456 # 251c8 <__frame_dummy_init_array_entry>
   10480:	1c840413          	addi	s0,s0,456 # 251c8 <__frame_dummy_init_array_entry>
   10484:	40e40433          	sub	s0,s0,a4
   10488:	00912223          	sw	s1,4(sp)
   1048c:	01212023          	sw	s2,0(sp)
   10490:	00112623          	sw	ra,12(sp)
   10494:	40245413          	srai	s0,s0,0x2
   10498:	00000493          	addi	s1,zero,0
   1049c:	1c878913          	addi	s2,a5,456
   104a0:	04849263          	bne	s1,s0,104e4 <__libc_init_array+0x78>
   104a4:	e41ff0ef          	jal	ra,102e4 <_fini>
   104a8:	000257b7          	lui	a5,0x25
   104ac:	00025437          	lui	s0,0x25
   104b0:	1c878713          	addi	a4,a5,456 # 251c8 <__frame_dummy_init_array_entry>
   104b4:	1cc40413          	addi	s0,s0,460 # 251cc <__init_array_end>
   104b8:	40e40433          	sub	s0,s0,a4
   104bc:	40245413          	srai	s0,s0,0x2
   104c0:	00000493          	addi	s1,zero,0
   104c4:	1c878913          	addi	s2,a5,456
   104c8:	02849a63          	bne	s1,s0,104fc <__libc_init_array+0x90>
   104cc:	00c12083          	lw	ra,12(sp)
   104d0:	00812403          	lw	s0,8(sp)
   104d4:	00412483          	lw	s1,4(sp)
   104d8:	00012903          	lw	s2,0(sp)
   104dc:	01010113          	addi	sp,sp,16
   104e0:	00008067          	jalr	zero,0(ra) # 103b8 <frame_dummy+0x20>
   104e4:	00249793          	slli	a5,s1,0x2
   104e8:	00f907b3          	add	a5,s2,a5
   104ec:	0007a783          	lw	a5,0(a5)
   104f0:	00148493          	addi	s1,s1,1
   104f4:	000780e7          	jalr	ra,0(a5)
   104f8:	fa9ff06f          	jal	zero,104a0 <__libc_init_array+0x34>
   104fc:	00249793          	slli	a5,s1,0x2
   10500:	00f907b3          	add	a5,s2,a5
   10504:	0007a783          	lw	a5,0(a5)
   10508:	00148493          	addi	s1,s1,1
   1050c:	000780e7          	jalr	ra,0(a5)
   10510:	fb9ff06f          	jal	zero,104c8 <__libc_init_array+0x5c>

00010514 <memset>:
   10514:	00f00313          	addi	t1,zero,15
   10518:	00050713          	addi	a4,a0,0
   1051c:	02c37e63          	bgeu	t1,a2,10558 <memset+0x44>
   10520:	00f77793          	andi	a5,a4,15
   10524:	0a079063          	bne	a5,zero,105c4 <memset+0xb0>
   10528:	08059263          	bne	a1,zero,105ac <memset+0x98>
   1052c:	ff067693          	andi	a3,a2,-16
   10530:	00f67613          	andi	a2,a2,15
   10534:	00e686b3          	add	a3,a3,a4
   10538:	00b72023          	sw	a1,0(a4)
   1053c:	00b72223          	sw	a1,4(a4)
   10540:	00b72423          	sw	a1,8(a4)
   10544:	00b72623          	sw	a1,12(a4)
   10548:	01070713          	addi	a4,a4,16
   1054c:	fed766e3          	bltu	a4,a3,10538 <memset+0x24>
   10550:	00061463          	bne	a2,zero,10558 <memset+0x44>
   10554:	00008067          	jalr	zero,0(ra)
   10558:	40c306b3          	sub	a3,t1,a2
   1055c:	00269693          	slli	a3,a3,0x2
   10560:	00000297          	auipc	t0,0x0
   10564:	005686b3          	add	a3,a3,t0
   10568:	00c68067          	jalr	zero,12(a3)
   1056c:	00b70723          	sb	a1,14(a4)
   10570:	00b706a3          	sb	a1,13(a4)
   10574:	00b70623          	sb	a1,12(a4)
   10578:	00b705a3          	sb	a1,11(a4)
   1057c:	00b70523          	sb	a1,10(a4)
   10580:	00b704a3          	sb	a1,9(a4)
   10584:	00b70423          	sb	a1,8(a4)
   10588:	00b703a3          	sb	a1,7(a4)
   1058c:	00b70323          	sb	a1,6(a4)
   10590:	00b702a3          	sb	a1,5(a4)
   10594:	00b70223          	sb	a1,4(a4)
   10598:	00b701a3          	sb	a1,3(a4)
   1059c:	00b70123          	sb	a1,2(a4)
   105a0:	00b700a3          	sb	a1,1(a4)
   105a4:	00b70023          	sb	a1,0(a4)
   105a8:	00008067          	jalr	zero,0(ra)
   105ac:	0ff5f593          	andi	a1,a1,255
   105b0:	00859693          	slli	a3,a1,0x8
   105b4:	00d5e5b3          	or	a1,a1,a3
   105b8:	01059693          	slli	a3,a1,0x10
   105bc:	00d5e5b3          	or	a1,a1,a3
   105c0:	f6dff06f          	jal	zero,1052c <memset+0x18>
   105c4:	00279693          	slli	a3,a5,0x2
   105c8:	00000297          	auipc	t0,0x0
   105cc:	005686b3          	add	a3,a3,t0
   105d0:	00008293          	addi	t0,ra,0
   105d4:	fa0680e7          	jalr	ra,-96(a3)
   105d8:	00028093          	addi	ra,t0,0 # 105c8 <memset+0xb4>
   105dc:	ff078793          	addi	a5,a5,-16
   105e0:	40f70733          	sub	a4,a4,a5
   105e4:	00f60633          	add	a2,a2,a5
   105e8:	f6c378e3          	bgeu	t1,a2,10558 <memset+0x44>
   105ec:	f3dff06f          	jal	zero,10528 <memset+0x14>

000105f0 <__register_exitproc>:
   105f0:	1b81a703          	lw	a4,440(gp) # 25b88 <_global_impure_ptr>
   105f4:	00050313          	addi	t1,a0,0
   105f8:	14872783          	lw	a5,328(a4)
   105fc:	00079663          	bne	a5,zero,10608 <__register_exitproc+0x18>
   10600:	14c70793          	addi	a5,a4,332
   10604:	14f72423          	sw	a5,328(a4)
   10608:	0047a703          	lw	a4,4(a5)
   1060c:	01f00813          	addi	a6,zero,31
   10610:	fff00513          	addi	a0,zero,-1
   10614:	04e84a63          	blt	a6,a4,10668 <__register_exitproc+0x78>
   10618:	00271893          	slli	a7,a4,0x2
   1061c:	02030c63          	beq	t1,zero,10654 <__register_exitproc+0x64>
   10620:	01178533          	add	a0,a5,a7
   10624:	08c52423          	sw	a2,136(a0)
   10628:	1887a803          	lw	a6,392(a5)
   1062c:	00100613          	addi	a2,zero,1
   10630:	00e61633          	sll	a2,a2,a4
   10634:	00c86833          	or	a6,a6,a2
   10638:	1907a423          	sw	a6,392(a5)
   1063c:	10d52423          	sw	a3,264(a0)
   10640:	00200693          	addi	a3,zero,2
   10644:	00d31863          	bne	t1,a3,10654 <__register_exitproc+0x64>
   10648:	18c7a683          	lw	a3,396(a5)
   1064c:	00c6e633          	or	a2,a3,a2
   10650:	18c7a623          	sw	a2,396(a5)
   10654:	00170713          	addi	a4,a4,1
   10658:	00e7a223          	sw	a4,4(a5)
   1065c:	011787b3          	add	a5,a5,a7
   10660:	00b7a423          	sw	a1,8(a5)
   10664:	00000513          	addi	a0,zero,0
   10668:	00008067          	jalr	zero,0(ra)

0001066c <__call_exitprocs>:
   1066c:	fd010113          	addi	sp,sp,-48
   10670:	01312e23          	sw	s3,28(sp)
   10674:	1b81a983          	lw	s3,440(gp) # 25b88 <_global_impure_ptr>
   10678:	01412c23          	sw	s4,24(sp)
   1067c:	01512a23          	sw	s5,20(sp)
   10680:	01612823          	sw	s6,16(sp)
   10684:	02112623          	sw	ra,44(sp)
   10688:	02812423          	sw	s0,40(sp)
   1068c:	02912223          	sw	s1,36(sp)
   10690:	03212023          	sw	s2,32(sp)
   10694:	01712623          	sw	s7,12(sp)
   10698:	00050a93          	addi	s5,a0,0
   1069c:	00058a13          	addi	s4,a1,0
   106a0:	00100b13          	addi	s6,zero,1
   106a4:	1489a483          	lw	s1,328(s3)
   106a8:	00048c63          	beq	s1,zero,106c0 <__call_exitprocs+0x54>
   106ac:	0044a403          	lw	s0,4(s1)
   106b0:	fff40913          	addi	s2,s0,-1
   106b4:	00241413          	slli	s0,s0,0x2
   106b8:	00848433          	add	s0,s1,s0
   106bc:	02095863          	bge	s2,zero,106ec <__call_exitprocs+0x80>
   106c0:	02c12083          	lw	ra,44(sp)
   106c4:	02812403          	lw	s0,40(sp)
   106c8:	02412483          	lw	s1,36(sp)
   106cc:	02012903          	lw	s2,32(sp)
   106d0:	01c12983          	lw	s3,28(sp)
   106d4:	01812a03          	lw	s4,24(sp)
   106d8:	01412a83          	lw	s5,20(sp)
   106dc:	01012b03          	lw	s6,16(sp)
   106e0:	00c12b83          	lw	s7,12(sp)
   106e4:	03010113          	addi	sp,sp,48
   106e8:	00008067          	jalr	zero,0(ra)
   106ec:	000a0c63          	beq	s4,zero,10704 <__call_exitprocs+0x98>
   106f0:	10442783          	lw	a5,260(s0)
   106f4:	01478863          	beq	a5,s4,10704 <__call_exitprocs+0x98>
   106f8:	fff90913          	addi	s2,s2,-1
   106fc:	ffc40413          	addi	s0,s0,-4
   10700:	fbdff06f          	jal	zero,106bc <__call_exitprocs+0x50>
   10704:	0044a703          	lw	a4,4(s1)
   10708:	00442783          	lw	a5,4(s0)
   1070c:	fff70713          	addi	a4,a4,-1
   10710:	03271c63          	bne	a4,s2,10748 <__call_exitprocs+0xdc>
   10714:	0124a223          	sw	s2,4(s1)
   10718:	fe0780e3          	beq	a5,zero,106f8 <__call_exitprocs+0x8c>
   1071c:	1884a683          	lw	a3,392(s1)
   10720:	012b1733          	sll	a4,s6,s2
   10724:	0044ab83          	lw	s7,4(s1)
   10728:	00d776b3          	and	a3,a4,a3
   1072c:	02069263          	bne	a3,zero,10750 <__call_exitprocs+0xe4>
   10730:	000780e7          	jalr	ra,0(a5)
   10734:	0044a783          	lw	a5,4(s1)
   10738:	f77796e3          	bne	a5,s7,106a4 <__call_exitprocs+0x38>
   1073c:	1489a783          	lw	a5,328(s3)
   10740:	fa978ce3          	beq	a5,s1,106f8 <__call_exitprocs+0x8c>
   10744:	f61ff06f          	jal	zero,106a4 <__call_exitprocs+0x38>
   10748:	00042223          	sw	zero,4(s0)
   1074c:	fcdff06f          	jal	zero,10718 <__call_exitprocs+0xac>
   10750:	18c4a683          	lw	a3,396(s1)
   10754:	08442583          	lw	a1,132(s0)
   10758:	00d77733          	and	a4,a4,a3
   1075c:	00071863          	bne	a4,zero,1076c <__call_exitprocs+0x100>
   10760:	000a8513          	addi	a0,s5,0
   10764:	000780e7          	jalr	ra,0(a5)
   10768:	fcdff06f          	jal	zero,10734 <__call_exitprocs+0xc8>
   1076c:	00058513          	addi	a0,a1,0
   10770:	000780e7          	jalr	ra,0(a5)
   10774:	fc1ff06f          	jal	zero,10734 <__call_exitprocs+0xc8>

00010778 <KeyExpansion>:
   10778:	00450793          	addi	a5,a0,4
   1077c:	00458713          	addi	a4,a1,4
   10780:	00f5b7b3          	sltu	a5,a1,a5
   10784:	00e53733          	sltu	a4,a0,a4
   10788:	fd010113          	addi	sp,sp,-48
   1078c:	0017c793          	xori	a5,a5,1
   10790:	00174713          	xori	a4,a4,1
   10794:	02812623          	sw	s0,44(sp)
   10798:	02912423          	sw	s1,40(sp)
   1079c:	03212223          	sw	s2,36(sp)
   107a0:	03312023          	sw	s3,32(sp)
   107a4:	01412e23          	sw	s4,28(sp)
   107a8:	01512c23          	sw	s5,24(sp)
   107ac:	01612a23          	sw	s6,20(sp)
   107b0:	01712823          	sw	s7,16(sp)
   107b4:	01812623          	sw	s8,12(sp)
   107b8:	01912423          	sw	s9,8(sp)
   107bc:	01a12223          	sw	s10,4(sp)
   107c0:	00e7e7b3          	or	a5,a5,a4
   107c4:	18078263          	beq	a5,zero,10948 <KeyExpansion+0x1d0>
   107c8:	00b567b3          	or	a5,a0,a1
   107cc:	0037f793          	andi	a5,a5,3
   107d0:	16079c63          	bne	a5,zero,10948 <KeyExpansion+0x1d0>
   107d4:	0005a783          	lw	a5,0(a1)
   107d8:	00f52023          	sw	a5,0(a0)
   107dc:	0045a783          	lw	a5,4(a1)
   107e0:	00f52223          	sw	a5,4(a0)
   107e4:	0085a783          	lw	a5,8(a1)
   107e8:	00f52423          	sw	a5,8(a0)
   107ec:	00c5a783          	lw	a5,12(a1)
   107f0:	00f52623          	sw	a5,12(a0)
   107f4:	000235b7          	lui	a1,0x23
   107f8:	00354a03          	lbu	s4,3(a0)
   107fc:	00754983          	lbu	s3,7(a0)
   10800:	00b54903          	lbu	s2,11(a0)
   10804:	00f54e83          	lbu	t4,15(a0)
   10808:	00254b03          	lbu	s6,2(a0)
   1080c:	00654483          	lbu	s1,6(a0)
   10810:	00a54403          	lbu	s0,10(a0)
   10814:	00e54e03          	lbu	t3,14(a0)
   10818:	00154b83          	lbu	s7,1(a0)
   1081c:	00554383          	lbu	t2,5(a0)
   10820:	00954283          	lbu	t0,9(a0)
   10824:	00d54303          	lbu	t1,13(a0)
   10828:	00054c03          	lbu	s8,0(a0)
   1082c:	00454f83          	lbu	t6,4(a0)
   10830:	00854f03          	lbu	t5,8(a0)
   10834:	00c54883          	lbu	a7,12(a0)
   10838:	00400813          	addi	a6,zero,4
   1083c:	01050513          	addi	a0,a0,16
   10840:	05858593          	addi	a1,a1,88 # 23058 <sbox>
   10844:	02c00a93          	addi	s5,zero,44
   10848:	0980006f          	jal	zero,108e0 <KeyExpansion+0x168>
   1084c:	100d4783          	lbu	a5,256(s10)
   10850:	000ccc83          	lbu	s9,0(s9)
   10854:	00074703          	lbu	a4,0(a4)
   10858:	0006c683          	lbu	a3,0(a3)
   1085c:	00064603          	lbu	a2,0(a2)
   10860:	0197c7b3          	xor	a5,a5,s9
   10864:	0187c7b3          	xor	a5,a5,s8
   10868:	00ebc733          	xor	a4,s7,a4
   1086c:	00db46b3          	xor	a3,s6,a3
   10870:	01464633          	xor	a2,a2,s4
   10874:	0ff7f793          	andi	a5,a5,255
   10878:	0ff77713          	andi	a4,a4,255
   1087c:	0ff6f693          	andi	a3,a3,255
   10880:	0ff67613          	andi	a2,a2,255
   10884:	00f50023          	sb	a5,0(a0)
   10888:	00e500a3          	sb	a4,1(a0)
   1088c:	00d50123          	sb	a3,2(a0)
   10890:	00c501a3          	sb	a2,3(a0)
   10894:	00180813          	addi	a6,a6,1
   10898:	00098a13          	addi	s4,s3,0
   1089c:	00048b13          	addi	s6,s1,0
   108a0:	00090993          	addi	s3,s2,0
   108a4:	00040493          	addi	s1,s0,0
   108a8:	000e8913          	addi	s2,t4,0
   108ac:	000e0413          	addi	s0,t3,0
   108b0:	00038b93          	addi	s7,t2,0
   108b4:	000f8c13          	addi	s8,t6,0
   108b8:	00028393          	addi	t2,t0,0
   108bc:	000f0f93          	addi	t6,t5,0
   108c0:	00030293          	addi	t0,t1,0
   108c4:	00088f13          	addi	t5,a7,0
   108c8:	00450513          	addi	a0,a0,4
   108cc:	00060e93          	addi	t4,a2,0
   108d0:	00068e13          	addi	t3,a3,0
   108d4:	00070313          	addi	t1,a4,0
   108d8:	00078893          	addi	a7,a5,0
   108dc:	03580c63          	beq	a6,s5,10914 <KeyExpansion+0x19c>
   108e0:	00285793          	srli	a5,a6,0x2
   108e4:	00f58d33          	add	s10,a1,a5
   108e8:	00387793          	andi	a5,a6,3
   108ec:	00658cb3          	add	s9,a1,t1
   108f0:	01c58733          	add	a4,a1,t3
   108f4:	01d586b3          	add	a3,a1,t4
   108f8:	01158633          	add	a2,a1,a7
   108fc:	f40788e3          	beq	a5,zero,1084c <KeyExpansion+0xd4>
   10900:	000e8613          	addi	a2,t4,0
   10904:	000e0693          	addi	a3,t3,0
   10908:	00030713          	addi	a4,t1,0
   1090c:	00088793          	addi	a5,a7,0
   10910:	f55ff06f          	jal	zero,10864 <KeyExpansion+0xec>
   10914:	02c12403          	lw	s0,44(sp)
   10918:	02812483          	lw	s1,40(sp)
   1091c:	02412903          	lw	s2,36(sp)
   10920:	02012983          	lw	s3,32(sp)
   10924:	01c12a03          	lw	s4,28(sp)
   10928:	01812a83          	lw	s5,24(sp)
   1092c:	01412b03          	lw	s6,20(sp)
   10930:	01012b83          	lw	s7,16(sp)
   10934:	00c12c03          	lw	s8,12(sp)
   10938:	00812c83          	lw	s9,8(sp)
   1093c:	00412d03          	lw	s10,4(sp)
   10940:	03010113          	addi	sp,sp,48
   10944:	00008067          	jalr	zero,0(ra)
   10948:	0005c783          	lbu	a5,0(a1)
   1094c:	00f50023          	sb	a5,0(a0)
   10950:	0015c783          	lbu	a5,1(a1)
   10954:	00f500a3          	sb	a5,1(a0)
   10958:	0025c783          	lbu	a5,2(a1)
   1095c:	00f50123          	sb	a5,2(a0)
   10960:	0035c783          	lbu	a5,3(a1)
   10964:	00f501a3          	sb	a5,3(a0)
   10968:	0045c783          	lbu	a5,4(a1)
   1096c:	00f50223          	sb	a5,4(a0)
   10970:	0055c783          	lbu	a5,5(a1)
   10974:	00f502a3          	sb	a5,5(a0)
   10978:	0065c783          	lbu	a5,6(a1)
   1097c:	00f50323          	sb	a5,6(a0)
   10980:	0075c783          	lbu	a5,7(a1)
   10984:	00f503a3          	sb	a5,7(a0)
   10988:	0085c783          	lbu	a5,8(a1)
   1098c:	00f50423          	sb	a5,8(a0)
   10990:	0095c783          	lbu	a5,9(a1)
   10994:	00f504a3          	sb	a5,9(a0)
   10998:	00a5c783          	lbu	a5,10(a1)
   1099c:	00f50523          	sb	a5,10(a0)
   109a0:	00b5c783          	lbu	a5,11(a1)
   109a4:	00f505a3          	sb	a5,11(a0)
   109a8:	00c5c783          	lbu	a5,12(a1)
   109ac:	00f50623          	sb	a5,12(a0)
   109b0:	00d5c783          	lbu	a5,13(a1)
   109b4:	00f506a3          	sb	a5,13(a0)
   109b8:	00e5c783          	lbu	a5,14(a1)
   109bc:	00f50723          	sb	a5,14(a0)
   109c0:	00f5c783          	lbu	a5,15(a1)
   109c4:	00f507a3          	sb	a5,15(a0)
   109c8:	e2dff06f          	jal	zero,107f4 <KeyExpansion+0x7c>

000109cc <Cipher>:
   109cc:	f1010113          	addi	sp,sp,-240
   109d0:	0e912423          	sw	s1,232(sp)
   109d4:	0f212223          	sw	s2,228(sp)
   109d8:	0f312023          	sw	s3,224(sp)
   109dc:	0d412e23          	sw	s4,220(sp)
   109e0:	0d512c23          	sw	s5,216(sp)
   109e4:	0d612a23          	sw	s6,212(sp)
   109e8:	0d712823          	sw	s7,208(sp)
   109ec:	0d912423          	sw	s9,200(sp)
   109f0:	0da12223          	sw	s10,196(sp)
   109f4:	0e812623          	sw	s0,236(sp)
   109f8:	0d812623          	sw	s8,204(sp)
   109fc:	0db12023          	sw	s11,192(sp)
   10a00:	0005c783          	lbu	a5,0(a1)
   10a04:	00054703          	lbu	a4,0(a0)
   10a08:	00154603          	lbu	a2,1(a0)
   10a0c:	00254683          	lbu	a3,2(a0)
   10a10:	00e7c7b3          	xor	a5,a5,a4
   10a14:	00f50023          	sb	a5,0(a0)
   10a18:	0015c783          	lbu	a5,1(a1)
   10a1c:	00050313          	addi	t1,a0,0
   10a20:	00454883          	lbu	a7,4(a0)
   10a24:	00c7c7b3          	xor	a5,a5,a2
   10a28:	00f500a3          	sb	a5,1(a0)
   10a2c:	0025c783          	lbu	a5,2(a1)
   10a30:	00554803          	lbu	a6,5(a0)
   10a34:	00354703          	lbu	a4,3(a0)
   10a38:	00d7c7b3          	xor	a5,a5,a3
   10a3c:	00654503          	lbu	a0,6(a0)
   10a40:	00f30123          	sb	a5,2(t1)
   10a44:	0035c783          	lbu	a5,3(a1)
   10a48:	00058e13          	addi	t3,a1,0
   10a4c:	00834603          	lbu	a2,8(t1)
   10a50:	00e7c7b3          	xor	a5,a5,a4
   10a54:	00f301a3          	sb	a5,3(t1)
   10a58:	004e4783          	lbu	a5,4(t3)
   10a5c:	00934683          	lbu	a3,9(t1)
   10a60:	0ab12e23          	sw	a1,188(sp)
   10a64:	0117c7b3          	xor	a5,a5,a7
   10a68:	00734583          	lbu	a1,7(t1)
   10a6c:	00a34703          	lbu	a4,10(t1)
   10a70:	00f30223          	sb	a5,4(t1)
   10a74:	005e4783          	lbu	a5,5(t3)
   10a78:	00034d03          	lbu	s10,0(t1)
   10a7c:	00434a83          	lbu	s5,4(t1)
   10a80:	0107c7b3          	xor	a5,a5,a6
   10a84:	00f302a3          	sb	a5,5(t1)
   10a88:	006e4783          	lbu	a5,6(t3)
   10a8c:	0a0e0813          	addi	a6,t3,160
   10a90:	0b012c23          	sw	a6,184(sp)
   10a94:	00a7c7b3          	xor	a5,a5,a0
   10a98:	00f30323          	sb	a5,6(t1)
   10a9c:	007e4783          	lbu	a5,7(t3)
   10aa0:	00023837          	lui	a6,0x23
   10aa4:	05880293          	addi	t0,a6,88 # 23058 <sbox>
   10aa8:	00b7c7b3          	xor	a5,a5,a1
   10aac:	00f303a3          	sb	a5,7(t1)
   10ab0:	008e4783          	lbu	a5,8(t3)
   10ab4:	00d34803          	lbu	a6,13(t1)
   10ab8:	00f34583          	lbu	a1,15(t1)
   10abc:	00c7c7b3          	xor	a5,a5,a2
   10ac0:	00f30423          	sb	a5,8(t1)
   10ac4:	009e4783          	lbu	a5,9(t3)
   10ac8:	00834383          	lbu	t2,8(t1)
   10acc:	010e0a13          	addi	s4,t3,16
   10ad0:	00d7c7b3          	xor	a5,a5,a3
   10ad4:	00f304a3          	sb	a5,9(t1)
   10ad8:	00ae4783          	lbu	a5,10(t3)
   10adc:	00b34683          	lbu	a3,11(t1)
   10ae0:	00e7c7b3          	xor	a5,a5,a4
   10ae4:	00f30523          	sb	a5,10(t1)
   10ae8:	00be4703          	lbu	a4,11(t3)
   10aec:	00c34783          	lbu	a5,12(t1)
   10af0:	00d74733          	xor	a4,a4,a3
   10af4:	00e305a3          	sb	a4,11(t1)
   10af8:	00ce4683          	lbu	a3,12(t3)
   10afc:	00e34703          	lbu	a4,14(t1)
   10b00:	00d7c7b3          	xor	a5,a5,a3
   10b04:	00f30623          	sb	a5,12(t1)
   10b08:	00de4783          	lbu	a5,13(t3)
   10b0c:	00c34883          	lbu	a7,12(t1)
   10b10:	00f84833          	xor	a6,a6,a5
   10b14:	010306a3          	sb	a6,13(t1)
   10b18:	00ee4783          	lbu	a5,14(t3)
   10b1c:	00080913          	addi	s2,a6,0
   10b20:	00f74733          	xor	a4,a4,a5
   10b24:	00e30723          	sb	a4,14(t1)
   10b28:	00fe4603          	lbu	a2,15(t3)
   10b2c:	00934f83          	lbu	t6,9(t1)
   10b30:	00b34e03          	lbu	t3,11(t1)
   10b34:	00c5c5b3          	xor	a1,a1,a2
   10b38:	000f8f13          	addi	t5,t6,0
   10b3c:	00058b13          	addi	s6,a1,0
   10b40:	00134c83          	lbu	s9,1(t1)
   10b44:	00070593          	addi	a1,a4,0
   10b48:	00534983          	lbu	s3,5(t1)
   10b4c:	000e0713          	addi	a4,t3,0
   10b50:	00234b83          	lbu	s7,2(t1)
   10b54:	00634483          	lbu	s1,6(t1)
   10b58:	00a34e83          	lbu	t4,10(t1)
   10b5c:	00334683          	lbu	a3,3(t1)
   10b60:	00734783          	lbu	a5,7(t1)
   10b64:	00038f93          	addi	t6,t2,0
   10b68:	00088e13          	addi	t3,a7,0
   10b6c:	6640006f          	jal	zero,111d0 <Cipher+0x804>
   10b70:	00b84c33          	xor	s8,a6,a1
   10b74:	00a64433          	xor	s0,a2,a0
   10b78:	00060793          	addi	a5,a2,0
   10b7c:	00080693          	addi	a3,a6,0
   10b80:	00058613          	addi	a2,a1,0
   10b84:	000e8813          	addi	a6,t4,0
   10b88:	011fccb3          	xor	s9,t6,a7
   10b8c:	01e84d33          	xor	s10,a6,t5
   10b90:	00050713          	addi	a4,a0,0
   10b94:	00812023          	sw	s0,0(sp)
   10b98:	000f8593          	addi	a1,t6,0
   10b9c:	00c7c433          	xor	s0,a5,a2
   10ba0:	00088513          	addi	a0,a7,0
   10ba4:	000f0e93          	addi	t4,t5,0
   10ba8:	0093c8b3          	xor	a7,t2,s1
   10bac:	00038f13          	addi	t5,t2,0
   10bb0:	00048f93          	addi	t6,s1,0
   10bb4:	00090393          	addi	t2,s2,0
   10bb8:	00098493          	addi	s1,s3,0
   10bbc:	01394933          	xor	s2,s2,s3
   10bc0:	017b49b3          	xor	s3,s6,s7
   10bc4:	015e4db3          	xor	s11,t3,s5
   10bc8:	01212423          	sw	s2,8(sp)
   10bcc:	000e0913          	addi	s2,t3,0
   10bd0:	00098e13          	addi	t3,s3,0
   10bd4:	00040993          	addi	s3,s0,0
   10bd8:	01054433          	xor	s0,a0,a6
   10bdc:	00040513          	addi	a0,s0,0
   10be0:	01d5c433          	xor	s0,a1,t4
   10be4:	00040593          	addi	a1,s0,0
   10be8:	007fc433          	xor	s0,t6,t2
   10bec:	00040393          	addi	t2,s0,0
   10bf0:	009f4433          	xor	s0,t5,s1
   10bf4:	00040793          	addi	a5,s0,0
   10bf8:	016ac433          	xor	s0,s5,s6
   10bfc:	00040a93          	addi	s5,s0,0
   10c00:	01794433          	xor	s0,s2,s7
   10c04:	00040b13          	addi	s6,s0,0
   10c08:	00012403          	lw	s0,0(sp)
   10c0c:	08b12623          	sw	a1,140(sp)
   10c10:	0075d593          	srli	a1,a1,0x7
   10c14:	00745413          	srli	s0,s0,0x7
   10c18:	00755f93          	srli	t6,a0,0x7
   10c1c:	01b12223          	sw	s11,4(sp)
   10c20:	06b12223          	sw	a1,100(sp)
   10c24:	08a12423          	sw	a0,136(sp)
   10c28:	05112e23          	sw	a7,92(sp)
   10c2c:	0078d513          	srli	a0,a7,0x7
   10c30:	00341893          	slli	a7,s0,0x3
   10c34:	00412603          	lw	a2,4(sp)
   10c38:	0a812023          	sw	s0,160(sp)
   10c3c:	408888b3          	sub	a7,a7,s0
   10c40:	06412403          	lw	s0,100(sp)
   10c44:	0079de93          	srli	t4,s3,0x7
   10c48:	06a12423          	sw	a0,104(sp)
   10c4c:	09312223          	sw	s3,132(sp)
   10c50:	00359593          	slli	a1,a1,0x3
   10c54:	00812983          	lw	s3,8(sp)
   10c58:	00765813          	srli	a6,a2,0x7
   10c5c:	408585b3          	sub	a1,a1,s0
   10c60:	06812403          	lw	s0,104(sp)
   10c64:	007cd493          	srli	s1,s9,0x7
   10c68:	00d74db3          	xor	s11,a4,a3
   10c6c:	05912c23          	sw	s9,88(sp)
   10c70:	00080713          	addi	a4,a6,0
   10c74:	0073dc93          	srli	s9,t2,0x7
   10c78:	007ad813          	srli	a6,s5,0x7
   10c7c:	08712823          	sw	t2,144(sp)
   10c80:	007e5393          	srli	t2,t3,0x7
   10c84:	007d5f13          	srli	t5,s10,0x7
   10c88:	0079d693          	srli	a3,s3,0x7
   10c8c:	01012623          	sw	a6,12(sp)
   10c90:	00712823          	sw	t2,16(sp)
   10c94:	05a12a23          	sw	s10,84(sp)
   10c98:	08f12a23          	sw	a5,148(sp)
   10c9c:	00351d13          	slli	s10,a0,0x3
   10ca0:	0077d793          	srli	a5,a5,0x7
   10ca4:	07912623          	sw	s9,108(sp)
   10ca8:	09b12023          	sw	s11,128(sp)
   10cac:	07812e23          	sw	s8,124(sp)
   10cb0:	09512c23          	sw	s5,152(sp)
   10cb4:	07c12023          	sw	t3,96(sp)
   10cb8:	09612e23          	sw	s6,156(sp)
   10cbc:	06d12823          	sw	a3,112(sp)
   10cc0:	00369513          	slli	a0,a3,0x3
   10cc4:	06f12a23          	sw	a5,116(sp)
   10cc8:	00379993          	slli	s3,a5,0x3
   10ccc:	06e12c23          	sw	a4,120(sp)
   10cd0:	01012783          	lw	a5,16(sp)
   10cd4:	00c12683          	lw	a3,12(sp)
   10cd8:	408d0d33          	sub	s10,s10,s0
   10cdc:	06c12403          	lw	s0,108(sp)
   10ce0:	003c9a93          	slli	s5,s9,0x3
   10ce4:	00371c93          	slli	s9,a4,0x3
   10ce8:	408a8ab3          	sub	s5,s5,s0
   10cec:	07012403          	lw	s0,112(sp)
   10cf0:	007c5913          	srli	s2,s8,0x7
   10cf4:	007b5c13          	srli	s8,s6,0x7
   10cf8:	40850533          	sub	a0,a0,s0
   10cfc:	07412403          	lw	s0,116(sp)
   10d00:	003e9b13          	slli	s6,t4,0x3
   10d04:	00391b93          	slli	s7,s2,0x3
   10d08:	408989b3          	sub	s3,s3,s0
   10d0c:	07812403          	lw	s0,120(sp)
   10d10:	41db0b33          	sub	s6,s6,t4
   10d14:	000c0e13          	addi	t3,s8,0
   10d18:	408c8cb3          	sub	s9,s9,s0
   10d1c:	00c12403          	lw	s0,12(sp)
   10d20:	412b8bb3          	sub	s7,s7,s2
   10d24:	002b1b13          	slli	s6,s6,0x2
   10d28:	00369693          	slli	a3,a3,0x3
   10d2c:	0b612223          	sw	s6,164(sp)
   10d30:	00379713          	slli	a4,a5,0x3
   10d34:	408686b3          	sub	a3,a3,s0
   10d38:	003e1793          	slli	a5,t3,0x3
   10d3c:	01012403          	lw	s0,16(sp)
   10d40:	002b9b93          	slli	s7,s7,0x2
   10d44:	41c787b3          	sub	a5,a5,t3
   10d48:	412b8bb3          	sub	s7,s7,s2
   10d4c:	0a412903          	lw	s2,164(sp)
   10d50:	0bc12823          	sw	t3,176(sp)
   10d54:	00279e13          	slli	t3,a5,0x2
   10d58:	40870733          	sub	a4,a4,s0
   10d5c:	0bc12a23          	sw	t3,180(sp)
   10d60:	00012403          	lw	s0,0(sp)
   10d64:	07c12e03          	lw	t3,124(sp)
   10d68:	00269693          	slli	a3,a3,0x2
   10d6c:	41d90eb3          	sub	t4,s2,t4
   10d70:	08412903          	lw	s2,132(sp)
   10d74:	0ad12423          	sw	a3,168(sp)
   10d78:	00271693          	slli	a3,a4,0x2
   10d7c:	008e4b33          	xor	s6,t3,s0
   10d80:	05412783          	lw	a5,84(sp)
   10d84:	007ddd93          	srli	s11,s11,0x7
   10d88:	0ad12623          	sw	a3,172(sp)
   10d8c:	001e1e13          	slli	t3,t3,0x1
   10d90:	05812683          	lw	a3,88(sp)
   10d94:	003d9c13          	slli	s8,s11,0x3
   10d98:	07c12e23          	sw	t3,124(sp)
   10d9c:	00191e13          	slli	t3,s2,0x1
   10da0:	05812903          	lw	s2,88(sp)
   10da4:	41bc0c33          	sub	s8,s8,s11
   10da8:	00d7c6b3          	xor	a3,a5,a3
   10dac:	002c1c13          	slli	s8,s8,0x2
   10db0:	05c12783          	lw	a5,92(sp)
   10db4:	00812703          	lw	a4,8(sp)
   10db8:	41bc0db3          	sub	s11,s8,s11
   10dbc:	003f1813          	slli	a6,t5,0x3
   10dc0:	08012c03          	lw	s8,128(sp)
   10dc4:	09c12023          	sw	t3,128(sp)
   10dc8:	00191e13          	slli	t3,s2,0x1
   10dcc:	05412903          	lw	s2,84(sp)
   10dd0:	41e80833          	sub	a6,a6,t5
   10dd4:	00e7c733          	xor	a4,a5,a4
   10dd8:	06012403          	lw	s0,96(sp)
   10ddc:	00281813          	slli	a6,a6,0x2
   10de0:	00412783          	lw	a5,4(sp)
   10de4:	41e80f33          	sub	t5,a6,t5
   10de8:	00191813          	slli	a6,s2,0x1
   10dec:	05012a23          	sw	a6,84(sp)
   10df0:	06412803          	lw	a6,100(sp)
   10df4:	0087c7b3          	xor	a5,a5,s0
   10df8:	00349393          	slli	t2,s1,0x3
   10dfc:	0a012403          	lw	s0,160(sp)
   10e00:	003f9613          	slli	a2,t6,0x3
   10e04:	409383b3          	sub	t2,t2,s1
   10e08:	41f60633          	sub	a2,a2,t6
   10e0c:	00259593          	slli	a1,a1,0x2
   10e10:	41058833          	sub	a6,a1,a6
   10e14:	00261613          	slli	a2,a2,0x2
   10e18:	05c12c23          	sw	t3,88(sp)
   10e1c:	00289893          	slli	a7,a7,0x2
   10e20:	00239393          	slli	t2,t2,0x2
   10e24:	408888b3          	sub	a7,a7,s0
   10e28:	41f60fb3          	sub	t6,a2,t6
   10e2c:	00012403          	lw	s0,0(sp)
   10e30:	409383b3          	sub	t2,t2,s1
   10e34:	08812603          	lw	a2,136(sp)
   10e38:	07012223          	sw	a6,100(sp)
   10e3c:	06812483          	lw	s1,104(sp)
   10e40:	05c12903          	lw	s2,92(sp)
   10e44:	002d1d13          	slli	s10,s10,0x2
   10e48:	409d0d33          	sub	s10,s10,s1
   10e4c:	06c12483          	lw	s1,108(sp)
   10e50:	00191593          	slli	a1,s2,0x1
   10e54:	04b12e23          	sw	a1,92(sp)
   10e58:	002a9a93          	slli	s5,s5,0x2
   10e5c:	09012583          	lw	a1,144(sp)
   10e60:	00812903          	lw	s2,8(sp)
   10e64:	409a8ab3          	sub	s5,s5,s1
   10e68:	07012483          	lw	s1,112(sp)
   10e6c:	00159593          	slli	a1,a1,0x1
   10e70:	00251513          	slli	a0,a0,0x2
   10e74:	06b12423          	sw	a1,104(sp)
   10e78:	40950533          	sub	a0,a0,s1
   10e7c:	09412583          	lw	a1,148(sp)
   10e80:	00191493          	slli	s1,s2,0x1
   10e84:	07412903          	lw	s2,116(sp)
   10e88:	00299993          	slli	s3,s3,0x2
   10e8c:	002c9c93          	slli	s9,s9,0x2
   10e90:	412989b3          	sub	s3,s3,s2
   10e94:	00159913          	slli	s2,a1,0x1
   10e98:	07212823          	sw	s2,112(sp)
   10e9c:	07812903          	lw	s2,120(sp)
   10ea0:	0a812583          	lw	a1,168(sp)
   10ea4:	00141413          	slli	s0,s0,0x1
   10ea8:	412c8cb3          	sub	s9,s9,s2
   10eac:	00412903          	lw	s2,4(sp)
   10eb0:	0088c433          	xor	s0,a7,s0
   10eb4:	01412883          	lw	a7,20(sp)
   10eb8:	00191913          	slli	s2,s2,0x1
   10ebc:	07212a23          	sw	s2,116(sp)
   10ec0:	00c12903          	lw	s2,12(sp)
   10ec4:	06912623          	sw	s1,108(sp)
   10ec8:	01012483          	lw	s1,16(sp)
   10ecc:	41258933          	sub	s2,a1,s2
   10ed0:	0ac12583          	lw	a1,172(sp)
   10ed4:	011b48b3          	xor	a7,s6,a7
   10ed8:	0b412e03          	lw	t3,180(sp)
   10edc:	409585b3          	sub	a1,a1,s1
   10ee0:	01112023          	sw	a7,0(sp)
   10ee4:	0b012483          	lw	s1,176(sp)
   10ee8:	02412883          	lw	a7,36(sp)
   10eec:	001c1c13          	slli	s8,s8,0x1
   10ef0:	409e04b3          	sub	s1,t3,s1
   10ef4:	018dcc33          	xor	s8,s11,s8
   10ef8:	011b4db3          	xor	s11,s6,a7
   10efc:	08c12803          	lw	a6,140(sp)
   10f00:	07212c23          	sw	s2,120(sp)
   10f04:	08b12223          	sw	a1,132(sp)
   10f08:	09812903          	lw	s2,152(sp)
   10f0c:	06012583          	lw	a1,96(sp)
   10f10:	01b12223          	sw	s11,4(sp)
   10f14:	06912023          	sw	s1,96(sp)
   10f18:	09c12483          	lw	s1,156(sp)
   10f1c:	07c12e03          	lw	t3,124(sp)
   10f20:	03812883          	lw	a7,56(sp)
   10f24:	00161613          	slli	a2,a2,0x1
   10f28:	01cbcbb3          	xor	s7,s7,t3
   10f2c:	011b4db3          	xor	s11,s6,a7
   10f30:	08012e03          	lw	t3,128(sp)
   10f34:	04c12883          	lw	a7,76(sp)
   10f38:	01b12423          	sw	s11,8(sp)
   10f3c:	01ceceb3          	xor	t4,t4,t3
   10f40:	011b4b33          	xor	s6,s6,a7
   10f44:	05812e03          	lw	t3,88(sp)
   10f48:	01812883          	lw	a7,24(sp)
   10f4c:	00cfc633          	xor	a2,t6,a2
   10f50:	01c3c3b3          	xor	t2,t2,t3
   10f54:	0116cdb3          	xor	s11,a3,a7
   10f58:	05412e03          	lw	t3,84(sp)
   10f5c:	02812883          	lw	a7,40(sp)
   10f60:	00181813          	slli	a6,a6,0x1
   10f64:	01cf4f33          	xor	t5,t5,t3
   10f68:	0116cfb3          	xor	t6,a3,a7
   10f6c:	06412e03          	lw	t3,100(sp)
   10f70:	03c12883          	lw	a7,60(sp)
   10f74:	01b12623          	sw	s11,12(sp)
   10f78:	010e4833          	xor	a6,t3,a6
   10f7c:	0116cdb3          	xor	s11,a3,a7
   10f80:	05c12e03          	lw	t3,92(sp)
   10f84:	04012883          	lw	a7,64(sp)
   10f88:	01e12a23          	sw	t5,20(sp)
   10f8c:	01cd4d33          	xor	s10,s10,t3
   10f90:	01c12f03          	lw	t5,28(sp)
   10f94:	06812e03          	lw	t3,104(sp)
   10f98:	0116c6b3          	xor	a3,a3,a7
   10f9c:	02c12883          	lw	a7,44(sp)
   10fa0:	01cacab3          	xor	s5,s5,t3
   10fa4:	01f12823          	sw	t6,16(sp)
   10fa8:	06c12e03          	lw	t3,108(sp)
   10fac:	01e74fb3          	xor	t6,a4,t5
   10fb0:	01174f33          	xor	t5,a4,a7
   10fb4:	03012883          	lw	a7,48(sp)
   10fb8:	01c54533          	xor	a0,a0,t3
   10fbc:	00159593          	slli	a1,a1,0x1
   10fc0:	01174e33          	xor	t3,a4,a7
   10fc4:	04412883          	lw	a7,68(sp)
   10fc8:	01c12c23          	sw	t3,24(sp)
   10fcc:	07012e03          	lw	t3,112(sp)
   10fd0:	01174733          	xor	a4,a4,a7
   10fd4:	00e12e23          	sw	a4,28(sp)
   10fd8:	08412703          	lw	a4,132(sp)
   10fdc:	01c9c9b3          	xor	s3,s3,t3
   10fe0:	07812883          	lw	a7,120(sp)
   10fe4:	00b745b3          	xor	a1,a4,a1
   10fe8:	03412703          	lw	a4,52(sp)
   10fec:	07412e03          	lw	t3,116(sp)
   10ff0:	00191913          	slli	s2,s2,0x1
   10ff4:	00e7c733          	xor	a4,a5,a4
   10ff8:	01ccccb3          	xor	s9,s9,t3
   10ffc:	0128c933          	xor	s2,a7,s2
   11000:	05012e03          	lw	t3,80(sp)
   11004:	02012883          	lw	a7,32(sp)
   11008:	02e12023          	sw	a4,32(sp)
   1100c:	06012703          	lw	a4,96(sp)
   11010:	00149493          	slli	s1,s1,0x1
   11014:	01c7ce33          	xor	t3,a5,t3
   11018:	009744b3          	xor	s1,a4,s1
   1101c:	04812703          	lw	a4,72(sp)
   11020:	0117c8b3          	xor	a7,a5,a7
   11024:	00d846b3          	xor	a3,a6,a3
   11028:	00e7c7b3          	xor	a5,a5,a4
   1102c:	00012703          	lw	a4,0(sp)
   11030:	02012803          	lw	a6,32(sp)
   11034:	00f4c7b3          	xor	a5,s1,a5
   11038:	00e44433          	xor	s0,s0,a4
   1103c:	00412703          	lw	a4,4(sp)
   11040:	016ecb33          	xor	s6,t4,s6
   11044:	01fd4fb3          	xor	t6,s10,t6
   11048:	00ec4c33          	xor	s8,s8,a4
   1104c:	00812703          	lw	a4,8(sp)
   11050:	01eacf33          	xor	t5,s5,t5
   11054:	01ccce33          	xor	t3,s9,t3
   11058:	00ebcbb3          	xor	s7,s7,a4
   1105c:	00c12703          	lw	a4,12(sp)
   11060:	011948b3          	xor	a7,s2,a7
   11064:	0105c5b3          	xor	a1,a1,a6
   11068:	00e3c3b3          	xor	t2,t2,a4
   1106c:	01012703          	lw	a4,16(sp)
   11070:	0ffb7b13          	andi	s6,s6,255
   11074:	0ff6f813          	andi	a6,a3,255
   11078:	00e64633          	xor	a2,a2,a4
   1107c:	01412703          	lw	a4,20(sp)
   11080:	0ff67613          	andi	a2,a2,255
   11084:	0ff8f913          	andi	s2,a7,255
   11088:	01b74db3          	xor	s11,a4,s11
   1108c:	01812703          	lw	a4,24(sp)
   11090:	0ff47413          	andi	s0,s0,255
   11094:	0ffc7c13          	andi	s8,s8,255
   11098:	00e54533          	xor	a0,a0,a4
   1109c:	01c12703          	lw	a4,28(sp)
   110a0:	0ff57e93          	andi	t4,a0,255
   110a4:	0ffbfb93          	andi	s7,s7,255
   110a8:	00e9c733          	xor	a4,s3,a4
   110ac:	0ff7f513          	andi	a0,a5,255
   110b0:	0ff3f393          	andi	t2,t2,255
   110b4:	0ffdfd93          	andi	s11,s11,255
   110b8:	0fffff93          	andi	t6,t6,255
   110bc:	0fff7f13          	andi	t5,t5,255
   110c0:	0ff77713          	andi	a4,a4,255
   110c4:	0ffe7e13          	andi	t3,t3,255
   110c8:	0ff5f593          	andi	a1,a1,255
   110cc:	00830023          	sb	s0,0(t1)
   110d0:	018300a3          	sb	s8,1(t1)
   110d4:	01730123          	sb	s7,2(t1)
   110d8:	016301a3          	sb	s6,3(t1)
   110dc:	00c302a3          	sb	a2,5(t1)
   110e0:	01f30423          	sb	t6,8(t1)
   110e4:	01e304a3          	sb	t5,9(t1)
   110e8:	01d30523          	sb	t4,10(t1)
   110ec:	00e305a3          	sb	a4,11(t1)
   110f0:	01c30623          	sb	t3,12(t1)
   110f4:	012306a3          	sb	s2,13(t1)
   110f8:	00b30723          	sb	a1,14(t1)
   110fc:	00730223          	sb	t2,4(t1)
   11100:	01b30323          	sb	s11,6(t1)
   11104:	010303a3          	sb	a6,7(t1)
   11108:	00a307a3          	sb	a0,15(t1)
   1110c:	000a4d03          	lbu	s10,0(s4)
   11110:	010a0a13          	addi	s4,s4,16
   11114:	01a44d33          	xor	s10,s0,s10
   11118:	01a30023          	sb	s10,0(t1)
   1111c:	ff1a4c83          	lbu	s9,-15(s4)
   11120:	019c4cb3          	xor	s9,s8,s9
   11124:	019300a3          	sb	s9,1(t1)
   11128:	ff2a4783          	lbu	a5,-14(s4)
   1112c:	00fbcbb3          	xor	s7,s7,a5
   11130:	01730123          	sb	s7,2(t1)
   11134:	ff3a4683          	lbu	a3,-13(s4)
   11138:	00db46b3          	xor	a3,s6,a3
   1113c:	00d301a3          	sb	a3,3(t1)
   11140:	ff4a4a83          	lbu	s5,-12(s4)
   11144:	0153cab3          	xor	s5,t2,s5
   11148:	01530223          	sb	s5,4(t1)
   1114c:	ff5a4983          	lbu	s3,-11(s4)
   11150:	013649b3          	xor	s3,a2,s3
   11154:	013302a3          	sb	s3,5(t1)
   11158:	ff6a4483          	lbu	s1,-10(s4)
   1115c:	009dc4b3          	xor	s1,s11,s1
   11160:	00930323          	sb	s1,6(t1)
   11164:	ff7a4783          	lbu	a5,-9(s4)
   11168:	00f847b3          	xor	a5,a6,a5
   1116c:	00f303a3          	sb	a5,7(t1)
   11170:	ff8a4603          	lbu	a2,-8(s4)
   11174:	00cfcfb3          	xor	t6,t6,a2
   11178:	01f30423          	sb	t6,8(t1)
   1117c:	ff9a4603          	lbu	a2,-7(s4)
   11180:	00cf4f33          	xor	t5,t5,a2
   11184:	01e304a3          	sb	t5,9(t1)
   11188:	ffaa4603          	lbu	a2,-6(s4)
   1118c:	00ceceb3          	xor	t4,t4,a2
   11190:	01d30523          	sb	t4,10(t1)
   11194:	ffba4603          	lbu	a2,-5(s4)
   11198:	00c74733          	xor	a4,a4,a2
   1119c:	00e305a3          	sb	a4,11(t1)
   111a0:	ffca4883          	lbu	a7,-4(s4)
   111a4:	011e4e33          	xor	t3,t3,a7
   111a8:	01c30623          	sb	t3,12(t1)
   111ac:	ffda4883          	lbu	a7,-3(s4)
   111b0:	01194933          	xor	s2,s2,a7
   111b4:	012306a3          	sb	s2,13(t1)
   111b8:	ffea4603          	lbu	a2,-2(s4)
   111bc:	00c5c5b3          	xor	a1,a1,a2
   111c0:	00b30723          	sb	a1,14(t1)
   111c4:	fffa4b03          	lbu	s6,-1(s4)
   111c8:	01654b33          	xor	s6,a0,s6
   111cc:	016307a3          	sb	s6,15(t1)
   111d0:	01f28533          	add	a0,t0,t6
   111d4:	01528ab3          	add	s5,t0,s5
   111d8:	01c288b3          	add	a7,t0,t3
   111dc:	013289b3          	add	s3,t0,s3
   111e0:	01e28f33          	add	t5,t0,t5
   111e4:	01228933          	add	s2,t0,s2
   111e8:	01728bb3          	add	s7,t0,s7
   111ec:	009284b3          	add	s1,t0,s1
   111f0:	01d28eb3          	add	t4,t0,t4
   111f4:	00b285b3          	add	a1,t0,a1
   111f8:	00f287b3          	add	a5,t0,a5
   111fc:	01628b33          	add	s6,t0,s6
   11200:	01a28d33          	add	s10,t0,s10
   11204:	01928cb3          	add	s9,t0,s9
   11208:	00d286b3          	add	a3,t0,a3
   1120c:	00e28733          	add	a4,t0,a4
   11210:	0004c403          	lbu	s0,0(s1)
   11214:	000acf83          	lbu	t6,0(s5)
   11218:	00054383          	lbu	t2,0(a0)
   1121c:	0008ce03          	lbu	t3,0(a7)
   11220:	0009c503          	lbu	a0,0(s3)
   11224:	000f4883          	lbu	a7,0(t5)
   11228:	000ec803          	lbu	a6,0(t4)
   1122c:	00094f03          	lbu	t5,0(s2)
   11230:	0005ce83          	lbu	t4,0(a1)
   11234:	000bc903          	lbu	s2,0(s7)
   11238:	0006c683          	lbu	a3,0(a3)
   1123c:	0007c983          	lbu	s3,0(a5)
   11240:	000cca83          	lbu	s5,0(s9)
   11244:	000b4783          	lbu	a5,0(s6)
   11248:	00074b83          	lbu	s7,0(a4)
   1124c:	000d4603          	lbu	a2,0(s10)
   11250:	03e12623          	sw	t5,44(sp)
   11254:	04f12623          	sw	a5,76(sp)
   11258:	00c12a23          	sw	a2,20(sp)
   1125c:	01f12c23          	sw	t6,24(sp)
   11260:	00712e23          	sw	t2,28(sp)
   11264:	05c12823          	sw	t3,80(sp)
   11268:	03512023          	sw	s5,32(sp)
   1126c:	02a12223          	sw	a0,36(sp)
   11270:	03112423          	sw	a7,40(sp)
   11274:	03212823          	sw	s2,48(sp)
   11278:	02812a23          	sw	s0,52(sp)
   1127c:	03012c23          	sw	a6,56(sp)
   11280:	03d12e23          	sw	t4,60(sp)
   11284:	04d12023          	sw	a3,64(sp)
   11288:	05312223          	sw	s3,68(sp)
   1128c:	05712423          	sw	s7,72(sp)
   11290:	00c30023          	sb	a2,0(t1)
   11294:	00078593          	addi	a1,a5,0
   11298:	00f301a3          	sb	a5,3(t1)
   1129c:	0b812783          	lw	a5,184(sp)
   112a0:	01e304a3          	sb	t5,9(t1)
   112a4:	01f30223          	sb	t6,4(t1)
   112a8:	00730423          	sb	t2,8(t1)
   112ac:	01c30623          	sb	t3,12(t1)
   112b0:	00a300a3          	sb	a0,1(t1)
   112b4:	011302a3          	sb	a7,5(t1)
   112b8:	015306a3          	sb	s5,13(t1)
   112bc:	01030123          	sb	a6,2(t1)
   112c0:	01230523          	sb	s2,10(t1)
   112c4:	01d30323          	sb	t4,6(t1)
   112c8:	00830723          	sb	s0,14(t1)
   112cc:	017307a3          	sb	s7,15(t1)
   112d0:	013305a3          	sb	s3,11(t1)
   112d4:	00d303a3          	sb	a3,7(t1)
   112d8:	000f0493          	addi	s1,t5,0
   112dc:	00040b13          	addi	s6,s0,0
   112e0:	00068f13          	addi	t5,a3,0
   112e4:	894796e3          	bne	a5,s4,10b70 <Cipher+0x1a4>
   112e8:	0bc12703          	lw	a4,188(sp)
   112ec:	02812683          	lw	a3,40(sp)
   112f0:	0a074d03          	lbu	s10,160(a4)
   112f4:	01a64d33          	xor	s10,a2,s10
   112f8:	01a30023          	sb	s10,0(t1)
   112fc:	0a174783          	lbu	a5,161(a4)
   11300:	00f547b3          	xor	a5,a0,a5
   11304:	00f300a3          	sb	a5,1(t1)
   11308:	0a274b83          	lbu	s7,162(a4)
   1130c:	03812783          	lw	a5,56(sp)
   11310:	0177cbb3          	xor	s7,a5,s7
   11314:	01730123          	sb	s7,2(t1)
   11318:	0a374603          	lbu	a2,163(a4)
   1131c:	04c12783          	lw	a5,76(sp)
   11320:	00c7c633          	xor	a2,a5,a2
   11324:	00c301a3          	sb	a2,3(t1)
   11328:	0a474a03          	lbu	s4,164(a4)
   1132c:	01812783          	lw	a5,24(sp)
   11330:	0147ca33          	xor	s4,a5,s4
   11334:	01430223          	sb	s4,4(t1)
   11338:	0a574783          	lbu	a5,165(a4)
   1133c:	00f6c7b3          	xor	a5,a3,a5
   11340:	00f302a3          	sb	a5,5(t1)
   11344:	0a674483          	lbu	s1,166(a4)
   11348:	03c12783          	lw	a5,60(sp)
   1134c:	0097c4b3          	xor	s1,a5,s1
   11350:	00930323          	sb	s1,6(t1)
   11354:	0a774683          	lbu	a3,167(a4)
   11358:	04012783          	lw	a5,64(sp)
   1135c:	00d7c6b3          	xor	a3,a5,a3
   11360:	00d303a3          	sb	a3,7(t1)
   11364:	0a874283          	lbu	t0,168(a4)
   11368:	01c12783          	lw	a5,28(sp)
   1136c:	02c12683          	lw	a3,44(sp)
   11370:	0057c2b3          	xor	t0,a5,t0
   11374:	00530423          	sb	t0,8(t1)
   11378:	0a974783          	lbu	a5,169(a4)
   1137c:	00f6c7b3          	xor	a5,a3,a5
   11380:	00f304a3          	sb	a5,9(t1)
   11384:	0aa74e83          	lbu	t4,170(a4)
   11388:	00070793          	addi	a5,a4,0
   1138c:	03012703          	lw	a4,48(sp)
   11390:	01d74eb3          	xor	t4,a4,t4
   11394:	01d30523          	sb	t4,10(t1)
   11398:	0ab7c703          	lbu	a4,171(a5)
   1139c:	04412683          	lw	a3,68(sp)
   113a0:	00e6c733          	xor	a4,a3,a4
   113a4:	00e305a3          	sb	a4,11(t1)
   113a8:	0ac7c883          	lbu	a7,172(a5)
   113ac:	00078713          	addi	a4,a5,0
   113b0:	02012683          	lw	a3,32(sp)
   113b4:	011e48b3          	xor	a7,t3,a7
   113b8:	01130623          	sb	a7,12(t1)
   113bc:	0ad7c783          	lbu	a5,173(a5)
   113c0:	00f6c7b3          	xor	a5,a3,a5
   113c4:	00f306a3          	sb	a5,13(t1)
   113c8:	0ae74583          	lbu	a1,174(a4)
   113cc:	00070793          	addi	a5,a4,0
   113d0:	03412703          	lw	a4,52(sp)
   113d4:	00b745b3          	xor	a1,a4,a1
   113d8:	00b30723          	sb	a1,14(t1)
   113dc:	0af7c783          	lbu	a5,175(a5)
   113e0:	04812703          	lw	a4,72(sp)
   113e4:	00f747b3          	xor	a5,a4,a5
   113e8:	00f307a3          	sb	a5,15(t1)
   113ec:	0ec12403          	lw	s0,236(sp)
   113f0:	0e812483          	lw	s1,232(sp)
   113f4:	0e412903          	lw	s2,228(sp)
   113f8:	0e012983          	lw	s3,224(sp)
   113fc:	0dc12a03          	lw	s4,220(sp)
   11400:	0d812a83          	lw	s5,216(sp)
   11404:	0d412b03          	lw	s6,212(sp)
   11408:	0d012b83          	lw	s7,208(sp)
   1140c:	0cc12c03          	lw	s8,204(sp)
   11410:	0c812c83          	lw	s9,200(sp)
   11414:	0c412d03          	lw	s10,196(sp)
   11418:	0c012d83          	lw	s11,192(sp)
   1141c:	0f010113          	addi	sp,sp,240
   11420:	00008067          	jalr	zero,0(ra)

00011424 <InvCipher>:
   11424:	0a05c703          	lbu	a4,160(a1)
   11428:	00054783          	lbu	a5,0(a0)
   1142c:	00154603          	lbu	a2,1(a0)
   11430:	00254683          	lbu	a3,2(a0)
   11434:	00e7c7b3          	xor	a5,a5,a4
   11438:	00f50023          	sb	a5,0(a0)
   1143c:	0a15c803          	lbu	a6,161(a1)
   11440:	00354703          	lbu	a4,3(a0)
   11444:	00454783          	lbu	a5,4(a0)
   11448:	01064633          	xor	a2,a2,a6
   1144c:	00c500a3          	sb	a2,1(a0)
   11450:	0a25c603          	lbu	a2,162(a1)
   11454:	00554303          	lbu	t1,5(a0)
   11458:	fd010113          	addi	sp,sp,-48
   1145c:	00c6c6b3          	xor	a3,a3,a2
   11460:	00d50123          	sb	a3,2(a0)
   11464:	0a35c683          	lbu	a3,163(a1)
   11468:	02812623          	sw	s0,44(sp)
   1146c:	02912423          	sw	s1,40(sp)
   11470:	00d74733          	xor	a4,a4,a3
   11474:	00e501a3          	sb	a4,3(a0)
   11478:	0a45c883          	lbu	a7,164(a1)
   1147c:	03212223          	sw	s2,36(sp)
   11480:	03312023          	sw	s3,32(sp)
   11484:	0117c7b3          	xor	a5,a5,a7
   11488:	00f50223          	sb	a5,4(a0)
   1148c:	0a55c783          	lbu	a5,165(a1)
   11490:	01412e23          	sw	s4,28(sp)
   11494:	01512c23          	sw	s5,24(sp)
   11498:	0067c7b3          	xor	a5,a5,t1
   1149c:	01612a23          	sw	s6,20(sp)
   114a0:	01712823          	sw	s7,16(sp)
   114a4:	01812623          	sw	s8,12(sp)
   114a8:	01912423          	sw	s9,8(sp)
   114ac:	00754803          	lbu	a6,7(a0)
   114b0:	00854603          	lbu	a2,8(a0)
   114b4:	00954683          	lbu	a3,9(a0)
   114b8:	00a54703          	lbu	a4,10(a0)
   114bc:	00654e83          	lbu	t4,6(a0)
   114c0:	00f502a3          	sb	a5,5(a0)
   114c4:	0a65c783          	lbu	a5,166(a1)
   114c8:	00023337          	lui	t1,0x23
   114cc:	09058893          	addi	a7,a1,144
   114d0:	01d7c7b3          	xor	a5,a5,t4
   114d4:	00f50323          	sb	a5,6(a0)
   114d8:	0a75c783          	lbu	a5,167(a1)
   114dc:	05830313          	addi	t1,t1,88 # 23058 <sbox>
   114e0:	01050e13          	addi	t3,a0,16
   114e4:	0107c7b3          	xor	a5,a5,a6
   114e8:	00f503a3          	sb	a5,7(a0)
   114ec:	0a85c783          	lbu	a5,168(a1)
   114f0:	00c7c7b3          	xor	a5,a5,a2
   114f4:	00f50423          	sb	a5,8(a0)
   114f8:	0a95c783          	lbu	a5,169(a1)
   114fc:	00c54603          	lbu	a2,12(a0)
   11500:	00d7c7b3          	xor	a5,a5,a3
   11504:	00f504a3          	sb	a5,9(a0)
   11508:	0aa5c783          	lbu	a5,170(a1)
   1150c:	00d54683          	lbu	a3,13(a0)
   11510:	00e7c7b3          	xor	a5,a5,a4
   11514:	00f50523          	sb	a5,10(a0)
   11518:	0ab5c783          	lbu	a5,171(a1)
   1151c:	00b54703          	lbu	a4,11(a0)
   11520:	00e7c7b3          	xor	a5,a5,a4
   11524:	00f505a3          	sb	a5,11(a0)
   11528:	0ac5c803          	lbu	a6,172(a1)
   1152c:	00e54703          	lbu	a4,14(a0)
   11530:	00f54783          	lbu	a5,15(a0)
   11534:	01064633          	xor	a2,a2,a6
   11538:	00c50623          	sb	a2,12(a0)
   1153c:	0ad5c603          	lbu	a2,173(a1)
   11540:	00c6c6b3          	xor	a3,a3,a2
   11544:	00d506a3          	sb	a3,13(a0)
   11548:	0ae5c683          	lbu	a3,174(a1)
   1154c:	00d74733          	xor	a4,a4,a3
   11550:	00e50723          	sb	a4,14(a0)
   11554:	0af5c703          	lbu	a4,175(a1)
   11558:	00e7c7b3          	xor	a5,a5,a4
   1155c:	00f507a3          	sb	a5,15(a0)
   11560:	00d54a03          	lbu	s4,13(a0)
   11564:	00954683          	lbu	a3,9(a0)
   11568:	00554f03          	lbu	t5,5(a0)
   1156c:	00154403          	lbu	s0,1(a0)
   11570:	00054a83          	lbu	s5,0(a0)
   11574:	00454483          	lbu	s1,4(a0)
   11578:	00854f83          	lbu	t6,8(a0)
   1157c:	00c54603          	lbu	a2,12(a0)
   11580:	00254e83          	lbu	t4,2(a0)
   11584:	00a54983          	lbu	s3,10(a0)
   11588:	00654703          	lbu	a4,6(a0)
   1158c:	00e54383          	lbu	t2,14(a0)
   11590:	00354783          	lbu	a5,3(a0)
   11594:	00754903          	lbu	s2,7(a0)
   11598:	00b54283          	lbu	t0,11(a0)
   1159c:	00f54803          	lbu	a6,15(a0)
   115a0:	01530ab3          	add	s5,t1,s5
   115a4:	009304b3          	add	s1,t1,s1
   115a8:	01f30fb3          	add	t6,t1,t6
   115ac:	00c30633          	add	a2,t1,a2
   115b0:	01430a33          	add	s4,t1,s4
   115b4:	00830433          	add	s0,t1,s0
   115b8:	01e30f33          	add	t5,t1,t5
   115bc:	00d306b3          	add	a3,t1,a3
   115c0:	10caca83          	lbu	s5,268(s5)
   115c4:	10c4c483          	lbu	s1,268(s1)
   115c8:	10cfcf83          	lbu	t6,268(t6)
   115cc:	10c64603          	lbu	a2,268(a2)
   115d0:	10ca4a03          	lbu	s4,268(s4)
   115d4:	10c44403          	lbu	s0,268(s0)
   115d8:	10cf4f03          	lbu	t5,268(t5)
   115dc:	10c6c683          	lbu	a3,268(a3)
   115e0:	013309b3          	add	s3,t1,s3
   115e4:	007303b3          	add	t2,t1,t2
   115e8:	01d30eb3          	add	t4,t1,t4
   115ec:	00e30733          	add	a4,t1,a4
   115f0:	01230933          	add	s2,t1,s2
   115f4:	005302b3          	add	t0,t1,t0
   115f8:	01030833          	add	a6,t1,a6
   115fc:	00f307b3          	add	a5,t1,a5
   11600:	01550023          	sb	s5,0(a0)
   11604:	00950223          	sb	s1,4(a0)
   11608:	01f50423          	sb	t6,8(a0)
   1160c:	00c50623          	sb	a2,12(a0)
   11610:	014500a3          	sb	s4,1(a0)
   11614:	008502a3          	sb	s0,5(a0)
   11618:	01e504a3          	sb	t5,9(a0)
   1161c:	00d506a3          	sb	a3,13(a0)
   11620:	10c9c983          	lbu	s3,268(s3)
   11624:	10c3c383          	lbu	t2,268(t2)
   11628:	10cece83          	lbu	t4,268(t4)
   1162c:	10c74703          	lbu	a4,268(a4)
   11630:	10c94903          	lbu	s2,268(s2)
   11634:	10c2c283          	lbu	t0,268(t0)
   11638:	10c84803          	lbu	a6,268(a6)
   1163c:	10c7c783          	lbu	a5,268(a5)
   11640:	01350123          	sb	s3,2(a0)
   11644:	00750323          	sb	t2,6(a0)
   11648:	012501a3          	sb	s2,3(a0)
   1164c:	005503a3          	sb	t0,7(a0)
   11650:	01d50523          	sb	t4,10(a0)
   11654:	00e50723          	sb	a4,14(a0)
   11658:	010505a3          	sb	a6,11(a0)
   1165c:	00f507a3          	sb	a5,15(a0)
   11660:	0008cb03          	lbu	s6,0(a7)
   11664:	016acab3          	xor	s5,s5,s6
   11668:	01550023          	sb	s5,0(a0)
   1166c:	0018ca83          	lbu	s5,1(a7)
   11670:	015a4a33          	xor	s4,s4,s5
   11674:	014500a3          	sb	s4,1(a0)
   11678:	0028ca03          	lbu	s4,2(a7)
   1167c:	0149c9b3          	xor	s3,s3,s4
   11680:	01350123          	sb	s3,2(a0)
   11684:	0038c983          	lbu	s3,3(a7)
   11688:	01394933          	xor	s2,s2,s3
   1168c:	012501a3          	sb	s2,3(a0)
   11690:	0048c903          	lbu	s2,4(a7)
   11694:	0124c4b3          	xor	s1,s1,s2
   11698:	00950223          	sb	s1,4(a0)
   1169c:	0058c483          	lbu	s1,5(a7)
   116a0:	00944433          	xor	s0,s0,s1
   116a4:	008502a3          	sb	s0,5(a0)
   116a8:	0068c403          	lbu	s0,6(a7)
   116ac:	0083c3b3          	xor	t2,t2,s0
   116b0:	00750323          	sb	t2,6(a0)
   116b4:	0078c383          	lbu	t2,7(a7)
   116b8:	0072c2b3          	xor	t0,t0,t2
   116bc:	005503a3          	sb	t0,7(a0)
   116c0:	0088c283          	lbu	t0,8(a7)
   116c4:	005fcfb3          	xor	t6,t6,t0
   116c8:	01f50423          	sb	t6,8(a0)
   116cc:	0098cf83          	lbu	t6,9(a7)
   116d0:	01ff4f33          	xor	t5,t5,t6
   116d4:	01e504a3          	sb	t5,9(a0)
   116d8:	00a8cf03          	lbu	t5,10(a7)
   116dc:	01eeceb3          	xor	t4,t4,t5
   116e0:	01d50523          	sb	t4,10(a0)
   116e4:	00b8ce83          	lbu	t4,11(a7)
   116e8:	01d84833          	xor	a6,a6,t4
   116ec:	010505a3          	sb	a6,11(a0)
   116f0:	00c8c803          	lbu	a6,12(a7)
   116f4:	01064633          	xor	a2,a2,a6
   116f8:	00c50623          	sb	a2,12(a0)
   116fc:	00d8c603          	lbu	a2,13(a7)
   11700:	00c6c6b3          	xor	a3,a3,a2
   11704:	00d506a3          	sb	a3,13(a0)
   11708:	00e8c683          	lbu	a3,14(a7)
   1170c:	00d74733          	xor	a4,a4,a3
   11710:	00e50723          	sb	a4,14(a0)
   11714:	00f8c703          	lbu	a4,15(a7)
   11718:	00e7c7b3          	xor	a5,a5,a4
   1171c:	00f507a3          	sb	a5,15(a0)
   11720:	25158a63          	beq	a1,a7,11974 <InvCipher+0x550>
   11724:	00050813          	addi	a6,a0,0
   11728:	00084383          	lbu	t2,0(a6)
   1172c:	00184403          	lbu	s0,1(a6)
   11730:	00284683          	lbu	a3,2(a6)
   11734:	00384a83          	lbu	s5,3(a6)
   11738:	0073d713          	srli	a4,t2,0x7
   1173c:	00745c93          	srli	s9,s0,0x7
   11740:	00371f93          	slli	t6,a4,0x3
   11744:	0076d993          	srli	s3,a3,0x7
   11748:	40ef8fb3          	sub	t6,t6,a4
   1174c:	003c9e93          	slli	t4,s9,0x3
   11750:	007ad793          	srli	a5,s5,0x7
   11754:	419e8eb3          	sub	t4,t4,s9
   11758:	00399613          	slli	a2,s3,0x3
   1175c:	002f9f93          	slli	t6,t6,0x2
   11760:	40ef8fb3          	sub	t6,t6,a4
   11764:	41360633          	sub	a2,a2,s3
   11768:	00139713          	slli	a4,t2,0x1
   1176c:	00379913          	slli	s2,a5,0x3
   11770:	002e9e93          	slli	t4,t4,0x2
   11774:	00efcfb3          	xor	t6,t6,a4
   11778:	419e8eb3          	sub	t4,t4,s9
   1177c:	40f90933          	sub	s2,s2,a5
   11780:	00141c93          	slli	s9,s0,0x1
   11784:	00261613          	slli	a2,a2,0x2
   11788:	0fffff93          	andi	t6,t6,255
   1178c:	019eceb3          	xor	t4,t4,s9
   11790:	41360633          	sub	a2,a2,s3
   11794:	00291913          	slli	s2,s2,0x2
   11798:	00169993          	slli	s3,a3,0x1
   1179c:	007fd293          	srli	t0,t6,0x7
   117a0:	0ffefc93          	andi	s9,t4,255
   117a4:	01364633          	xor	a2,a2,s3
   117a8:	40f90933          	sub	s2,s2,a5
   117ac:	001a9793          	slli	a5,s5,0x1
   117b0:	0ff67993          	andi	s3,a2,255
   117b4:	007cde93          	srli	t4,s9,0x7
   117b8:	00329493          	slli	s1,t0,0x3
   117bc:	00f94933          	xor	s2,s2,a5
   117c0:	0ff97913          	andi	s2,s2,255
   117c4:	0079d713          	srli	a4,s3,0x7
   117c8:	405484b3          	sub	s1,s1,t0
   117cc:	003e9f13          	slli	t5,t4,0x3
   117d0:	00795613          	srli	a2,s2,0x7
   117d4:	41df0f33          	sub	t5,t5,t4
   117d8:	00371793          	slli	a5,a4,0x3
   117dc:	00249493          	slli	s1,s1,0x2
   117e0:	001f9a13          	slli	s4,t6,0x1
   117e4:	405484b3          	sub	s1,s1,t0
   117e8:	40e787b3          	sub	a5,a5,a4
   117ec:	00361293          	slli	t0,a2,0x3
   117f0:	002f1f13          	slli	t5,t5,0x2
   117f4:	0144c4b3          	xor	s1,s1,s4
   117f8:	41df0f33          	sub	t5,t5,t4
   117fc:	40c282b3          	sub	t0,t0,a2
   11800:	001c9e93          	slli	t4,s9,0x1
   11804:	00279793          	slli	a5,a5,0x2
   11808:	0ff4f493          	andi	s1,s1,255
   1180c:	01df4f33          	xor	t5,t5,t4
   11810:	40e787b3          	sub	a5,a5,a4
   11814:	00199e93          	slli	t4,s3,0x1
   11818:	00229293          	slli	t0,t0,0x2
   1181c:	0fff7f13          	andi	t5,t5,255
   11820:	0074d713          	srli	a4,s1,0x7
   11824:	01d7c7b3          	xor	a5,a5,t4
   11828:	40c282b3          	sub	t0,t0,a2
   1182c:	00191613          	slli	a2,s2,0x1
   11830:	007f5c13          	srli	s8,t5,0x7
   11834:	0ff7f793          	andi	a5,a5,255
   11838:	0083cb33          	xor	s6,t2,s0
   1183c:	00d44eb3          	xor	t4,s0,a3
   11840:	00371b93          	slli	s7,a4,0x3
   11844:	00c2c2b3          	xor	t0,t0,a2
   11848:	00d3c633          	xor	a2,t2,a3
   1184c:	0ff2f293          	andi	t0,t0,255
   11850:	0077da13          	srli	s4,a5,0x7
   11854:	40eb8bb3          	sub	s7,s7,a4
   11858:	003c1413          	slli	s0,s8,0x3
   1185c:	01daceb3          	xor	t4,s5,t4
   11860:	00cac633          	xor	a2,s5,a2
   11864:	016acab3          	xor	s5,s5,s6
   11868:	0166cb33          	xor	s6,a3,s6
   1186c:	0072d393          	srli	t2,t0,0x7
   11870:	41840433          	sub	s0,s0,s8
   11874:	01dfceb3          	xor	t4,t6,t4
   11878:	002b9b93          	slli	s7,s7,0x2
   1187c:	016fcfb3          	xor	t6,t6,s6
   11880:	003a1693          	slli	a3,s4,0x3
   11884:	00ccc633          	xor	a2,s9,a2
   11888:	0159cab3          	xor	s5,s3,s5
   1188c:	40eb8bb3          	sub	s7,s7,a4
   11890:	01f94fb3          	xor	t6,s2,t6
   11894:	00149b13          	slli	s6,s1,0x1
   11898:	00241413          	slli	s0,s0,0x2
   1189c:	414686b3          	sub	a3,a3,s4
   118a0:	00339713          	slli	a4,t2,0x3
   118a4:	01dcceb3          	xor	t4,s9,t4
   118a8:	00c9c633          	xor	a2,s3,a2
   118ac:	01594ab3          	xor	s5,s2,s5
   118b0:	41840433          	sub	s0,s0,s8
   118b4:	00cf4633          	xor	a2,t5,a2
   118b8:	001f1c13          	slli	s8,t5,0x1
   118bc:	016bcb33          	xor	s6,s7,s6
   118c0:	01ff4f33          	xor	t5,t5,t6
   118c4:	00269693          	slli	a3,a3,0x2
   118c8:	40770733          	sub	a4,a4,t2
   118cc:	01d4ceb3          	xor	t4,s1,t4
   118d0:	0154cab3          	xor	s5,s1,s5
   118d4:	0ffb7b13          	andi	s6,s6,255
   118d8:	00179f93          	slli	t6,a5,0x1
   118dc:	01d7ceb3          	xor	t4,a5,t4
   118e0:	00c2c633          	xor	a2,t0,a2
   118e4:	01e2cf33          	xor	t5,t0,t5
   118e8:	01844433          	xor	s0,s0,s8
   118ec:	414686b3          	sub	a3,a3,s4
   118f0:	00271713          	slli	a4,a4,0x2
   118f4:	0157c7b3          	xor	a5,a5,s5
   118f8:	0ff47413          	andi	s0,s0,255
   118fc:	01db4eb3          	xor	t4,s6,t4
   11900:	00cb4633          	xor	a2,s6,a2
   11904:	00fb47b3          	xor	a5,s6,a5
   11908:	01f6c6b3          	xor	a3,a3,t6
   1190c:	40770733          	sub	a4,a4,t2
   11910:	00129293          	slli	t0,t0,0x1
   11914:	01eb4b33          	xor	s6,s6,t5
   11918:	0ff6f693          	andi	a3,a3,255
   1191c:	01d44eb3          	xor	t4,s0,t4
   11920:	00c44633          	xor	a2,s0,a2
   11924:	00f447b3          	xor	a5,s0,a5
   11928:	00574733          	xor	a4,a4,t0
   1192c:	01644433          	xor	s0,s0,s6
   11930:	0ff77713          	andi	a4,a4,255
   11934:	01d6ceb3          	xor	t4,a3,t4
   11938:	00c6c633          	xor	a2,a3,a2
   1193c:	00f6c7b3          	xor	a5,a3,a5
   11940:	0086c6b3          	xor	a3,a3,s0
   11944:	01d74eb3          	xor	t4,a4,t4
   11948:	00c74633          	xor	a2,a4,a2
   1194c:	00f747b3          	xor	a5,a4,a5
   11950:	00d74733          	xor	a4,a4,a3
   11954:	01d80023          	sb	t4,0(a6)
   11958:	00c800a3          	sb	a2,1(a6)
   1195c:	00f80123          	sb	a5,2(a6)
   11960:	00e801a3          	sb	a4,3(a6)
   11964:	00480813          	addi	a6,a6,4
   11968:	ddc810e3          	bne	a6,t3,11728 <InvCipher+0x304>
   1196c:	ff088893          	addi	a7,a7,-16
   11970:	bf1ff06f          	jal	zero,11560 <InvCipher+0x13c>
   11974:	02c12403          	lw	s0,44(sp)
   11978:	02812483          	lw	s1,40(sp)
   1197c:	02412903          	lw	s2,36(sp)
   11980:	02012983          	lw	s3,32(sp)
   11984:	01c12a03          	lw	s4,28(sp)
   11988:	01812a83          	lw	s5,24(sp)
   1198c:	01412b03          	lw	s6,20(sp)
   11990:	01012b83          	lw	s7,16(sp)
   11994:	00c12c03          	lw	s8,12(sp)
   11998:	00812c83          	lw	s9,8(sp)
   1199c:	03010113          	addi	sp,sp,48
   119a0:	00008067          	jalr	zero,0(ra)

000119a4 <AES_init_ctx>:
   119a4:	dd5fe06f          	jal	zero,10778 <KeyExpansion>

000119a8 <AES_init_ctx_iv>:
   119a8:	ff010113          	addi	sp,sp,-16
   119ac:	00812423          	sw	s0,8(sp)
   119b0:	00912223          	sw	s1,4(sp)
   119b4:	00112623          	sw	ra,12(sp)
   119b8:	00060493          	addi	s1,a2,0
   119bc:	00050413          	addi	s0,a0,0
   119c0:	db9fe0ef          	jal	ra,10778 <KeyExpansion>
   119c4:	0b040513          	addi	a0,s0,176
   119c8:	00812403          	lw	s0,8(sp)
   119cc:	00c12083          	lw	ra,12(sp)
   119d0:	00048593          	addi	a1,s1,0
   119d4:	00412483          	lw	s1,4(sp)
   119d8:	01000613          	addi	a2,zero,16
   119dc:	01010113          	addi	sp,sp,16
   119e0:	28d0006f          	jal	zero,1246c <memcpy>

000119e4 <AES_ctx_set_iv>:
   119e4:	01000613          	addi	a2,zero,16
   119e8:	0b050513          	addi	a0,a0,176
   119ec:	2810006f          	jal	zero,1246c <memcpy>

000119f0 <AES_ECB_encrypt>:
   119f0:	00058793          	addi	a5,a1,0
   119f4:	00050593          	addi	a1,a0,0
   119f8:	00078513          	addi	a0,a5,0
   119fc:	fd1fe06f          	jal	zero,109cc <Cipher>

00011a00 <AES_ECB_decrypt>:
   11a00:	00058793          	addi	a5,a1,0
   11a04:	00050593          	addi	a1,a0,0
   11a08:	00078513          	addi	a0,a5,0
   11a0c:	a19ff06f          	jal	zero,11424 <InvCipher>

00011a10 <AES_CBC_encrypt_buffer>:
   11a10:	fe010113          	addi	sp,sp,-32
   11a14:	01312623          	sw	s3,12(sp)
   11a18:	00112e23          	sw	ra,28(sp)
   11a1c:	00812c23          	sw	s0,24(sp)
   11a20:	00912a23          	sw	s1,20(sp)
   11a24:	01212823          	sw	s2,16(sp)
   11a28:	01412423          	sw	s4,8(sp)
   11a2c:	0b050993          	addi	s3,a0,176
   11a30:	16060463          	beq	a2,zero,11b98 <AES_CBC_encrypt_buffer+0x188>
   11a34:	00050493          	addi	s1,a0,0
   11a38:	00060913          	addi	s2,a2,0
   11a3c:	00058413          	addi	s0,a1,0
   11a40:	00098793          	addi	a5,s3,0
   11a44:	00000a13          	addi	s4,zero,0
   11a48:	0080006f          	jal	zero,11a50 <AES_CBC_encrypt_buffer+0x40>
   11a4c:	00070413          	addi	s0,a4,0
   11a50:	0007c583          	lbu	a1,0(a5)
   11a54:	00044703          	lbu	a4,0(s0)
   11a58:	00144603          	lbu	a2,1(s0)
   11a5c:	00244683          	lbu	a3,2(s0)
   11a60:	00b74733          	xor	a4,a4,a1
   11a64:	00e40023          	sb	a4,0(s0)
   11a68:	0017c503          	lbu	a0,1(a5)
   11a6c:	00344703          	lbu	a4,3(s0)
   11a70:	00444583          	lbu	a1,4(s0)
   11a74:	00a64633          	xor	a2,a2,a0
   11a78:	00c400a3          	sb	a2,1(s0)
   11a7c:	0027c603          	lbu	a2,2(a5)
   11a80:	00544303          	lbu	t1,5(s0)
   11a84:	00644883          	lbu	a7,6(s0)
   11a88:	00c6c6b3          	xor	a3,a3,a2
   11a8c:	00d40123          	sb	a3,2(s0)
   11a90:	0037c683          	lbu	a3,3(a5)
   11a94:	00744803          	lbu	a6,7(s0)
   11a98:	00844603          	lbu	a2,8(s0)
   11a9c:	00d74733          	xor	a4,a4,a3
   11aa0:	00e401a3          	sb	a4,3(s0)
   11aa4:	0047c503          	lbu	a0,4(a5)
   11aa8:	00944683          	lbu	a3,9(s0)
   11aac:	00a44703          	lbu	a4,10(s0)
   11ab0:	00a5c5b3          	xor	a1,a1,a0
   11ab4:	00b40223          	sb	a1,4(s0)
   11ab8:	0057ce03          	lbu	t3,5(a5)
   11abc:	00040513          	addi	a0,s0,0
   11ac0:	00048593          	addi	a1,s1,0
   11ac4:	01c34333          	xor	t1,t1,t3
   11ac8:	006402a3          	sb	t1,5(s0)
   11acc:	0067c303          	lbu	t1,6(a5)
   11ad0:	010a0a13          	addi	s4,s4,16
   11ad4:	0068c8b3          	xor	a7,a7,t1
   11ad8:	01140323          	sb	a7,6(s0)
   11adc:	0077c883          	lbu	a7,7(a5)
   11ae0:	01184833          	xor	a6,a6,a7
   11ae4:	010403a3          	sb	a6,7(s0)
   11ae8:	0087c803          	lbu	a6,8(a5)
   11aec:	01064633          	xor	a2,a2,a6
   11af0:	00c40423          	sb	a2,8(s0)
   11af4:	0097c603          	lbu	a2,9(a5)
   11af8:	00c6c6b3          	xor	a3,a3,a2
   11afc:	00d404a3          	sb	a3,9(s0)
   11b00:	00a7c683          	lbu	a3,10(a5)
   11b04:	00d74733          	xor	a4,a4,a3
   11b08:	00e40523          	sb	a4,10(s0)
   11b0c:	00b7c683          	lbu	a3,11(a5)
   11b10:	00b44703          	lbu	a4,11(s0)
   11b14:	00c44803          	lbu	a6,12(s0)
   11b18:	00d44603          	lbu	a2,13(s0)
   11b1c:	00d74733          	xor	a4,a4,a3
   11b20:	00e405a3          	sb	a4,11(s0)
   11b24:	00c7c883          	lbu	a7,12(a5)
   11b28:	00e44683          	lbu	a3,14(s0)
   11b2c:	00f44703          	lbu	a4,15(s0)
   11b30:	01184833          	xor	a6,a6,a7
   11b34:	01040623          	sb	a6,12(s0)
   11b38:	00d7c803          	lbu	a6,13(a5)
   11b3c:	01064633          	xor	a2,a2,a6
   11b40:	00c406a3          	sb	a2,13(s0)
   11b44:	00e7c603          	lbu	a2,14(a5)
   11b48:	00c6c6b3          	xor	a3,a3,a2
   11b4c:	00d40723          	sb	a3,14(s0)
   11b50:	00f7c783          	lbu	a5,15(a5)
   11b54:	00f747b3          	xor	a5,a4,a5
   11b58:	00f407a3          	sb	a5,15(s0)
   11b5c:	e71fe0ef          	jal	ra,109cc <Cipher>
   11b60:	01040713          	addi	a4,s0,16
   11b64:	00040793          	addi	a5,s0,0
   11b68:	ef2a62e3          	bltu	s4,s2,11a4c <AES_CBC_encrypt_buffer+0x3c>
   11b6c:	00040593          	addi	a1,s0,0
   11b70:	01812403          	lw	s0,24(sp)
   11b74:	01c12083          	lw	ra,28(sp)
   11b78:	01412483          	lw	s1,20(sp)
   11b7c:	01012903          	lw	s2,16(sp)
   11b80:	00812a03          	lw	s4,8(sp)
   11b84:	00098513          	addi	a0,s3,0
   11b88:	00c12983          	lw	s3,12(sp)
   11b8c:	01000613          	addi	a2,zero,16
   11b90:	02010113          	addi	sp,sp,32
   11b94:	0d90006f          	jal	zero,1246c <memcpy>
   11b98:	00098413          	addi	s0,s3,0
   11b9c:	fd1ff06f          	jal	zero,11b6c <AES_CBC_encrypt_buffer+0x15c>

00011ba0 <AES_CBC_decrypt_buffer>:
   11ba0:	18060663          	beq	a2,zero,11d2c <AES_CBC_decrypt_buffer+0x18c>
   11ba4:	fd010113          	addi	sp,sp,-48
   11ba8:	02812423          	sw	s0,40(sp)
   11bac:	02912223          	sw	s1,36(sp)
   11bb0:	03212023          	sw	s2,32(sp)
   11bb4:	01312e23          	sw	s3,28(sp)
   11bb8:	01412c23          	sw	s4,24(sp)
   11bbc:	02112623          	sw	ra,44(sp)
   11bc0:	00050493          	addi	s1,a0,0
   11bc4:	00060993          	addi	s3,a2,0
   11bc8:	00058413          	addi	s0,a1,0
   11bcc:	00000913          	addi	s2,zero,0
   11bd0:	0b050a13          	addi	s4,a0,176
   11bd4:	00040593          	addi	a1,s0,0
   11bd8:	01000613          	addi	a2,zero,16
   11bdc:	00010513          	addi	a0,sp,0
   11be0:	08d000ef          	jal	ra,1246c <memcpy>
   11be4:	00040513          	addi	a0,s0,0
   11be8:	00048593          	addi	a1,s1,0
   11bec:	839ff0ef          	jal	ra,11424 <InvCipher>
   11bf0:	00044783          	lbu	a5,0(s0)
   11bf4:	0b04c603          	lbu	a2,176(s1)
   11bf8:	00144683          	lbu	a3,1(s0)
   11bfc:	00244703          	lbu	a4,2(s0)
   11c00:	00c7c7b3          	xor	a5,a5,a2
   11c04:	00f40023          	sb	a5,0(s0)
   11c08:	0b14c583          	lbu	a1,177(s1)
   11c0c:	00344783          	lbu	a5,3(s0)
   11c10:	00444603          	lbu	a2,4(s0)
   11c14:	00b6c6b3          	xor	a3,a3,a1
   11c18:	00d400a3          	sb	a3,1(s0)
   11c1c:	0b24c683          	lbu	a3,178(s1)
   11c20:	00544503          	lbu	a0,5(s0)
   11c24:	00644883          	lbu	a7,6(s0)
   11c28:	00d74733          	xor	a4,a4,a3
   11c2c:	00e40123          	sb	a4,2(s0)
   11c30:	0b34c703          	lbu	a4,179(s1)
   11c34:	00744803          	lbu	a6,7(s0)
   11c38:	00844683          	lbu	a3,8(s0)
   11c3c:	00e7c7b3          	xor	a5,a5,a4
   11c40:	00f401a3          	sb	a5,3(s0)
   11c44:	0b44c583          	lbu	a1,180(s1)
   11c48:	00944703          	lbu	a4,9(s0)
   11c4c:	00a44783          	lbu	a5,10(s0)
   11c50:	00b64633          	xor	a2,a2,a1
   11c54:	00c40223          	sb	a2,4(s0)
   11c58:	0b54c303          	lbu	t1,181(s1)
   11c5c:	01040413          	addi	s0,s0,16
   11c60:	01090913          	addi	s2,s2,16
   11c64:	00654533          	xor	a0,a0,t1
   11c68:	fea40aa3          	sb	a0,-11(s0)
   11c6c:	0b64c303          	lbu	t1,182(s1)
   11c70:	01000613          	addi	a2,zero,16
   11c74:	00010593          	addi	a1,sp,0
   11c78:	0068c8b3          	xor	a7,a7,t1
   11c7c:	ff140b23          	sb	a7,-10(s0)
   11c80:	0b74c883          	lbu	a7,183(s1)
   11c84:	000a0513          	addi	a0,s4,0
   11c88:	01184833          	xor	a6,a6,a7
   11c8c:	ff040ba3          	sb	a6,-9(s0)
   11c90:	0b84c803          	lbu	a6,184(s1)
   11c94:	0106c6b3          	xor	a3,a3,a6
   11c98:	fed40c23          	sb	a3,-8(s0)
   11c9c:	0b94c683          	lbu	a3,185(s1)
   11ca0:	00d74733          	xor	a4,a4,a3
   11ca4:	fee40ca3          	sb	a4,-7(s0)
   11ca8:	0ba4c703          	lbu	a4,186(s1)
   11cac:	00e7c7b3          	xor	a5,a5,a4
   11cb0:	fef40d23          	sb	a5,-6(s0)
   11cb4:	0bb4c703          	lbu	a4,187(s1)
   11cb8:	ffb44783          	lbu	a5,-5(s0)
   11cbc:	ffc44803          	lbu	a6,-4(s0)
   11cc0:	ffd44683          	lbu	a3,-3(s0)
   11cc4:	00e7c7b3          	xor	a5,a5,a4
   11cc8:	fef40da3          	sb	a5,-5(s0)
   11ccc:	0bc4c883          	lbu	a7,188(s1)
   11cd0:	ffe44703          	lbu	a4,-2(s0)
   11cd4:	fff44783          	lbu	a5,-1(s0)
   11cd8:	01184833          	xor	a6,a6,a7
   11cdc:	ff040e23          	sb	a6,-4(s0)
   11ce0:	0bd4c803          	lbu	a6,189(s1)
   11ce4:	0106c6b3          	xor	a3,a3,a6
   11ce8:	fed40ea3          	sb	a3,-3(s0)
   11cec:	0be4c683          	lbu	a3,190(s1)
   11cf0:	00d74733          	xor	a4,a4,a3
   11cf4:	fee40f23          	sb	a4,-2(s0)
   11cf8:	0bf4c703          	lbu	a4,191(s1)
   11cfc:	00e7c7b3          	xor	a5,a5,a4
   11d00:	fef40fa3          	sb	a5,-1(s0)
   11d04:	768000ef          	jal	ra,1246c <memcpy>
   11d08:	ed3966e3          	bltu	s2,s3,11bd4 <AES_CBC_decrypt_buffer+0x34>
   11d0c:	02c12083          	lw	ra,44(sp)
   11d10:	02812403          	lw	s0,40(sp)
   11d14:	02412483          	lw	s1,36(sp)
   11d18:	02012903          	lw	s2,32(sp)
   11d1c:	01c12983          	lw	s3,28(sp)
   11d20:	01812a03          	lw	s4,24(sp)
   11d24:	03010113          	addi	sp,sp,48
   11d28:	00008067          	jalr	zero,0(ra)
   11d2c:	00008067          	jalr	zero,0(ra)

00011d30 <AES_CTR_xcrypt_buffer>:
   11d30:	fd010113          	addi	sp,sp,-48
   11d34:	02912223          	sw	s1,36(sp)
   11d38:	02112623          	sw	ra,44(sp)
   11d3c:	02812423          	sw	s0,40(sp)
   11d40:	03212023          	sw	s2,32(sp)
   11d44:	01312e23          	sw	s3,28(sp)
   11d48:	01412c23          	sw	s4,24(sp)
   11d4c:	01512a23          	sw	s5,20(sp)
   11d50:	00c584b3          	add	s1,a1,a2
   11d54:	04060463          	beq	a2,zero,11d9c <AES_CTR_xcrypt_buffer+0x6c>
   11d58:	00058413          	addi	s0,a1,0
   11d5c:	00050993          	addi	s3,a0,0
   11d60:	01000693          	addi	a3,zero,16
   11d64:	01000913          	addi	s2,zero,16
   11d68:	0b050a93          	addi	s5,a0,176
   11d6c:	0ff00a13          	addi	s4,zero,255
   11d70:	05268863          	beq	a3,s2,11dc0 <AES_CTR_xcrypt_buffer+0x90>
   11d74:	00068713          	addi	a4,a3,0
   11d78:	00168693          	addi	a3,a3,1
   11d7c:	01010793          	addi	a5,sp,16
   11d80:	00e78733          	add	a4,a5,a4
   11d84:	ff074703          	lbu	a4,-16(a4)
   11d88:	00044783          	lbu	a5,0(s0)
   11d8c:	00140413          	addi	s0,s0,1
   11d90:	00e7c7b3          	xor	a5,a5,a4
   11d94:	fef40fa3          	sb	a5,-1(s0)
   11d98:	fc849ce3          	bne	s1,s0,11d70 <AES_CTR_xcrypt_buffer+0x40>
   11d9c:	02c12083          	lw	ra,44(sp)
   11da0:	02812403          	lw	s0,40(sp)
   11da4:	02412483          	lw	s1,36(sp)
   11da8:	02012903          	lw	s2,32(sp)
   11dac:	01c12983          	lw	s3,28(sp)
   11db0:	01812a03          	lw	s4,24(sp)
   11db4:	01412a83          	lw	s5,20(sp)
   11db8:	03010113          	addi	sp,sp,48
   11dbc:	00008067          	jalr	zero,0(ra)
   11dc0:	01000613          	addi	a2,zero,16
   11dc4:	000a8593          	addi	a1,s5,0
   11dc8:	00010513          	addi	a0,sp,0
   11dcc:	6a0000ef          	jal	ra,1246c <memcpy>
   11dd0:	00098593          	addi	a1,s3,0
   11dd4:	00010513          	addi	a0,sp,0
   11dd8:	bf5fe0ef          	jal	ra,109cc <Cipher>
   11ddc:	0bf9c783          	lbu	a5,191(s3)
   11de0:	00f00713          	addi	a4,zero,15
   11de4:	01478e63          	beq	a5,s4,11e00 <AES_CTR_xcrypt_buffer+0xd0>
   11de8:	00e98733          	add	a4,s3,a4
   11dec:	00178793          	addi	a5,a5,1
   11df0:	0af70823          	sb	a5,176(a4)
   11df4:	00100693          	addi	a3,zero,1
   11df8:	00000713          	addi	a4,zero,0
   11dfc:	f81ff06f          	jal	zero,11d7c <AES_CTR_xcrypt_buffer+0x4c>
   11e00:	0be9c783          	lbu	a5,190(s3)
   11e04:	0a098fa3          	sb	zero,191(s3)
   11e08:	00e00713          	addi	a4,zero,14
   11e0c:	fd479ee3          	bne	a5,s4,11de8 <AES_CTR_xcrypt_buffer+0xb8>
   11e10:	0bd9c783          	lbu	a5,189(s3)
   11e14:	0a098f23          	sb	zero,190(s3)
   11e18:	00d00713          	addi	a4,zero,13
   11e1c:	fd4796e3          	bne	a5,s4,11de8 <AES_CTR_xcrypt_buffer+0xb8>
   11e20:	0bc9c783          	lbu	a5,188(s3)
   11e24:	0a098ea3          	sb	zero,189(s3)
   11e28:	00c00713          	addi	a4,zero,12
   11e2c:	fb479ee3          	bne	a5,s4,11de8 <AES_CTR_xcrypt_buffer+0xb8>
   11e30:	0bb9c783          	lbu	a5,187(s3)
   11e34:	0a098e23          	sb	zero,188(s3)
   11e38:	00b00713          	addi	a4,zero,11
   11e3c:	fb4796e3          	bne	a5,s4,11de8 <AES_CTR_xcrypt_buffer+0xb8>
   11e40:	0ba9c783          	lbu	a5,186(s3)
   11e44:	0a098da3          	sb	zero,187(s3)
   11e48:	00a00713          	addi	a4,zero,10
   11e4c:	f9479ee3          	bne	a5,s4,11de8 <AES_CTR_xcrypt_buffer+0xb8>
   11e50:	0b99c783          	lbu	a5,185(s3)
   11e54:	0a098d23          	sb	zero,186(s3)
   11e58:	00900713          	addi	a4,zero,9
   11e5c:	f94796e3          	bne	a5,s4,11de8 <AES_CTR_xcrypt_buffer+0xb8>
   11e60:	0b89c783          	lbu	a5,184(s3)
   11e64:	0a098ca3          	sb	zero,185(s3)
   11e68:	00800713          	addi	a4,zero,8
   11e6c:	f7479ee3          	bne	a5,s4,11de8 <AES_CTR_xcrypt_buffer+0xb8>
   11e70:	0b79c783          	lbu	a5,183(s3)
   11e74:	0a098c23          	sb	zero,184(s3)
   11e78:	00700713          	addi	a4,zero,7
   11e7c:	f74796e3          	bne	a5,s4,11de8 <AES_CTR_xcrypt_buffer+0xb8>
   11e80:	0b69c783          	lbu	a5,182(s3)
   11e84:	0a098ba3          	sb	zero,183(s3)
   11e88:	00600713          	addi	a4,zero,6
   11e8c:	f5479ee3          	bne	a5,s4,11de8 <AES_CTR_xcrypt_buffer+0xb8>
   11e90:	0b59c783          	lbu	a5,181(s3)
   11e94:	0a098b23          	sb	zero,182(s3)
   11e98:	00500713          	addi	a4,zero,5
   11e9c:	f54796e3          	bne	a5,s4,11de8 <AES_CTR_xcrypt_buffer+0xb8>
   11ea0:	0b49c783          	lbu	a5,180(s3)
   11ea4:	0a098aa3          	sb	zero,181(s3)
   11ea8:	00400713          	addi	a4,zero,4
   11eac:	f3479ee3          	bne	a5,s4,11de8 <AES_CTR_xcrypt_buffer+0xb8>
   11eb0:	0b39c783          	lbu	a5,179(s3)
   11eb4:	0a098a23          	sb	zero,180(s3)
   11eb8:	00300713          	addi	a4,zero,3
   11ebc:	f34796e3          	bne	a5,s4,11de8 <AES_CTR_xcrypt_buffer+0xb8>
   11ec0:	0b29c783          	lbu	a5,178(s3)
   11ec4:	0a0989a3          	sb	zero,179(s3)
   11ec8:	00200713          	addi	a4,zero,2
   11ecc:	f1479ee3          	bne	a5,s4,11de8 <AES_CTR_xcrypt_buffer+0xb8>
   11ed0:	0b19c783          	lbu	a5,177(s3)
   11ed4:	0a098923          	sb	zero,178(s3)
   11ed8:	00100713          	addi	a4,zero,1
   11edc:	f14796e3          	bne	a5,s4,11de8 <AES_CTR_xcrypt_buffer+0xb8>
   11ee0:	0b09c783          	lbu	a5,176(s3)
   11ee4:	0a0988a3          	sb	zero,177(s3)
   11ee8:	00000713          	addi	a4,zero,0
   11eec:	ef479ee3          	bne	a5,s4,11de8 <AES_CTR_xcrypt_buffer+0xb8>
   11ef0:	0a098823          	sb	zero,176(s3)
   11ef4:	00100693          	addi	a3,zero,1
   11ef8:	e85ff06f          	jal	zero,11d7c <AES_CTR_xcrypt_buffer+0x4c>

00011efc <test_encrypt_cbc>:
   11efc:	000237b7          	lui	a5,0x23
   11f00:	26478793          	addi	a5,a5,612 # 23264 <rsbox+0x100>
   11f04:	0047a603          	lw	a2,4(a5)
   11f08:	0087a683          	lw	a3,8(a5)
   11f0c:	00c7a703          	lw	a4,12(a5)
   11f10:	0007a583          	lw	a1,0(a5)
   11f14:	e9010113          	addi	sp,sp,-368
   11f18:	00c12223          	sw	a2,4(sp)
   11f1c:	00d12423          	sw	a3,8(sp)
   11f20:	00e12623          	sw	a4,12(sp)
   11f24:	16112623          	sw	ra,364(sp)
   11f28:	16812423          	sw	s0,360(sp)
   11f2c:	00b12023          	sw	a1,0(sp)
   11f30:	01078713          	addi	a4,a5,16
   11f34:	02010693          	addi	a3,sp,32
   11f38:	05078613          	addi	a2,a5,80
   11f3c:	00072883          	lw	a7,0(a4)
   11f40:	00472803          	lw	a6,4(a4)
   11f44:	00872503          	lw	a0,8(a4)
   11f48:	00c72583          	lw	a1,12(a4)
   11f4c:	0116a023          	sw	a7,0(a3)
   11f50:	0106a223          	sw	a6,4(a3)
   11f54:	00a6a423          	sw	a0,8(a3)
   11f58:	00b6a623          	sw	a1,12(a3)
   11f5c:	01070713          	addi	a4,a4,16
   11f60:	01068693          	addi	a3,a3,16
   11f64:	fcc71ce3          	bne	a4,a2,11f3c <test_encrypt_cbc+0x40>
   11f68:	0587a683          	lw	a3,88(a5)
   11f6c:	05c7a703          	lw	a4,92(a5)
   11f70:	0507a583          	lw	a1,80(a5)
   11f74:	0547a603          	lw	a2,84(a5)
   11f78:	00d12c23          	sw	a3,24(sp)
   11f7c:	00e12e23          	sw	a4,28(sp)
   11f80:	00b12823          	sw	a1,16(sp)
   11f84:	06078713          	addi	a4,a5,96
   11f88:	00c12a23          	sw	a2,20(sp)
   11f8c:	06010693          	addi	a3,sp,96
   11f90:	0a078793          	addi	a5,a5,160
   11f94:	00072803          	lw	a6,0(a4)
   11f98:	00472503          	lw	a0,4(a4)
   11f9c:	00872583          	lw	a1,8(a4)
   11fa0:	00c72603          	lw	a2,12(a4)
   11fa4:	0106a023          	sw	a6,0(a3)
   11fa8:	00a6a223          	sw	a0,4(a3)
   11fac:	00b6a423          	sw	a1,8(a3)
   11fb0:	00c6a623          	sw	a2,12(a3)
   11fb4:	01070713          	addi	a4,a4,16
   11fb8:	01068693          	addi	a3,a3,16
   11fbc:	fcf71ce3          	bne	a4,a5,11f94 <test_encrypt_cbc+0x98>
   11fc0:	01010613          	addi	a2,sp,16
   11fc4:	00010593          	addi	a1,sp,0
   11fc8:	0a010513          	addi	a0,sp,160
   11fcc:	9ddff0ef          	jal	ra,119a8 <AES_init_ctx_iv>
   11fd0:	04000613          	addi	a2,zero,64
   11fd4:	06010593          	addi	a1,sp,96
   11fd8:	0a010513          	addi	a0,sp,160
   11fdc:	a35ff0ef          	jal	ra,11a10 <AES_CBC_encrypt_buffer>
   11fe0:	00023537          	lui	a0,0x23
   11fe4:	37450513          	addi	a0,a0,884 # 23374 <rsbox+0x210>
   11fe8:	59c000ef          	jal	ra,12584 <printf>
   11fec:	04000613          	addi	a2,zero,64
   11ff0:	06010593          	addi	a1,sp,96
   11ff4:	02010513          	addi	a0,sp,32
   11ff8:	444000ef          	jal	ra,1243c <memcmp>
   11ffc:	00050413          	addi	s0,a0,0
   12000:	02051263          	bne	a0,zero,12024 <test_encrypt_cbc+0x128>
   12004:	00023537          	lui	a0,0x23
   12008:	38450513          	addi	a0,a0,900 # 23384 <rsbox+0x220>
   1200c:	744000ef          	jal	ra,12750 <puts>
   12010:	00040513          	addi	a0,s0,0
   12014:	16c12083          	lw	ra,364(sp)
   12018:	16812403          	lw	s0,360(sp)
   1201c:	17010113          	addi	sp,sp,368
   12020:	00008067          	jalr	zero,0(ra)
   12024:	00023537          	lui	a0,0x23
   12028:	39050513          	addi	a0,a0,912 # 23390 <rsbox+0x22c>
   1202c:	724000ef          	jal	ra,12750 <puts>
   12030:	00100413          	addi	s0,zero,1
   12034:	fddff06f          	jal	zero,12010 <test_encrypt_cbc+0x114>

00012038 <test_decrypt_cbc>:
   12038:	000237b7          	lui	a5,0x23
   1203c:	26478793          	addi	a5,a5,612 # 23264 <rsbox+0x100>
   12040:	0047a603          	lw	a2,4(a5)
   12044:	0087a683          	lw	a3,8(a5)
   12048:	00c7a703          	lw	a4,12(a5)
   1204c:	0007a583          	lw	a1,0(a5)
   12050:	e9010113          	addi	sp,sp,-368
   12054:	00c12223          	sw	a2,4(sp)
   12058:	00d12423          	sw	a3,8(sp)
   1205c:	00e12623          	sw	a4,12(sp)
   12060:	16112623          	sw	ra,364(sp)
   12064:	16812423          	sw	s0,360(sp)
   12068:	00b12023          	sw	a1,0(sp)
   1206c:	01078713          	addi	a4,a5,16
   12070:	02010693          	addi	a3,sp,32
   12074:	05078613          	addi	a2,a5,80
   12078:	00072883          	lw	a7,0(a4)
   1207c:	00472803          	lw	a6,4(a4)
   12080:	00872503          	lw	a0,8(a4)
   12084:	00c72583          	lw	a1,12(a4)
   12088:	0116a023          	sw	a7,0(a3)
   1208c:	0106a223          	sw	a6,4(a3)
   12090:	00a6a423          	sw	a0,8(a3)
   12094:	00b6a623          	sw	a1,12(a3)
   12098:	01070713          	addi	a4,a4,16
   1209c:	01068693          	addi	a3,a3,16
   120a0:	fcc71ce3          	bne	a4,a2,12078 <test_decrypt_cbc+0x40>
   120a4:	0587a683          	lw	a3,88(a5)
   120a8:	05c7a703          	lw	a4,92(a5)
   120ac:	0507a583          	lw	a1,80(a5)
   120b0:	0547a603          	lw	a2,84(a5)
   120b4:	00d12c23          	sw	a3,24(sp)
   120b8:	00e12e23          	sw	a4,28(sp)
   120bc:	00b12823          	sw	a1,16(sp)
   120c0:	06078713          	addi	a4,a5,96
   120c4:	00c12a23          	sw	a2,20(sp)
   120c8:	06010693          	addi	a3,sp,96
   120cc:	0a078793          	addi	a5,a5,160
   120d0:	00072803          	lw	a6,0(a4)
   120d4:	00472503          	lw	a0,4(a4)
   120d8:	00872583          	lw	a1,8(a4)
   120dc:	00c72603          	lw	a2,12(a4)
   120e0:	0106a023          	sw	a6,0(a3)
   120e4:	00a6a223          	sw	a0,4(a3)
   120e8:	00b6a423          	sw	a1,8(a3)
   120ec:	00c6a623          	sw	a2,12(a3)
   120f0:	01070713          	addi	a4,a4,16
   120f4:	01068693          	addi	a3,a3,16
   120f8:	fcf71ce3          	bne	a4,a5,120d0 <test_decrypt_cbc+0x98>
   120fc:	01010613          	addi	a2,sp,16
   12100:	00010593          	addi	a1,sp,0
   12104:	0a010513          	addi	a0,sp,160
   12108:	8a1ff0ef          	jal	ra,119a8 <AES_init_ctx_iv>
   1210c:	04000613          	addi	a2,zero,64
   12110:	02010593          	addi	a1,sp,32
   12114:	0a010513          	addi	a0,sp,160
   12118:	a89ff0ef          	jal	ra,11ba0 <AES_CBC_decrypt_buffer>
   1211c:	00023537          	lui	a0,0x23
   12120:	39c50513          	addi	a0,a0,924 # 2339c <rsbox+0x238>
   12124:	460000ef          	jal	ra,12584 <printf>
   12128:	04000613          	addi	a2,zero,64
   1212c:	02010593          	addi	a1,sp,32
   12130:	06010513          	addi	a0,sp,96
   12134:	308000ef          	jal	ra,1243c <memcmp>
   12138:	00050413          	addi	s0,a0,0
   1213c:	02051263          	bne	a0,zero,12160 <test_decrypt_cbc+0x128>
   12140:	00023537          	lui	a0,0x23
   12144:	38450513          	addi	a0,a0,900 # 23384 <rsbox+0x220>
   12148:	608000ef          	jal	ra,12750 <puts>
   1214c:	00040513          	addi	a0,s0,0
   12150:	16c12083          	lw	ra,364(sp)
   12154:	16812403          	lw	s0,360(sp)
   12158:	17010113          	addi	sp,sp,368
   1215c:	00008067          	jalr	zero,0(ra)
   12160:	00023537          	lui	a0,0x23
   12164:	39050513          	addi	a0,a0,912 # 23390 <rsbox+0x22c>
   12168:	5e8000ef          	jal	ra,12750 <puts>
   1216c:	00100413          	addi	s0,zero,1
   12170:	fddff06f          	jal	zero,1214c <test_decrypt_cbc+0x114>

00012174 <test_xcrypt_ctr>:
   12174:	000237b7          	lui	a5,0x23
   12178:	26478793          	addi	a5,a5,612 # 23264 <rsbox+0x100>
   1217c:	0047a603          	lw	a2,4(a5)
   12180:	0087a683          	lw	a3,8(a5)
   12184:	00c7a703          	lw	a4,12(a5)
   12188:	0007a583          	lw	a1,0(a5)
   1218c:	e9010113          	addi	sp,sp,-368
   12190:	16812423          	sw	s0,360(sp)
   12194:	00c12223          	sw	a2,4(sp)
   12198:	00d12423          	sw	a3,8(sp)
   1219c:	00e12623          	sw	a4,12(sp)
   121a0:	16112623          	sw	ra,364(sp)
   121a4:	00050413          	addi	s0,a0,0
   121a8:	00b12023          	sw	a1,0(sp)
   121ac:	0a078713          	addi	a4,a5,160
   121b0:	02010693          	addi	a3,sp,32
   121b4:	0e078613          	addi	a2,a5,224
   121b8:	00072883          	lw	a7,0(a4)
   121bc:	00472803          	lw	a6,4(a4)
   121c0:	00872503          	lw	a0,8(a4)
   121c4:	00c72583          	lw	a1,12(a4)
   121c8:	0116a023          	sw	a7,0(a3)
   121cc:	0106a223          	sw	a6,4(a3)
   121d0:	00a6a423          	sw	a0,8(a3)
   121d4:	00b6a623          	sw	a1,12(a3)
   121d8:	01070713          	addi	a4,a4,16
   121dc:	01068693          	addi	a3,a3,16
   121e0:	fcc71ce3          	bne	a4,a2,121b8 <test_xcrypt_ctr+0x44>
   121e4:	0e87a683          	lw	a3,232(a5)
   121e8:	0ec7a703          	lw	a4,236(a5)
   121ec:	0e07a583          	lw	a1,224(a5)
   121f0:	0e47a603          	lw	a2,228(a5)
   121f4:	00d12c23          	sw	a3,24(sp)
   121f8:	00e12e23          	sw	a4,28(sp)
   121fc:	00b12823          	sw	a1,16(sp)
   12200:	06078713          	addi	a4,a5,96
   12204:	00c12a23          	sw	a2,20(sp)
   12208:	06010693          	addi	a3,sp,96
   1220c:	0a078793          	addi	a5,a5,160
   12210:	00072803          	lw	a6,0(a4)
   12214:	00472503          	lw	a0,4(a4)
   12218:	00872583          	lw	a1,8(a4)
   1221c:	00c72603          	lw	a2,12(a4)
   12220:	0106a023          	sw	a6,0(a3)
   12224:	00a6a223          	sw	a0,4(a3)
   12228:	00b6a423          	sw	a1,8(a3)
   1222c:	00c6a623          	sw	a2,12(a3)
   12230:	01070713          	addi	a4,a4,16
   12234:	01068693          	addi	a3,a3,16
   12238:	fcf71ce3          	bne	a4,a5,12210 <test_xcrypt_ctr+0x9c>
   1223c:	01010613          	addi	a2,sp,16
   12240:	00010593          	addi	a1,sp,0
   12244:	0a010513          	addi	a0,sp,160
   12248:	f60ff0ef          	jal	ra,119a8 <AES_init_ctx_iv>
   1224c:	04000613          	addi	a2,zero,64
   12250:	0a010513          	addi	a0,sp,160
   12254:	02010593          	addi	a1,sp,32
   12258:	ad9ff0ef          	jal	ra,11d30 <AES_CTR_xcrypt_buffer>
   1225c:	00023537          	lui	a0,0x23
   12260:	00040593          	addi	a1,s0,0
   12264:	3ac50513          	addi	a0,a0,940 # 233ac <rsbox+0x248>
   12268:	31c000ef          	jal	ra,12584 <printf>
   1226c:	04000613          	addi	a2,zero,64
   12270:	02010593          	addi	a1,sp,32
   12274:	06010513          	addi	a0,sp,96
   12278:	1c4000ef          	jal	ra,1243c <memcmp>
   1227c:	00050413          	addi	s0,a0,0
   12280:	02051263          	bne	a0,zero,122a4 <test_xcrypt_ctr+0x130>
   12284:	00023537          	lui	a0,0x23
   12288:	38450513          	addi	a0,a0,900 # 23384 <rsbox+0x220>
   1228c:	4c4000ef          	jal	ra,12750 <puts>
   12290:	00040513          	addi	a0,s0,0
   12294:	16c12083          	lw	ra,364(sp)
   12298:	16812403          	lw	s0,360(sp)
   1229c:	17010113          	addi	sp,sp,368
   122a0:	00008067          	jalr	zero,0(ra)
   122a4:	00023537          	lui	a0,0x23
   122a8:	39050513          	addi	a0,a0,912 # 23390 <rsbox+0x22c>
   122ac:	4a4000ef          	jal	ra,12750 <puts>
   122b0:	00100413          	addi	s0,zero,1
   122b4:	fddff06f          	jal	zero,12290 <test_xcrypt_ctr+0x11c>

000122b8 <test_encrypt_ecb_verbose>:
   122b8:	000236b7          	lui	a3,0x23
   122bc:	26468693          	addi	a3,a3,612 # 23264 <rsbox+0x100>
   122c0:	0086a703          	lw	a4,8(a3)
   122c4:	00c6a783          	lw	a5,12(a3)
   122c8:	0006a583          	lw	a1,0(a3)
   122cc:	0046a603          	lw	a2,4(a3)
   122d0:	ed010113          	addi	sp,sp,-304
   122d4:	11412c23          	sw	s4,280(sp)
   122d8:	01010a13          	addi	s4,sp,16
   122dc:	00e12423          	sw	a4,8(sp)
   122e0:	00f12623          	sw	a5,12(sp)
   122e4:	12112623          	sw	ra,300(sp)
   122e8:	06068793          	addi	a5,a3,96
   122ec:	12812423          	sw	s0,296(sp)
   122f0:	12912223          	sw	s1,292(sp)
   122f4:	13212023          	sw	s2,288(sp)
   122f8:	11312e23          	sw	s3,284(sp)
   122fc:	11512a23          	sw	s5,276(sp)
   12300:	00b12023          	sw	a1,0(sp)
   12304:	00c12223          	sw	a2,4(sp)
   12308:	000a0713          	addi	a4,s4,0
   1230c:	0a068693          	addi	a3,a3,160
   12310:	0007a803          	lw	a6,0(a5)
   12314:	0047a503          	lw	a0,4(a5)
   12318:	0087a583          	lw	a1,8(a5)
   1231c:	00c7a603          	lw	a2,12(a5)
   12320:	01072023          	sw	a6,0(a4)
   12324:	00a72223          	sw	a0,4(a4)
   12328:	00b72423          	sw	a1,8(a4)
   1232c:	00c72623          	sw	a2,12(a4)
   12330:	01078793          	addi	a5,a5,16
   12334:	01070713          	addi	a4,a4,16
   12338:	fcd79ce3          	bne	a5,a3,12310 <test_encrypt_ecb_verbose+0x58>
   1233c:	00023537          	lui	a0,0x23
   12340:	3b850513          	addi	a0,a0,952 # 233b8 <rsbox+0x254>
   12344:	40c000ef          	jal	ra,12750 <puts>
   12348:	00023537          	lui	a0,0x23
   1234c:	3d050513          	addi	a0,a0,976 # 233d0 <rsbox+0x26c>
   12350:	400000ef          	jal	ra,12750 <puts>
   12354:	000a0493          	addi	s1,s4,0
   12358:	05010993          	addi	s3,sp,80
   1235c:	000a0413          	addi	s0,s4,0
   12360:	00023937          	lui	s2,0x23
   12364:	01040a93          	addi	s5,s0,16
   12368:	00044583          	lbu	a1,0(s0)
   1236c:	3dc90513          	addi	a0,s2,988 # 233dc <rsbox+0x278>
   12370:	00140413          	addi	s0,s0,1
   12374:	210000ef          	jal	ra,12584 <printf>
   12378:	ff5418e3          	bne	s0,s5,12368 <test_encrypt_ecb_verbose+0xb0>
   1237c:	00a00513          	addi	a0,zero,10
   12380:	258000ef          	jal	ra,125d8 <putchar>
   12384:	fe8990e3          	bne	s3,s0,12364 <test_encrypt_ecb_verbose+0xac>
   12388:	00a00513          	addi	a0,zero,10
   1238c:	24c000ef          	jal	ra,125d8 <putchar>
   12390:	00023537          	lui	a0,0x23
   12394:	3e450513          	addi	a0,a0,996 # 233e4 <rsbox+0x280>
   12398:	3b8000ef          	jal	ra,12750 <puts>
   1239c:	00010413          	addi	s0,sp,0
   123a0:	00044583          	lbu	a1,0(s0)
   123a4:	3dc90513          	addi	a0,s2,988
   123a8:	00140413          	addi	s0,s0,1
   123ac:	1d8000ef          	jal	ra,12584 <printf>
   123b0:	ff4418e3          	bne	s0,s4,123a0 <test_encrypt_ecb_verbose+0xe8>
   123b4:	00a00513          	addi	a0,zero,10
   123b8:	220000ef          	jal	ra,125d8 <putchar>
   123bc:	00a00513          	addi	a0,zero,10
   123c0:	218000ef          	jal	ra,125d8 <putchar>
   123c4:	00023537          	lui	a0,0x23
   123c8:	3ec50513          	addi	a0,a0,1004 # 233ec <rsbox+0x288>
   123cc:	384000ef          	jal	ra,12750 <puts>
   123d0:	00010593          	addi	a1,sp,0
   123d4:	00098513          	addi	a0,s3,0
   123d8:	dccff0ef          	jal	ra,119a4 <AES_init_ctx>
   123dc:	00048593          	addi	a1,s1,0
   123e0:	00098513          	addi	a0,s3,0
   123e4:	00048413          	addi	s0,s1,0
   123e8:	e08ff0ef          	jal	ra,119f0 <AES_ECB_encrypt>
   123ec:	01048493          	addi	s1,s1,16
   123f0:	00044583          	lbu	a1,0(s0)
   123f4:	3dc90513          	addi	a0,s2,988
   123f8:	00140413          	addi	s0,s0,1
   123fc:	188000ef          	jal	ra,12584 <printf>
   12400:	fe8498e3          	bne	s1,s0,123f0 <test_encrypt_ecb_verbose+0x138>
   12404:	00a00513          	addi	a0,zero,10
   12408:	1d0000ef          	jal	ra,125d8 <putchar>
   1240c:	fc9998e3          	bne	s3,s1,123dc <test_encrypt_ecb_verbose+0x124>
   12410:	00a00513          	addi	a0,zero,10
   12414:	1c4000ef          	jal	ra,125d8 <putchar>
   12418:	12c12083          	lw	ra,300(sp)
   1241c:	12812403          	lw	s0,296(sp)
   12420:	12412483          	lw	s1,292(sp)
   12424:	12012903          	lw	s2,288(sp)
   12428:	11c12983          	lw	s3,284(sp)
   1242c:	11812a03          	lw	s4,280(sp)
   12430:	11412a83          	lw	s5,276(sp)
   12434:	13010113          	addi	sp,sp,304
   12438:	00008067          	jalr	zero,0(ra)

0001243c <memcmp>:
   1243c:	00000713          	addi	a4,zero,0
   12440:	00e61663          	bne	a2,a4,1244c <memcmp+0x10>
   12444:	00000513          	addi	a0,zero,0
   12448:	00008067          	jalr	zero,0(ra)
   1244c:	00e507b3          	add	a5,a0,a4
   12450:	00170713          	addi	a4,a4,1
   12454:	00e586b3          	add	a3,a1,a4
   12458:	0007c783          	lbu	a5,0(a5)
   1245c:	fff6c683          	lbu	a3,-1(a3)
   12460:	fed780e3          	beq	a5,a3,12440 <memcmp+0x4>
   12464:	40d78533          	sub	a0,a5,a3
   12468:	00008067          	jalr	zero,0(ra)

0001246c <memcpy>:
   1246c:	00a5c7b3          	xor	a5,a1,a0
   12470:	0037f793          	andi	a5,a5,3
   12474:	00c50733          	add	a4,a0,a2
   12478:	00079663          	bne	a5,zero,12484 <memcpy+0x18>
   1247c:	00300793          	addi	a5,zero,3
   12480:	02c7e263          	bltu	a5,a2,124a4 <memcpy+0x38>
   12484:	00050793          	addi	a5,a0,0
   12488:	0ae57c63          	bgeu	a0,a4,12540 <memcpy+0xd4>
   1248c:	0005c683          	lbu	a3,0(a1)
   12490:	00178793          	addi	a5,a5,1
   12494:	00158593          	addi	a1,a1,1
   12498:	fed78fa3          	sb	a3,-1(a5)
   1249c:	fee7e8e3          	bltu	a5,a4,1248c <memcpy+0x20>
   124a0:	00008067          	jalr	zero,0(ra)
   124a4:	00357693          	andi	a3,a0,3
   124a8:	00050793          	addi	a5,a0,0
   124ac:	00068e63          	beq	a3,zero,124c8 <memcpy+0x5c>
   124b0:	0005c683          	lbu	a3,0(a1)
   124b4:	00178793          	addi	a5,a5,1
   124b8:	00158593          	addi	a1,a1,1
   124bc:	fed78fa3          	sb	a3,-1(a5)
   124c0:	0037f693          	andi	a3,a5,3
   124c4:	fe9ff06f          	jal	zero,124ac <memcpy+0x40>
   124c8:	ffc77693          	andi	a3,a4,-4
   124cc:	fe068613          	addi	a2,a3,-32
   124d0:	06c7f463          	bgeu	a5,a2,12538 <memcpy+0xcc>
   124d4:	0005a383          	lw	t2,0(a1)
   124d8:	0045a283          	lw	t0,4(a1)
   124dc:	0085af83          	lw	t6,8(a1)
   124e0:	00c5af03          	lw	t5,12(a1)
   124e4:	0105ae83          	lw	t4,16(a1)
   124e8:	0145ae03          	lw	t3,20(a1)
   124ec:	0185a303          	lw	t1,24(a1)
   124f0:	01c5a883          	lw	a7,28(a1)
   124f4:	02458593          	addi	a1,a1,36
   124f8:	0077a023          	sw	t2,0(a5)
   124fc:	ffc5a803          	lw	a6,-4(a1)
   12500:	0057a223          	sw	t0,4(a5)
   12504:	01f7a423          	sw	t6,8(a5)
   12508:	01e7a623          	sw	t5,12(a5)
   1250c:	01d7a823          	sw	t4,16(a5)
   12510:	01c7aa23          	sw	t3,20(a5)
   12514:	0067ac23          	sw	t1,24(a5)
   12518:	0117ae23          	sw	a7,28(a5)
   1251c:	02478793          	addi	a5,a5,36
   12520:	ff07ae23          	sw	a6,-4(a5)
   12524:	fadff06f          	jal	zero,124d0 <memcpy+0x64>
   12528:	0005a603          	lw	a2,0(a1)
   1252c:	00478793          	addi	a5,a5,4
   12530:	00458593          	addi	a1,a1,4
   12534:	fec7ae23          	sw	a2,-4(a5)
   12538:	fed7e8e3          	bltu	a5,a3,12528 <memcpy+0xbc>
   1253c:	f4e7e8e3          	bltu	a5,a4,1248c <memcpy+0x20>
   12540:	00008067          	jalr	zero,0(ra)

00012544 <_printf_r>:
   12544:	fc010113          	addi	sp,sp,-64
   12548:	02c12423          	sw	a2,40(sp)
   1254c:	02d12623          	sw	a3,44(sp)
   12550:	02e12823          	sw	a4,48(sp)
   12554:	02f12a23          	sw	a5,52(sp)
   12558:	03012c23          	sw	a6,56(sp)
   1255c:	03112e23          	sw	a7,60(sp)
   12560:	00058613          	addi	a2,a1,0
   12564:	00852583          	lw	a1,8(a0)
   12568:	02810693          	addi	a3,sp,40
   1256c:	00112e23          	sw	ra,28(sp)
   12570:	00d12623          	sw	a3,12(sp)
   12574:	204000ef          	jal	ra,12778 <_vfprintf_r>
   12578:	01c12083          	lw	ra,28(sp)
   1257c:	04010113          	addi	sp,sp,64
   12580:	00008067          	jalr	zero,0(ra)

00012584 <printf>:
   12584:	fc010113          	addi	sp,sp,-64
   12588:	02f12a23          	sw	a5,52(sp)
   1258c:	1c01a783          	lw	a5,448(gp) # 25b90 <_impure_ptr>
   12590:	02c12423          	sw	a2,40(sp)
   12594:	02d12623          	sw	a3,44(sp)
   12598:	02b12223          	sw	a1,36(sp)
   1259c:	02e12823          	sw	a4,48(sp)
   125a0:	03012c23          	sw	a6,56(sp)
   125a4:	03112e23          	sw	a7,60(sp)
   125a8:	0087a583          	lw	a1,8(a5)
   125ac:	02410693          	addi	a3,sp,36
   125b0:	00050613          	addi	a2,a0,0
   125b4:	00078513          	addi	a0,a5,0
   125b8:	00112e23          	sw	ra,28(sp)
   125bc:	00d12623          	sw	a3,12(sp)
   125c0:	1b8000ef          	jal	ra,12778 <_vfprintf_r>
   125c4:	01c12083          	lw	ra,28(sp)
   125c8:	04010113          	addi	sp,sp,64
   125cc:	00008067          	jalr	zero,0(ra)

000125d0 <_putchar_r>:
   125d0:	00852603          	lw	a2,8(a0)
   125d4:	0180006f          	jal	zero,125ec <_putc_r>

000125d8 <putchar>:
   125d8:	1c01a783          	lw	a5,448(gp) # 25b90 <_impure_ptr>
   125dc:	00050593          	addi	a1,a0,0
   125e0:	0087a603          	lw	a2,8(a5)
   125e4:	00078513          	addi	a0,a5,0
   125e8:	0040006f          	jal	zero,125ec <_putc_r>

000125ec <_putc_r>:
   125ec:	fe010113          	addi	sp,sp,-32
   125f0:	00812c23          	sw	s0,24(sp)
   125f4:	00112e23          	sw	ra,28(sp)
   125f8:	00050413          	addi	s0,a0,0
   125fc:	02050063          	beq	a0,zero,1261c <_putc_r+0x30>
   12600:	03852783          	lw	a5,56(a0)
   12604:	00079c63          	bne	a5,zero,1261c <_putc_r+0x30>
   12608:	00c12623          	sw	a2,12(sp)
   1260c:	00b12423          	sw	a1,8(sp)
   12610:	005020ef          	jal	ra,14e14 <__sinit>
   12614:	00c12603          	lw	a2,12(sp)
   12618:	00812583          	lw	a1,8(sp)
   1261c:	00862783          	lw	a5,8(a2)
   12620:	fff78793          	addi	a5,a5,-1
   12624:	00f62423          	sw	a5,8(a2)
   12628:	0207d663          	bge	a5,zero,12654 <_putc_r+0x68>
   1262c:	01862703          	lw	a4,24(a2)
   12630:	00e7c863          	blt	a5,a4,12640 <_putc_r+0x54>
   12634:	0ff5f793          	andi	a5,a1,255
   12638:	00a00713          	addi	a4,zero,10
   1263c:	00e79c63          	bne	a5,a4,12654 <_putc_r+0x68>
   12640:	00040513          	addi	a0,s0,0
   12644:	01812403          	lw	s0,24(sp)
   12648:	01c12083          	lw	ra,28(sp)
   1264c:	02010113          	addi	sp,sp,32
   12650:	1ac0206f          	jal	zero,147fc <__swbuf_r>
   12654:	00062783          	lw	a5,0(a2)
   12658:	0ff5f513          	andi	a0,a1,255
   1265c:	00178713          	addi	a4,a5,1
   12660:	00e62023          	sw	a4,0(a2)
   12664:	00b78023          	sb	a1,0(a5)
   12668:	01c12083          	lw	ra,28(sp)
   1266c:	01812403          	lw	s0,24(sp)
   12670:	02010113          	addi	sp,sp,32
   12674:	00008067          	jalr	zero,0(ra)

00012678 <putc>:
   12678:	00058613          	addi	a2,a1,0
   1267c:	00050593          	addi	a1,a0,0
   12680:	1c01a503          	lw	a0,448(gp) # 25b90 <_impure_ptr>
   12684:	f69ff06f          	jal	zero,125ec <_putc_r>

00012688 <_puts_r>:
   12688:	fc010113          	addi	sp,sp,-64
   1268c:	02812c23          	sw	s0,56(sp)
   12690:	00050413          	addi	s0,a0,0
   12694:	00058513          	addi	a0,a1,0
   12698:	00b12623          	sw	a1,12(sp)
   1269c:	02112e23          	sw	ra,60(sp)
   126a0:	0bc000ef          	jal	ra,1275c <strlen>
   126a4:	000237b7          	lui	a5,0x23
   126a8:	3cc78793          	addi	a5,a5,972 # 233cc <rsbox+0x268>
   126ac:	02f12423          	sw	a5,40(sp)
   126b0:	00100793          	addi	a5,zero,1
   126b4:	02f12623          	sw	a5,44(sp)
   126b8:	02010793          	addi	a5,sp,32
   126bc:	00c12583          	lw	a1,12(sp)
   126c0:	00f12a23          	sw	a5,20(sp)
   126c4:	00200793          	addi	a5,zero,2
   126c8:	00f12c23          	sw	a5,24(sp)
   126cc:	03842783          	lw	a5,56(s0)
   126d0:	02a12223          	sw	a0,36(sp)
   126d4:	00150513          	addi	a0,a0,1
   126d8:	02b12023          	sw	a1,32(sp)
   126dc:	00a12e23          	sw	a0,28(sp)
   126e0:	00842583          	lw	a1,8(s0)
   126e4:	00079a63          	bne	a5,zero,126f8 <_puts_r+0x70>
   126e8:	00040513          	addi	a0,s0,0
   126ec:	00b12623          	sw	a1,12(sp)
   126f0:	724020ef          	jal	ra,14e14 <__sinit>
   126f4:	00c12583          	lw	a1,12(sp)
   126f8:	00c59783          	lh	a5,12(a1)
   126fc:	01279713          	slli	a4,a5,0x12
   12700:	02074263          	blt	a4,zero,12724 <_puts_r+0x9c>
   12704:	000026b7          	lui	a3,0x2
   12708:	0645a703          	lw	a4,100(a1)
   1270c:	00d7e7b3          	or	a5,a5,a3
   12710:	00f59623          	sh	a5,12(a1)
   12714:	ffffe7b7          	lui	a5,0xffffe
   12718:	fff78793          	addi	a5,a5,-1 # ffffdfff <__BSS_END__+0xfffd8407>
   1271c:	00f777b3          	and	a5,a4,a5
   12720:	06f5a223          	sw	a5,100(a1)
   12724:	01410613          	addi	a2,sp,20
   12728:	00040513          	addi	a0,s0,0
   1272c:	3dd020ef          	jal	ra,15308 <__sfvwrite_r>
   12730:	fff00793          	addi	a5,zero,-1
   12734:	00051463          	bne	a0,zero,1273c <_puts_r+0xb4>
   12738:	00a00793          	addi	a5,zero,10
   1273c:	03c12083          	lw	ra,60(sp)
   12740:	03812403          	lw	s0,56(sp)
   12744:	00078513          	addi	a0,a5,0
   12748:	04010113          	addi	sp,sp,64
   1274c:	00008067          	jalr	zero,0(ra)

00012750 <puts>:
   12750:	00050593          	addi	a1,a0,0
   12754:	1c01a503          	lw	a0,448(gp) # 25b90 <_impure_ptr>
   12758:	f31ff06f          	jal	zero,12688 <_puts_r>

0001275c <strlen>:
   1275c:	00050793          	addi	a5,a0,0
   12760:	00178793          	addi	a5,a5,1
   12764:	fff7c703          	lbu	a4,-1(a5)
   12768:	fe071ce3          	bne	a4,zero,12760 <strlen+0x4>
   1276c:	40a78533          	sub	a0,a5,a0
   12770:	fff50513          	addi	a0,a0,-1
   12774:	00008067          	jalr	zero,0(ra)

00012778 <_vfprintf_r>:
   12778:	e2010113          	addi	sp,sp,-480
   1277c:	1c112e23          	sw	ra,476(sp)
   12780:	1c912a23          	sw	s1,468(sp)
   12784:	1d212823          	sw	s2,464(sp)
   12788:	1d312623          	sw	s3,460(sp)
   1278c:	1d512223          	sw	s5,452(sp)
   12790:	00058913          	addi	s2,a1,0
   12794:	00060493          	addi	s1,a2,0
   12798:	00068a93          	addi	s5,a3,0 # 2000 <main-0xe074>
   1279c:	1c812c23          	sw	s0,472(sp)
   127a0:	1d412423          	sw	s4,456(sp)
   127a4:	1d612023          	sw	s6,448(sp)
   127a8:	1b712e23          	sw	s7,444(sp)
   127ac:	1b812c23          	sw	s8,440(sp)
   127b0:	1b912a23          	sw	s9,436(sp)
   127b4:	1ba12823          	sw	s10,432(sp)
   127b8:	1bb12623          	sw	s11,428(sp)
   127bc:	00050993          	addi	s3,a0,0
   127c0:	0a4050ef          	jal	ra,17864 <_localeconv_r>
   127c4:	00052783          	lw	a5,0(a0)
   127c8:	00078513          	addi	a0,a5,0
   127cc:	02f12a23          	sw	a5,52(sp)
   127d0:	f8dff0ef          	jal	ra,1275c <strlen>
   127d4:	02a12023          	sw	a0,32(sp)
   127d8:	0e012023          	sw	zero,224(sp)
   127dc:	0e012223          	sw	zero,228(sp)
   127e0:	0e012423          	sw	zero,232(sp)
   127e4:	0e012623          	sw	zero,236(sp)
   127e8:	00098a63          	beq	s3,zero,127fc <_vfprintf_r+0x84>
   127ec:	0389a783          	lw	a5,56(s3)
   127f0:	00079663          	bne	a5,zero,127fc <_vfprintf_r+0x84>
   127f4:	00098513          	addi	a0,s3,0
   127f8:	61c020ef          	jal	ra,14e14 <__sinit>
   127fc:	00c91783          	lh	a5,12(s2)
   12800:	01279713          	slli	a4,a5,0x12
   12804:	02074263          	blt	a4,zero,12828 <_vfprintf_r+0xb0>
   12808:	000026b7          	lui	a3,0x2
   1280c:	06492703          	lw	a4,100(s2)
   12810:	00d7e7b3          	or	a5,a5,a3
   12814:	00f91623          	sh	a5,12(s2)
   12818:	ffffe7b7          	lui	a5,0xffffe
   1281c:	fff78793          	addi	a5,a5,-1 # ffffdfff <__BSS_END__+0xfffd8407>
   12820:	00f777b3          	and	a5,a4,a5
   12824:	06f92223          	sw	a5,100(s2)
   12828:	00c95783          	lhu	a5,12(s2)
   1282c:	0087f793          	andi	a5,a5,8
   12830:	04078063          	beq	a5,zero,12870 <_vfprintf_r+0xf8>
   12834:	01092783          	lw	a5,16(s2)
   12838:	02078c63          	beq	a5,zero,12870 <_vfprintf_r+0xf8>
   1283c:	00c95783          	lhu	a5,12(s2)
   12840:	00a00713          	addi	a4,zero,10
   12844:	01a7f793          	andi	a5,a5,26
   12848:	08e79063          	bne	a5,a4,128c8 <_vfprintf_r+0x150>
   1284c:	00e91783          	lh	a5,14(s2)
   12850:	0607cc63          	blt	a5,zero,128c8 <_vfprintf_r+0x150>
   12854:	000a8693          	addi	a3,s5,0
   12858:	00048613          	addi	a2,s1,0
   1285c:	00090593          	addi	a1,s2,0
   12860:	00098513          	addi	a0,s3,0
   12864:	6dd010ef          	jal	ra,14740 <__sbprintf>
   12868:	02a12223          	sw	a0,36(sp)
   1286c:	01c0006f          	jal	zero,12888 <_vfprintf_r+0x110>
   12870:	00090593          	addi	a1,s2,0
   12874:	00098513          	addi	a0,s3,0
   12878:	0c4020ef          	jal	ra,1493c <__swsetup_r>
   1287c:	fc0500e3          	beq	a0,zero,1283c <_vfprintf_r+0xc4>
   12880:	fff00793          	addi	a5,zero,-1
   12884:	02f12223          	sw	a5,36(sp)
   12888:	1dc12083          	lw	ra,476(sp)
   1288c:	1d812403          	lw	s0,472(sp)
   12890:	02412503          	lw	a0,36(sp)
   12894:	1d412483          	lw	s1,468(sp)
   12898:	1d012903          	lw	s2,464(sp)
   1289c:	1cc12983          	lw	s3,460(sp)
   128a0:	1c812a03          	lw	s4,456(sp)
   128a4:	1c412a83          	lw	s5,452(sp)
   128a8:	1c012b03          	lw	s6,448(sp)
   128ac:	1bc12b83          	lw	s7,444(sp)
   128b0:	1b812c03          	lw	s8,440(sp)
   128b4:	1b412c83          	lw	s9,436(sp)
   128b8:	1b012d03          	lw	s10,432(sp)
   128bc:	1ac12d83          	lw	s11,428(sp)
   128c0:	1e010113          	addi	sp,sp,480
   128c4:	00008067          	jalr	zero,0(ra)
   128c8:	000237b7          	lui	a5,0x23
   128cc:	43c78793          	addi	a5,a5,1084 # 2343c <rsbox+0x2d8>
   128d0:	04f12623          	sw	a5,76(sp)
   128d4:	000237b7          	lui	a5,0x23
   128d8:	0fc10893          	addi	a7,sp,252
   128dc:	5b878793          	addi	a5,a5,1464 # 235b8 <zeroes.4514>
   128e0:	0d112a23          	sw	a7,212(sp)
   128e4:	0c012e23          	sw	zero,220(sp)
   128e8:	0c012c23          	sw	zero,216(sp)
   128ec:	00000a13          	addi	s4,zero,0
   128f0:	00088b93          	addi	s7,a7,0
   128f4:	04012023          	sw	zero,64(sp)
   128f8:	02012e23          	sw	zero,60(sp)
   128fc:	00012823          	sw	zero,16(sp)
   12900:	02012823          	sw	zero,48(sp)
   12904:	02012c23          	sw	zero,56(sp)
   12908:	02012223          	sw	zero,36(sp)
   1290c:	00f12a23          	sw	a5,20(sp)
   12910:	00048413          	addi	s0,s1,0
   12914:	02500713          	addi	a4,zero,37
   12918:	00044783          	lbu	a5,0(s0)
   1291c:	00078463          	beq	a5,zero,12924 <_vfprintf_r+0x1ac>
   12920:	0ae79a63          	bne	a5,a4,129d4 <_vfprintf_r+0x25c>
   12924:	40940b33          	sub	s6,s0,s1
   12928:	040b0a63          	beq	s6,zero,1297c <_vfprintf_r+0x204>
   1292c:	0dc12783          	lw	a5,220(sp)
   12930:	009ba023          	sw	s1,0(s7)
   12934:	016ba223          	sw	s6,4(s7)
   12938:	016787b3          	add	a5,a5,s6
   1293c:	0cf12e23          	sw	a5,220(sp)
   12940:	0d812783          	lw	a5,216(sp)
   12944:	00700713          	addi	a4,zero,7
   12948:	008b8b93          	addi	s7,s7,8
   1294c:	00178793          	addi	a5,a5,1
   12950:	0cf12c23          	sw	a5,216(sp)
   12954:	00f75e63          	bge	a4,a5,12970 <_vfprintf_r+0x1f8>
   12958:	0d410613          	addi	a2,sp,212
   1295c:	00090593          	addi	a1,s2,0
   12960:	00098513          	addi	a0,s3,0
   12964:	178090ef          	jal	ra,1badc <__sprint_r>
   12968:	72051a63          	bne	a0,zero,1309c <_vfprintf_r+0x924>
   1296c:	0fc10b93          	addi	s7,sp,252
   12970:	02412783          	lw	a5,36(sp)
   12974:	016787b3          	add	a5,a5,s6
   12978:	02f12223          	sw	a5,36(sp)
   1297c:	00044783          	lbu	a5,0(s0)
   12980:	00079463          	bne	a5,zero,12988 <_vfprintf_r+0x210>
   12984:	5650106f          	jal	zero,146e8 <_vfprintf_r+0x1f70>
   12988:	00140793          	addi	a5,s0,1
   1298c:	0a010ba3          	sb	zero,183(sp)
   12990:	fff00d13          	addi	s10,zero,-1
   12994:	02012423          	sw	zero,40(sp)
   12998:	00000413          	addi	s0,zero,0
   1299c:	05a00c13          	addi	s8,zero,90
   129a0:	00900d93          	addi	s11,zero,9
   129a4:	02a00c93          	addi	s9,zero,42
   129a8:	0007cb03          	lbu	s6,0(a5)
   129ac:	00178713          	addi	a4,a5,1
   129b0:	00e12e23          	sw	a4,28(sp)
   129b4:	fe0b0793          	addi	a5,s6,-32
   129b8:	00fc7463          	bgeu	s8,a5,129c0 <_vfprintf_r+0x248>
   129bc:	2440106f          	jal	zero,13c00 <_vfprintf_r+0x1488>
   129c0:	04c12703          	lw	a4,76(sp)
   129c4:	00279793          	slli	a5,a5,0x2
   129c8:	00e787b3          	add	a5,a5,a4
   129cc:	0007a783          	lw	a5,0(a5)
   129d0:	00078067          	jalr	zero,0(a5)
   129d4:	00140413          	addi	s0,s0,1
   129d8:	f41ff06f          	jal	zero,12918 <_vfprintf_r+0x1a0>
   129dc:	00098513          	addi	a0,s3,0
   129e0:	685040ef          	jal	ra,17864 <_localeconv_r>
   129e4:	00452783          	lw	a5,4(a0)
   129e8:	00078513          	addi	a0,a5,0
   129ec:	02f12c23          	sw	a5,56(sp)
   129f0:	d6dff0ef          	jal	ra,1275c <strlen>
   129f4:	02a12823          	sw	a0,48(sp)
   129f8:	00098513          	addi	a0,s3,0
   129fc:	669040ef          	jal	ra,17864 <_localeconv_r>
   12a00:	00852783          	lw	a5,8(a0)
   12a04:	00f12823          	sw	a5,16(sp)
   12a08:	03012783          	lw	a5,48(sp)
   12a0c:	00078c63          	beq	a5,zero,12a24 <_vfprintf_r+0x2ac>
   12a10:	01012783          	lw	a5,16(sp)
   12a14:	00078863          	beq	a5,zero,12a24 <_vfprintf_r+0x2ac>
   12a18:	0007c783          	lbu	a5,0(a5)
   12a1c:	00078463          	beq	a5,zero,12a24 <_vfprintf_r+0x2ac>
   12a20:	40046413          	ori	s0,s0,1024
   12a24:	01c12783          	lw	a5,28(sp)
   12a28:	f81ff06f          	jal	zero,129a8 <_vfprintf_r+0x230>
   12a2c:	0b714783          	lbu	a5,183(sp)
   12a30:	fe079ae3          	bne	a5,zero,12a24 <_vfprintf_r+0x2ac>
   12a34:	02000793          	addi	a5,zero,32
   12a38:	0af10ba3          	sb	a5,183(sp)
   12a3c:	fe9ff06f          	jal	zero,12a24 <_vfprintf_r+0x2ac>
   12a40:	00146413          	ori	s0,s0,1
   12a44:	fe1ff06f          	jal	zero,12a24 <_vfprintf_r+0x2ac>
   12a48:	000aa783          	lw	a5,0(s5)
   12a4c:	004a8a93          	addi	s5,s5,4
   12a50:	02f12423          	sw	a5,40(sp)
   12a54:	fc07d8e3          	bge	a5,zero,12a24 <_vfprintf_r+0x2ac>
   12a58:	40f007b3          	sub	a5,zero,a5
   12a5c:	02f12423          	sw	a5,40(sp)
   12a60:	00446413          	ori	s0,s0,4
   12a64:	fc1ff06f          	jal	zero,12a24 <_vfprintf_r+0x2ac>
   12a68:	02b00793          	addi	a5,zero,43
   12a6c:	fcdff06f          	jal	zero,12a38 <_vfprintf_r+0x2c0>
   12a70:	01c12703          	lw	a4,28(sp)
   12a74:	01c12783          	lw	a5,28(sp)
   12a78:	00074b03          	lbu	s6,0(a4)
   12a7c:	00178793          	addi	a5,a5,1
   12a80:	059b1463          	bne	s6,s9,12ac8 <_vfprintf_r+0x350>
   12a84:	000aad03          	lw	s10,0(s5)
   12a88:	004a8713          	addi	a4,s5,4
   12a8c:	000d5463          	bge	s10,zero,12a94 <_vfprintf_r+0x31c>
   12a90:	fff00d13          	addi	s10,zero,-1
   12a94:	00070a93          	addi	s5,a4,0
   12a98:	00f12e23          	sw	a5,28(sp)
   12a9c:	f89ff06f          	jal	zero,12a24 <_vfprintf_r+0x2ac>
   12aa0:	002d1713          	slli	a4,s10,0x2
   12aa4:	00178793          	addi	a5,a5,1
   12aa8:	01a70333          	add	t1,a4,s10
   12aac:	fff7cb03          	lbu	s6,-1(a5)
   12ab0:	00131313          	slli	t1,t1,0x1
   12ab4:	00d30d33          	add	s10,t1,a3
   12ab8:	fd0b0693          	addi	a3,s6,-48
   12abc:	feddf2e3          	bgeu	s11,a3,12aa0 <_vfprintf_r+0x328>
   12ac0:	00f12e23          	sw	a5,28(sp)
   12ac4:	ef1ff06f          	jal	zero,129b4 <_vfprintf_r+0x23c>
   12ac8:	00000d13          	addi	s10,zero,0
   12acc:	fedff06f          	jal	zero,12ab8 <_vfprintf_r+0x340>
   12ad0:	08046413          	ori	s0,s0,128
   12ad4:	f51ff06f          	jal	zero,12a24 <_vfprintf_r+0x2ac>
   12ad8:	01c12783          	lw	a5,28(sp)
   12adc:	02012423          	sw	zero,40(sp)
   12ae0:	02812703          	lw	a4,40(sp)
   12ae4:	02812683          	lw	a3,40(sp)
   12ae8:	fd0b0b13          	addi	s6,s6,-48
   12aec:	00271713          	slli	a4,a4,0x2
   12af0:	00d70733          	add	a4,a4,a3
   12af4:	00171713          	slli	a4,a4,0x1
   12af8:	00178793          	addi	a5,a5,1
   12afc:	00eb0733          	add	a4,s6,a4
   12b00:	fff7cb03          	lbu	s6,-1(a5)
   12b04:	02e12423          	sw	a4,40(sp)
   12b08:	fd0b0713          	addi	a4,s6,-48
   12b0c:	fcedfae3          	bgeu	s11,a4,12ae0 <_vfprintf_r+0x368>
   12b10:	fb1ff06f          	jal	zero,12ac0 <_vfprintf_r+0x348>
   12b14:	00846413          	ori	s0,s0,8
   12b18:	f0dff06f          	jal	zero,12a24 <_vfprintf_r+0x2ac>
   12b1c:	01c12783          	lw	a5,28(sp)
   12b20:	0007c703          	lbu	a4,0(a5)
   12b24:	06800793          	addi	a5,zero,104
   12b28:	00f71c63          	bne	a4,a5,12b40 <_vfprintf_r+0x3c8>
   12b2c:	01c12783          	lw	a5,28(sp)
   12b30:	20046413          	ori	s0,s0,512
   12b34:	00178793          	addi	a5,a5,1
   12b38:	00f12e23          	sw	a5,28(sp)
   12b3c:	ee9ff06f          	jal	zero,12a24 <_vfprintf_r+0x2ac>
   12b40:	04046413          	ori	s0,s0,64
   12b44:	ee1ff06f          	jal	zero,12a24 <_vfprintf_r+0x2ac>
   12b48:	01c12783          	lw	a5,28(sp)
   12b4c:	0007c703          	lbu	a4,0(a5)
   12b50:	06c00793          	addi	a5,zero,108
   12b54:	00f71c63          	bne	a4,a5,12b6c <_vfprintf_r+0x3f4>
   12b58:	01c12783          	lw	a5,28(sp)
   12b5c:	00178793          	addi	a5,a5,1
   12b60:	00f12e23          	sw	a5,28(sp)
   12b64:	02046413          	ori	s0,s0,32
   12b68:	ebdff06f          	jal	zero,12a24 <_vfprintf_r+0x2ac>
   12b6c:	01046413          	ori	s0,s0,16
   12b70:	eb5ff06f          	jal	zero,12a24 <_vfprintf_r+0x2ac>
   12b74:	004a8793          	addi	a5,s5,4
   12b78:	00f12c23          	sw	a5,24(sp)
   12b7c:	000aa783          	lw	a5,0(s5)
   12b80:	0a010ba3          	sb	zero,183(sp)
   12b84:	12f10e23          	sb	a5,316(sp)
   12b88:	00012623          	sw	zero,12(sp)
   12b8c:	00100d13          	addi	s10,zero,1
   12b90:	00000713          	addi	a4,zero,0
   12b94:	00000c93          	addi	s9,zero,0
   12b98:	00000c13          	addi	s8,zero,0
   12b9c:	00000d93          	addi	s11,zero,0
   12ba0:	13c10493          	addi	s1,sp,316
   12ba4:	02e12623          	sw	a4,44(sp)
   12ba8:	01a75463          	bge	a4,s10,12bb0 <_vfprintf_r+0x438>
   12bac:	03a12623          	sw	s10,44(sp)
   12bb0:	0b714683          	lbu	a3,183(sp)
   12bb4:	00068863          	beq	a3,zero,12bc4 <_vfprintf_r+0x44c>
   12bb8:	02c12783          	lw	a5,44(sp)
   12bbc:	00178793          	addi	a5,a5,1
   12bc0:	02f12623          	sw	a5,44(sp)
   12bc4:	00247a93          	andi	s5,s0,2
   12bc8:	000a8863          	beq	s5,zero,12bd8 <_vfprintf_r+0x460>
   12bcc:	02c12783          	lw	a5,44(sp)
   12bd0:	00278793          	addi	a5,a5,2
   12bd4:	02f12623          	sw	a5,44(sp)
   12bd8:	08447793          	andi	a5,s0,132
   12bdc:	04f12223          	sw	a5,68(sp)
   12be0:	08079063          	bne	a5,zero,12c60 <_vfprintf_r+0x4e8>
   12be4:	02812783          	lw	a5,40(sp)
   12be8:	02c12683          	lw	a3,44(sp)
   12bec:	40d786b3          	sub	a3,a5,a3
   12bf0:	06d05863          	bge	zero,a3,12c60 <_vfprintf_r+0x4e8>
   12bf4:	000237b7          	lui	a5,0x23
   12bf8:	01000e13          	addi	t3,zero,16
   12bfc:	5a878813          	addi	a6,a5,1448 # 235a8 <blanks.4513>
   12c00:	00700e93          	addi	t4,zero,7
   12c04:	0d812603          	lw	a2,216(sp)
   12c08:	010ba023          	sw	a6,0(s7)
   12c0c:	0dc12583          	lw	a1,220(sp)
   12c10:	00160613          	addi	a2,a2,1
   12c14:	008b8513          	addi	a0,s7,8
   12c18:	00de5463          	bge	t3,a3,12c20 <_vfprintf_r+0x4a8>
   12c1c:	7f90006f          	jal	zero,13c14 <_vfprintf_r+0x149c>
   12c20:	00dba223          	sw	a3,4(s7)
   12c24:	00b686b3          	add	a3,a3,a1
   12c28:	0cd12e23          	sw	a3,220(sp)
   12c2c:	0cc12c23          	sw	a2,216(sp)
   12c30:	00700693          	addi	a3,zero,7
   12c34:	00050b93          	addi	s7,a0,0
   12c38:	02c6d463          	bge	a3,a2,12c60 <_vfprintf_r+0x4e8>
   12c3c:	0d410613          	addi	a2,sp,212
   12c40:	00090593          	addi	a1,s2,0
   12c44:	00098513          	addi	a0,s3,0
   12c48:	04e12423          	sw	a4,72(sp)
   12c4c:	691080ef          	jal	ra,1badc <__sprint_r>
   12c50:	00050463          	beq	a0,zero,12c58 <_vfprintf_r+0x4e0>
   12c54:	2310106f          	jal	zero,14684 <_vfprintf_r+0x1f0c>
   12c58:	04812703          	lw	a4,72(sp)
   12c5c:	0fc10b93          	addi	s7,sp,252
   12c60:	0b714683          	lbu	a3,183(sp)
   12c64:	04068e63          	beq	a3,zero,12cc0 <_vfprintf_r+0x548>
   12c68:	0b710693          	addi	a3,sp,183
   12c6c:	00dba023          	sw	a3,0(s7)
   12c70:	00100693          	addi	a3,zero,1
   12c74:	00dba223          	sw	a3,4(s7)
   12c78:	0dc12683          	lw	a3,220(sp)
   12c7c:	00700613          	addi	a2,zero,7
   12c80:	008b8b93          	addi	s7,s7,8
   12c84:	00168693          	addi	a3,a3,1 # 2001 <main-0xe073>
   12c88:	0cd12e23          	sw	a3,220(sp)
   12c8c:	0d812683          	lw	a3,216(sp)
   12c90:	00168693          	addi	a3,a3,1
   12c94:	0cd12c23          	sw	a3,216(sp)
   12c98:	02d65463          	bge	a2,a3,12cc0 <_vfprintf_r+0x548>
   12c9c:	0d410613          	addi	a2,sp,212
   12ca0:	00090593          	addi	a1,s2,0
   12ca4:	00098513          	addi	a0,s3,0
   12ca8:	04e12423          	sw	a4,72(sp)
   12cac:	631080ef          	jal	ra,1badc <__sprint_r>
   12cb0:	00050463          	beq	a0,zero,12cb8 <_vfprintf_r+0x540>
   12cb4:	1d10106f          	jal	zero,14684 <_vfprintf_r+0x1f0c>
   12cb8:	04812703          	lw	a4,72(sp)
   12cbc:	0fc10b93          	addi	s7,sp,252
   12cc0:	040a8e63          	beq	s5,zero,12d1c <_vfprintf_r+0x5a4>
   12cc4:	0b810693          	addi	a3,sp,184
   12cc8:	00dba023          	sw	a3,0(s7)
   12ccc:	00200693          	addi	a3,zero,2
   12cd0:	00dba223          	sw	a3,4(s7)
   12cd4:	0dc12683          	lw	a3,220(sp)
   12cd8:	00700613          	addi	a2,zero,7
   12cdc:	008b8b93          	addi	s7,s7,8
   12ce0:	00268693          	addi	a3,a3,2
   12ce4:	0cd12e23          	sw	a3,220(sp)
   12ce8:	0d812683          	lw	a3,216(sp)
   12cec:	00168693          	addi	a3,a3,1
   12cf0:	0cd12c23          	sw	a3,216(sp)
   12cf4:	02d65463          	bge	a2,a3,12d1c <_vfprintf_r+0x5a4>
   12cf8:	0d410613          	addi	a2,sp,212
   12cfc:	00090593          	addi	a1,s2,0
   12d00:	00098513          	addi	a0,s3,0
   12d04:	04e12423          	sw	a4,72(sp)
   12d08:	5d5080ef          	jal	ra,1badc <__sprint_r>
   12d0c:	00050463          	beq	a0,zero,12d14 <_vfprintf_r+0x59c>
   12d10:	1750106f          	jal	zero,14684 <_vfprintf_r+0x1f0c>
   12d14:	04812703          	lw	a4,72(sp)
   12d18:	0fc10b93          	addi	s7,sp,252
   12d1c:	04412783          	lw	a5,68(sp)
   12d20:	08000693          	addi	a3,zero,128
   12d24:	06d79c63          	bne	a5,a3,12d9c <_vfprintf_r+0x624>
   12d28:	02812783          	lw	a5,40(sp)
   12d2c:	02c12683          	lw	a3,44(sp)
   12d30:	40d78ab3          	sub	s5,a5,a3
   12d34:	07505463          	bge	zero,s5,12d9c <_vfprintf_r+0x624>
   12d38:	01000813          	addi	a6,zero,16
   12d3c:	00700e13          	addi	t3,zero,7
   12d40:	01412783          	lw	a5,20(sp)
   12d44:	0d812683          	lw	a3,216(sp)
   12d48:	0dc12603          	lw	a2,220(sp)
   12d4c:	00fba023          	sw	a5,0(s7)
   12d50:	00168693          	addi	a3,a3,1
   12d54:	008b8593          	addi	a1,s7,8
   12d58:	71584ae3          	blt	a6,s5,13c6c <_vfprintf_r+0x14f4>
   12d5c:	015ba223          	sw	s5,4(s7)
   12d60:	00ca8ab3          	add	s5,s5,a2
   12d64:	0d512e23          	sw	s5,220(sp)
   12d68:	0cd12c23          	sw	a3,216(sp)
   12d6c:	00700613          	addi	a2,zero,7
   12d70:	00058b93          	addi	s7,a1,0
   12d74:	02d65463          	bge	a2,a3,12d9c <_vfprintf_r+0x624>
   12d78:	0d410613          	addi	a2,sp,212
   12d7c:	00090593          	addi	a1,s2,0
   12d80:	00098513          	addi	a0,s3,0
   12d84:	04e12223          	sw	a4,68(sp)
   12d88:	555080ef          	jal	ra,1badc <__sprint_r>
   12d8c:	00050463          	beq	a0,zero,12d94 <_vfprintf_r+0x61c>
   12d90:	0f50106f          	jal	zero,14684 <_vfprintf_r+0x1f0c>
   12d94:	04412703          	lw	a4,68(sp)
   12d98:	0fc10b93          	addi	s7,sp,252
   12d9c:	41a70ab3          	sub	s5,a4,s10
   12da0:	07505063          	bge	zero,s5,12e00 <_vfprintf_r+0x688>
   12da4:	01000813          	addi	a6,zero,16
   12da8:	00700e13          	addi	t3,zero,7
   12dac:	01412783          	lw	a5,20(sp)
   12db0:	0d812683          	lw	a3,216(sp)
   12db4:	0dc12703          	lw	a4,220(sp)
   12db8:	00fba023          	sw	a5,0(s7)
   12dbc:	00168693          	addi	a3,a3,1
   12dc0:	008b8613          	addi	a2,s7,8
   12dc4:	6f5848e3          	blt	a6,s5,13cb4 <_vfprintf_r+0x153c>
   12dc8:	00ea8733          	add	a4,s5,a4
   12dcc:	015ba223          	sw	s5,4(s7)
   12dd0:	0ce12e23          	sw	a4,220(sp)
   12dd4:	0cd12c23          	sw	a3,216(sp)
   12dd8:	00700713          	addi	a4,zero,7
   12ddc:	00060b93          	addi	s7,a2,0
   12de0:	02d75063          	bge	a4,a3,12e00 <_vfprintf_r+0x688>
   12de4:	0d410613          	addi	a2,sp,212
   12de8:	00090593          	addi	a1,s2,0
   12dec:	00098513          	addi	a0,s3,0
   12df0:	4ed080ef          	jal	ra,1badc <__sprint_r>
   12df4:	00050463          	beq	a0,zero,12dfc <_vfprintf_r+0x684>
   12df8:	08d0106f          	jal	zero,14684 <_vfprintf_r+0x1f0c>
   12dfc:	0fc10b93          	addi	s7,sp,252
   12e00:	10047693          	andi	a3,s0,256
   12e04:	0dc12703          	lw	a4,220(sp)
   12e08:	6e0696e3          	bne	a3,zero,13cf4 <_vfprintf_r+0x157c>
   12e0c:	0d812783          	lw	a5,216(sp)
   12e10:	00ed0333          	add	t1,s10,a4
   12e14:	009ba023          	sw	s1,0(s7)
   12e18:	00178793          	addi	a5,a5,1
   12e1c:	01aba223          	sw	s10,4(s7)
   12e20:	0c612e23          	sw	t1,220(sp)
   12e24:	0cf12c23          	sw	a5,216(sp)
   12e28:	00700713          	addi	a4,zero,7
   12e2c:	008b8b93          	addi	s7,s7,8
   12e30:	00f74463          	blt	a4,a5,12e38 <_vfprintf_r+0x6c0>
   12e34:	1880106f          	jal	zero,13fbc <_vfprintf_r+0x1844>
   12e38:	0d410613          	addi	a2,sp,212
   12e3c:	00090593          	addi	a1,s2,0
   12e40:	00098513          	addi	a0,s3,0
   12e44:	499080ef          	jal	ra,1badc <__sprint_r>
   12e48:	00050463          	beq	a0,zero,12e50 <_vfprintf_r+0x6d8>
   12e4c:	0390106f          	jal	zero,14684 <_vfprintf_r+0x1f0c>
   12e50:	0fc10b93          	addi	s7,sp,252
   12e54:	1680106f          	jal	zero,13fbc <_vfprintf_r+0x1844>
   12e58:	01046413          	ori	s0,s0,16
   12e5c:	02047793          	andi	a5,s0,32
   12e60:	06078463          	beq	a5,zero,12ec8 <_vfprintf_r+0x750>
   12e64:	007a8a93          	addi	s5,s5,7
   12e68:	ff8afa93          	andi	s5,s5,-8
   12e6c:	000aac83          	lw	s9,0(s5)
   12e70:	004aad83          	lw	s11,4(s5)
   12e74:	008a8793          	addi	a5,s5,8
   12e78:	00f12c23          	sw	a5,24(sp)
   12e7c:	000dc463          	blt	s11,zero,12e84 <_vfprintf_r+0x70c>
   12e80:	0890106f          	jal	zero,14708 <_vfprintf_r+0x1f90>
   12e84:	41900cb3          	sub	s9,zero,s9
   12e88:	019037b3          	sltu	a5,zero,s9
   12e8c:	41b00db3          	sub	s11,zero,s11
   12e90:	40fd8db3          	sub	s11,s11,a5
   12e94:	02d00793          	addi	a5,zero,45
   12e98:	0af10ba3          	sb	a5,183(sp)
   12e9c:	00100793          	addi	a5,zero,1
   12ea0:	fff00713          	addi	a4,zero,-1
   12ea4:	3ced04e3          	beq	s10,a4,13a6c <_vfprintf_r+0x12f4>
   12ea8:	00040713          	addi	a4,s0,0
   12eac:	01bce6b3          	or	a3,s9,s11
   12eb0:	f7f47413          	andi	s0,s0,-129
   12eb4:	3a069ce3          	bne	a3,zero,13a6c <_vfprintf_r+0x12f4>
   12eb8:	520d06e3          	beq	s10,zero,13be4 <_vfprintf_r+0x146c>
   12ebc:	00100713          	addi	a4,zero,1
   12ec0:	3ae79ae3          	bne	a5,a4,13a74 <_vfprintf_r+0x12fc>
   12ec4:	0590106f          	jal	zero,1471c <_vfprintf_r+0x1fa4>
   12ec8:	004a8793          	addi	a5,s5,4
   12ecc:	00f12c23          	sw	a5,24(sp)
   12ed0:	01047793          	andi	a5,s0,16
   12ed4:	00078863          	beq	a5,zero,12ee4 <_vfprintf_r+0x76c>
   12ed8:	000aac83          	lw	s9,0(s5)
   12edc:	41fcdd93          	srai	s11,s9,0x1f
   12ee0:	f9dff06f          	jal	zero,12e7c <_vfprintf_r+0x704>
   12ee4:	04047793          	andi	a5,s0,64
   12ee8:	000aac83          	lw	s9,0(s5)
   12eec:	00078863          	beq	a5,zero,12efc <_vfprintf_r+0x784>
   12ef0:	010c9c93          	slli	s9,s9,0x10
   12ef4:	410cdc93          	srai	s9,s9,0x10
   12ef8:	fe5ff06f          	jal	zero,12edc <_vfprintf_r+0x764>
   12efc:	20047793          	andi	a5,s0,512
   12f00:	fc078ee3          	beq	a5,zero,12edc <_vfprintf_r+0x764>
   12f04:	018c9c93          	slli	s9,s9,0x18
   12f08:	418cdc93          	srai	s9,s9,0x18
   12f0c:	fd1ff06f          	jal	zero,12edc <_vfprintf_r+0x764>
   12f10:	00847793          	andi	a5,s0,8
   12f14:	0a078863          	beq	a5,zero,12fc4 <_vfprintf_r+0x84c>
   12f18:	004a8793          	addi	a5,s5,4
   12f1c:	00f12c23          	sw	a5,24(sp)
   12f20:	000aa783          	lw	a5,0(s5)
   12f24:	0007a603          	lw	a2,0(a5)
   12f28:	0047a683          	lw	a3,4(a5)
   12f2c:	0087a703          	lw	a4,8(a5)
   12f30:	00c7a783          	lw	a5,12(a5)
   12f34:	0ec12023          	sw	a2,224(sp)
   12f38:	0ed12223          	sw	a3,228(sp)
   12f3c:	0ee12423          	sw	a4,232(sp)
   12f40:	0e010513          	addi	a0,sp,224
   12f44:	0ef12623          	sw	a5,236(sp)
   12f48:	0b1040ef          	jal	ra,177f8 <_ldcheck>
   12f4c:	0aa12e23          	sw	a0,188(sp)
   12f50:	00200793          	addi	a5,zero,2
   12f54:	0af51e63          	bne	a0,a5,13010 <_vfprintf_r+0x898>
   12f58:	0e012783          	lw	a5,224(sp)
   12f5c:	09010593          	addi	a1,sp,144
   12f60:	0a010513          	addi	a0,sp,160
   12f64:	0af12023          	sw	a5,160(sp)
   12f68:	0e412783          	lw	a5,228(sp)
   12f6c:	08012823          	sw	zero,144(sp)
   12f70:	08012a23          	sw	zero,148(sp)
   12f74:	0af12223          	sw	a5,164(sp)
   12f78:	0e812783          	lw	a5,232(sp)
   12f7c:	08012c23          	sw	zero,152(sp)
   12f80:	08012e23          	sw	zero,156(sp)
   12f84:	0af12423          	sw	a5,168(sp)
   12f88:	0ec12783          	lw	a5,236(sp)
   12f8c:	0af12623          	sw	a5,172(sp)
   12f90:	5450c0ef          	jal	ra,1fcd4 <__letf2>
   12f94:	00055663          	bge	a0,zero,12fa0 <_vfprintf_r+0x828>
   12f98:	02d00793          	addi	a5,zero,45
   12f9c:	0af10ba3          	sb	a5,183(sp)
   12fa0:	04700793          	addi	a5,zero,71
   12fa4:	0767d063          	bge	a5,s6,13004 <_vfprintf_r+0x88c>
   12fa8:	000234b7          	lui	s1,0x23
   12fac:	5cc48493          	addi	s1,s1,1484 # 235cc <zeroes.4514+0x14>
   12fb0:	f7f47413          	andi	s0,s0,-129
   12fb4:	00012623          	sw	zero,12(sp)
   12fb8:	00300d13          	addi	s10,zero,3
   12fbc:	00000713          	addi	a4,zero,0
   12fc0:	3110006f          	jal	zero,13ad0 <_vfprintf_r+0x1358>
   12fc4:	007a8a93          	addi	s5,s5,7
   12fc8:	ff8afa93          	andi	s5,s5,-8
   12fcc:	000aa583          	lw	a1,0(s5)
   12fd0:	004aa603          	lw	a2,4(s5)
   12fd4:	008a8793          	addi	a5,s5,8
   12fd8:	0a010513          	addi	a0,sp,160
   12fdc:	00f12c23          	sw	a5,24(sp)
   12fe0:	2190f0ef          	jal	ra,229f8 <__extenddftf2>
   12fe4:	0a012783          	lw	a5,160(sp)
   12fe8:	0ef12023          	sw	a5,224(sp)
   12fec:	0a412783          	lw	a5,164(sp)
   12ff0:	0ef12223          	sw	a5,228(sp)
   12ff4:	0a812783          	lw	a5,168(sp)
   12ff8:	0ef12423          	sw	a5,232(sp)
   12ffc:	0ac12783          	lw	a5,172(sp)
   13000:	f41ff06f          	jal	zero,12f40 <_vfprintf_r+0x7c8>
   13004:	000234b7          	lui	s1,0x23
   13008:	5c848493          	addi	s1,s1,1480 # 235c8 <zeroes.4514+0x10>
   1300c:	fa5ff06f          	jal	zero,12fb0 <_vfprintf_r+0x838>
   13010:	00100793          	addi	a5,zero,1
   13014:	02f51a63          	bne	a0,a5,13048 <_vfprintf_r+0x8d0>
   13018:	0ec12783          	lw	a5,236(sp)
   1301c:	0007d663          	bge	a5,zero,13028 <_vfprintf_r+0x8b0>
   13020:	02d00793          	addi	a5,zero,45
   13024:	0af10ba3          	sb	a5,183(sp)
   13028:	04700793          	addi	a5,zero,71
   1302c:	0167d863          	bge	a5,s6,1303c <_vfprintf_r+0x8c4>
   13030:	000234b7          	lui	s1,0x23
   13034:	5d448493          	addi	s1,s1,1492 # 235d4 <zeroes.4514+0x1c>
   13038:	f79ff06f          	jal	zero,12fb0 <_vfprintf_r+0x838>
   1303c:	000234b7          	lui	s1,0x23
   13040:	5d048493          	addi	s1,s1,1488 # 235d0 <zeroes.4514+0x18>
   13044:	f6dff06f          	jal	zero,12fb0 <_vfprintf_r+0x838>
   13048:	fdfb7c13          	andi	s8,s6,-33
   1304c:	04100793          	addi	a5,zero,65
   13050:	04fc1e63          	bne	s8,a5,130ac <_vfprintf_r+0x934>
   13054:	03000793          	addi	a5,zero,48
   13058:	0af10c23          	sb	a5,184(sp)
   1305c:	06100713          	addi	a4,zero,97
   13060:	07800793          	addi	a5,zero,120
   13064:	00eb0463          	beq	s6,a4,1306c <_vfprintf_r+0x8f4>
   13068:	05800793          	addi	a5,zero,88
   1306c:	0af10ca3          	sb	a5,185(sp)
   13070:	06300793          	addi	a5,zero,99
   13074:	00246413          	ori	s0,s0,2
   13078:	4ba7d463          	bge	a5,s10,13520 <_vfprintf_r+0xda8>
   1307c:	001d0593          	addi	a1,s10,1
   13080:	00098513          	addi	a0,s3,0
   13084:	259040ef          	jal	ra,17adc <_malloc_r>
   13088:	00050493          	addi	s1,a0,0
   1308c:	4a051063          	bne	a0,zero,1352c <_vfprintf_r+0xdb4>
   13090:	00c95783          	lhu	a5,12(s2)
   13094:	0407e793          	ori	a5,a5,64
   13098:	00f91623          	sh	a5,12(s2)
   1309c:	00c95783          	lhu	a5,12(s2)
   130a0:	0407f793          	andi	a5,a5,64
   130a4:	fe078263          	beq	a5,zero,12888 <_vfprintf_r+0x110>
   130a8:	fd8ff06f          	jal	zero,12880 <_vfprintf_r+0x108>
   130ac:	fff00793          	addi	a5,zero,-1
   130b0:	48fd0263          	beq	s10,a5,13534 <_vfprintf_r+0xdbc>
   130b4:	04700793          	addi	a5,zero,71
   130b8:	00012623          	sw	zero,12(sp)
   130bc:	00fc1863          	bne	s8,a5,130cc <_vfprintf_r+0x954>
   130c0:	000d1663          	bne	s10,zero,130cc <_vfprintf_r+0x954>
   130c4:	01a12623          	sw	s10,12(sp)
   130c8:	00100d13          	addi	s10,zero,1
   130cc:	0ec12a03          	lw	s4,236(sp)
   130d0:	10046793          	ori	a5,s0,256
   130d4:	02f12623          	sw	a5,44(sp)
   130d8:	04012223          	sw	zero,68(sp)
   130dc:	0e012e83          	lw	t4,224(sp)
   130e0:	0e412e03          	lw	t3,228(sp)
   130e4:	0e812d83          	lw	s11,232(sp)
   130e8:	000a5a63          	bge	s4,zero,130fc <_vfprintf_r+0x984>
   130ec:	800007b7          	lui	a5,0x80000
   130f0:	0147ca33          	xor	s4,a5,s4
   130f4:	02d00793          	addi	a5,zero,45
   130f8:	04f12223          	sw	a5,68(sp)
   130fc:	04100793          	addi	a5,zero,65
   13100:	48fc1463          	bne	s8,a5,13588 <_vfprintf_r+0xe10>
   13104:	0a010513          	addi	a0,sp,160
   13108:	0bd12023          	sw	t4,160(sp)
   1310c:	0bc12223          	sw	t3,164(sp)
   13110:	0bb12423          	sw	s11,168(sp)
   13114:	0b412623          	sw	s4,172(sp)
   13118:	2e90f0ef          	jal	ra,22c00 <__trunctfdf2>
   1311c:	0bc10613          	addi	a2,sp,188
   13120:	5d4060ef          	jal	ra,196f4 <frexp>
   13124:	00058613          	addi	a2,a1,0
   13128:	00050593          	addi	a1,a0,0
   1312c:	0a010513          	addi	a0,sp,160
   13130:	0c90f0ef          	jal	ra,229f8 <__extenddftf2>
   13134:	0a012783          	lw	a5,160(sp)
   13138:	07010613          	addi	a2,sp,112
   1313c:	08010593          	addi	a1,sp,128
   13140:	08f12023          	sw	a5,128(sp)
   13144:	0a412783          	lw	a5,164(sp)
   13148:	09010513          	addi	a0,sp,144
   1314c:	06012823          	sw	zero,112(sp)
   13150:	08f12223          	sw	a5,132(sp)
   13154:	0a812783          	lw	a5,168(sp)
   13158:	06012a23          	sw	zero,116(sp)
   1315c:	06012c23          	sw	zero,120(sp)
   13160:	08f12423          	sw	a5,136(sp)
   13164:	0ac12783          	lw	a5,172(sp)
   13168:	08f12623          	sw	a5,140(sp)
   1316c:	3ffc07b7          	lui	a5,0x3ffc0
   13170:	06f12e23          	sw	a5,124(sp)
   13174:	4a90c0ef          	jal	ra,1fe1c <__multf3>
   13178:	09012803          	lw	a6,144(sp)
   1317c:	09412603          	lw	a2,148(sp)
   13180:	09812683          	lw	a3,152(sp)
   13184:	09c12d83          	lw	s11,156(sp)
   13188:	09010593          	addi	a1,sp,144
   1318c:	0a010513          	addi	a0,sp,160
   13190:	0b012023          	sw	a6,160(sp)
   13194:	05012a23          	sw	a6,84(sp)
   13198:	0ac12223          	sw	a2,164(sp)
   1319c:	04c12823          	sw	a2,80(sp)
   131a0:	0ad12423          	sw	a3,168(sp)
   131a4:	04d12423          	sw	a3,72(sp)
   131a8:	0bb12623          	sw	s11,172(sp)
   131ac:	08012823          	sw	zero,144(sp)
   131b0:	08012a23          	sw	zero,148(sp)
   131b4:	08012c23          	sw	zero,152(sp)
   131b8:	08012e23          	sw	zero,156(sp)
   131bc:	1050c0ef          	jal	ra,1fac0 <__eqtf2>
   131c0:	04812683          	lw	a3,72(sp)
   131c4:	05012603          	lw	a2,80(sp)
   131c8:	05412803          	lw	a6,84(sp)
   131cc:	00051663          	bne	a0,zero,131d8 <_vfprintf_r+0xa60>
   131d0:	00100793          	addi	a5,zero,1
   131d4:	0af12e23          	sw	a5,188(sp)
   131d8:	06100793          	addi	a5,zero,97
   131dc:	36fb0263          	beq	s6,a5,13540 <_vfprintf_r+0xdc8>
   131e0:	00023a37          	lui	s4,0x23
   131e4:	5eca0a13          	addi	s4,s4,1516 # 235ec <zeroes.4514+0x34>
   131e8:	fffd0e13          	addi	t3,s10,-1
   131ec:	00048c93          	addi	s9,s1,0
   131f0:	400307b7          	lui	a5,0x40030
   131f4:	09010593          	addi	a1,sp,144
   131f8:	08c12a23          	sw	a2,148(sp)
   131fc:	0a010513          	addi	a0,sp,160
   13200:	08010613          	addi	a2,sp,128
   13204:	05c12c23          	sw	t3,88(sp)
   13208:	08f12623          	sw	a5,140(sp)
   1320c:	09012823          	sw	a6,144(sp)
   13210:	08d12c23          	sw	a3,152(sp)
   13214:	09b12e23          	sw	s11,156(sp)
   13218:	08012023          	sw	zero,128(sp)
   1321c:	08012223          	sw	zero,132(sp)
   13220:	08012423          	sw	zero,136(sp)
   13224:	3f90c0ef          	jal	ra,1fe1c <__multf3>
   13228:	0a012603          	lw	a2,160(sp)
   1322c:	0a412683          	lw	a3,164(sp)
   13230:	0a812703          	lw	a4,168(sp)
   13234:	0a010513          	addi	a0,sp,160
   13238:	04c12a23          	sw	a2,84(sp)
   1323c:	04d12823          	sw	a3,80(sp)
   13240:	04e12423          	sw	a4,72(sp)
   13244:	4d80f0ef          	jal	ra,2271c <__fixtfsi>
   13248:	00050593          	addi	a1,a0,0
   1324c:	00050a93          	addi	s5,a0,0
   13250:	0a010513          	addi	a0,sp,160
   13254:	0ac12d83          	lw	s11,172(sp)
   13258:	6140f0ef          	jal	ra,2286c <__floatsitf>
   1325c:	04812703          	lw	a4,72(sp)
   13260:	05412603          	lw	a2,84(sp)
   13264:	05012683          	lw	a3,80(sp)
   13268:	08e12423          	sw	a4,136(sp)
   1326c:	0a012703          	lw	a4,160(sp)
   13270:	08c12023          	sw	a2,128(sp)
   13274:	08010593          	addi	a1,sp,128
   13278:	06e12823          	sw	a4,112(sp)
   1327c:	0a412703          	lw	a4,164(sp)
   13280:	07010613          	addi	a2,sp,112
   13284:	09010513          	addi	a0,sp,144
   13288:	06e12a23          	sw	a4,116(sp)
   1328c:	0a812703          	lw	a4,168(sp)
   13290:	09b12623          	sw	s11,140(sp)
   13294:	08d12223          	sw	a3,132(sp)
   13298:	06e12c23          	sw	a4,120(sp)
   1329c:	0ac12703          	lw	a4,172(sp)
   132a0:	001c8c93          	addi	s9,s9,1
   132a4:	06e12e23          	sw	a4,124(sp)
   132a8:	6dd0d0ef          	jal	ra,21184 <__subtf3>
   132ac:	015a05b3          	add	a1,s4,s5
   132b0:	0005c583          	lbu	a1,0(a1)
   132b4:	05812e03          	lw	t3,88(sp)
   132b8:	09c12e83          	lw	t4,156(sp)
   132bc:	09012283          	lw	t0,144(sp)
   132c0:	09412f83          	lw	t6,148(sp)
   132c4:	09812f03          	lw	t5,152(sp)
   132c8:	05c12423          	sw	t3,72(sp)
   132cc:	febc8fa3          	sb	a1,-1(s9)
   132d0:	fff00793          	addi	a5,zero,-1
   132d4:	000e8d93          	addi	s11,t4,0
   132d8:	06fe0c63          	beq	t3,a5,13350 <_vfprintf_r+0xbd8>
   132dc:	fffe0e13          	addi	t3,t3,-1
   132e0:	09010593          	addi	a1,sp,144
   132e4:	0a010513          	addi	a0,sp,160
   132e8:	07d12623          	sw	t4,108(sp)
   132ec:	07e12423          	sw	t5,104(sp)
   132f0:	07f12223          	sw	t6,100(sp)
   132f4:	06512023          	sw	t0,96(sp)
   132f8:	05c12e23          	sw	t3,92(sp)
   132fc:	0a512023          	sw	t0,160(sp)
   13300:	04512c23          	sw	t0,88(sp)
   13304:	0bf12223          	sw	t6,164(sp)
   13308:	05f12a23          	sw	t6,84(sp)
   1330c:	0be12423          	sw	t5,168(sp)
   13310:	05e12823          	sw	t5,80(sp)
   13314:	0bd12623          	sw	t4,172(sp)
   13318:	08012823          	sw	zero,144(sp)
   1331c:	08012a23          	sw	zero,148(sp)
   13320:	08012c23          	sw	zero,152(sp)
   13324:	08012e23          	sw	zero,156(sp)
   13328:	7980c0ef          	jal	ra,1fac0 <__eqtf2>
   1332c:	05012683          	lw	a3,80(sp)
   13330:	05412603          	lw	a2,84(sp)
   13334:	05812803          	lw	a6,88(sp)
   13338:	05c12e03          	lw	t3,92(sp)
   1333c:	06012283          	lw	t0,96(sp)
   13340:	06412f83          	lw	t6,100(sp)
   13344:	06812f03          	lw	t5,104(sp)
   13348:	06c12e83          	lw	t4,108(sp)
   1334c:	ea0512e3          	bne	a0,zero,131f0 <_vfprintf_r+0xa78>
   13350:	3ffe0db7          	lui	s11,0x3ffe0
   13354:	09010593          	addi	a1,sp,144
   13358:	0a010513          	addi	a0,sp,160
   1335c:	0a512023          	sw	t0,160(sp)
   13360:	04512e23          	sw	t0,92(sp)
   13364:	0bf12223          	sw	t6,164(sp)
   13368:	05f12c23          	sw	t6,88(sp)
   1336c:	0be12423          	sw	t5,168(sp)
   13370:	05e12a23          	sw	t5,84(sp)
   13374:	0bd12623          	sw	t4,172(sp)
   13378:	05d12823          	sw	t4,80(sp)
   1337c:	08012823          	sw	zero,144(sp)
   13380:	08012a23          	sw	zero,148(sp)
   13384:	08012c23          	sw	zero,152(sp)
   13388:	09b12e23          	sw	s11,156(sp)
   1338c:	0010c0ef          	jal	ra,1fb8c <__getf2>
   13390:	04a04663          	blt	zero,a0,133dc <_vfprintf_r+0xc64>
   13394:	05c12283          	lw	t0,92(sp)
   13398:	05812f83          	lw	t6,88(sp)
   1339c:	05412f03          	lw	t5,84(sp)
   133a0:	05012e83          	lw	t4,80(sp)
   133a4:	09010593          	addi	a1,sp,144
   133a8:	0a010513          	addi	a0,sp,160
   133ac:	0a512023          	sw	t0,160(sp)
   133b0:	0bf12223          	sw	t6,164(sp)
   133b4:	0be12423          	sw	t5,168(sp)
   133b8:	0bd12623          	sw	t4,172(sp)
   133bc:	08012823          	sw	zero,144(sp)
   133c0:	08012a23          	sw	zero,148(sp)
   133c4:	08012c23          	sw	zero,152(sp)
   133c8:	09b12e23          	sw	s11,156(sp)
   133cc:	6f40c0ef          	jal	ra,1fac0 <__eqtf2>
   133d0:	1a051263          	bne	a0,zero,13574 <_vfprintf_r+0xdfc>
   133d4:	001afa93          	andi	s5,s5,1
   133d8:	180a8e63          	beq	s5,zero,13574 <_vfprintf_r+0xdfc>
   133dc:	00fa4603          	lbu	a2,15(s4)
   133e0:	0d912623          	sw	s9,204(sp)
   133e4:	03000593          	addi	a1,zero,48
   133e8:	0cc12683          	lw	a3,204(sp)
   133ec:	fff68713          	addi	a4,a3,-1
   133f0:	0ce12623          	sw	a4,204(sp)
   133f4:	fff6c703          	lbu	a4,-1(a3)
   133f8:	14c70a63          	beq	a4,a2,1354c <_vfprintf_r+0xdd4>
   133fc:	03900613          	addi	a2,zero,57
   13400:	14c71a63          	bne	a4,a2,13554 <_vfprintf_r+0xddc>
   13404:	00aa4703          	lbu	a4,10(s4)
   13408:	fee68fa3          	sb	a4,-1(a3)
   1340c:	000c8a13          	addi	s4,s9,0
   13410:	04700713          	addi	a4,zero,71
   13414:	409a0a33          	sub	s4,s4,s1
   13418:	0bc12d83          	lw	s11,188(sp)
   1341c:	2aec1663          	bne	s8,a4,136c8 <_vfprintf_r+0xf50>
   13420:	ffd00713          	addi	a4,zero,-3
   13424:	00edc463          	blt	s11,a4,1342c <_vfprintf_r+0xcb4>
   13428:	33bd5063          	bge	s10,s11,13748 <_vfprintf_r+0xfd0>
   1342c:	ffeb0b13          	addi	s6,s6,-2
   13430:	fffd8a93          	addi	s5,s11,-1 # 3ffdffff <__BSS_END__+0x3ffba407>
   13434:	0b512e23          	sw	s5,188(sp)
   13438:	fdfb7693          	andi	a3,s6,-33
   1343c:	04100593          	addi	a1,zero,65
   13440:	0ffb7713          	andi	a4,s6,255
   13444:	00000613          	addi	a2,zero,0
   13448:	00b69863          	bne	a3,a1,13458 <_vfprintf_r+0xce0>
   1344c:	00f70713          	addi	a4,a4,15
   13450:	0ff77713          	andi	a4,a4,255
   13454:	00100613          	addi	a2,zero,1
   13458:	0ce10223          	sb	a4,196(sp)
   1345c:	02b00793          	addi	a5,zero,43
   13460:	000ad863          	bge	s5,zero,13470 <_vfprintf_r+0xcf8>
   13464:	00100a93          	addi	s5,zero,1
   13468:	41ba8ab3          	sub	s5,s5,s11
   1346c:	02d00793          	addi	a5,zero,45
   13470:	0cf102a3          	sb	a5,197(sp)
   13474:	00900793          	addi	a5,zero,9
   13478:	2957de63          	bge	a5,s5,13714 <_vfprintf_r+0xf9c>
   1347c:	0d310c13          	addi	s8,sp,211
   13480:	000c0d93          	addi	s11,s8,0
   13484:	06300d13          	addi	s10,zero,99
   13488:	00a00593          	addi	a1,zero,10
   1348c:	000a8513          	addi	a0,s5,0
   13490:	34d0f0ef          	jal	ra,22fdc <__modsi3>
   13494:	03050513          	addi	a0,a0,48
   13498:	feac0fa3          	sb	a0,-1(s8)
   1349c:	00a00593          	addi	a1,zero,10
   134a0:	000a8513          	addi	a0,s5,0
   134a4:	fffc0c93          	addi	s9,s8,-1
   134a8:	2b10f0ef          	jal	ra,22f58 <__divsi3>
   134ac:	255d4463          	blt	s10,s5,136f4 <_vfprintf_r+0xf7c>
   134b0:	03050513          	addi	a0,a0,48
   134b4:	ffec0c13          	addi	s8,s8,-2
   134b8:	feac8fa3          	sb	a0,-1(s9)
   134bc:	0c610793          	addi	a5,sp,198
   134c0:	25bc6063          	bltu	s8,s11,13700 <_vfprintf_r+0xf88>
   134c4:	0c410713          	addi	a4,sp,196
   134c8:	40e787b3          	sub	a5,a5,a4
   134cc:	02f12e23          	sw	a5,60(sp)
   134d0:	01478d33          	add	s10,a5,s4
   134d4:	00100793          	addi	a5,zero,1
   134d8:	0147c663          	blt	a5,s4,134e4 <_vfprintf_r+0xd6c>
   134dc:	00147793          	andi	a5,s0,1
   134e0:	00078663          	beq	a5,zero,134ec <_vfprintf_r+0xd74>
   134e4:	02012783          	lw	a5,32(sp)
   134e8:	00fd0d33          	add	s10,s10,a5
   134ec:	bff47413          	andi	s0,s0,-1025
   134f0:	10046793          	ori	a5,s0,256
   134f4:	02f12623          	sw	a5,44(sp)
   134f8:	00000c93          	addi	s9,zero,0
   134fc:	00000c13          	addi	s8,zero,0
   13500:	00000d93          	addi	s11,zero,0
   13504:	04412783          	lw	a5,68(sp)
   13508:	00078663          	beq	a5,zero,13514 <_vfprintf_r+0xd9c>
   1350c:	02d00713          	addi	a4,zero,45
   13510:	0ae10ba3          	sb	a4,183(sp)
   13514:	02c12403          	lw	s0,44(sp)
   13518:	00000713          	addi	a4,zero,0
   1351c:	e88ff06f          	jal	zero,12ba4 <_vfprintf_r+0x42c>
   13520:	00012623          	sw	zero,12(sp)
   13524:	13c10493          	addi	s1,sp,316
   13528:	ba5ff06f          	jal	zero,130cc <_vfprintf_r+0x954>
   1352c:	00a12623          	sw	a0,12(sp)
   13530:	b9dff06f          	jal	zero,130cc <_vfprintf_r+0x954>
   13534:	00012623          	sw	zero,12(sp)
   13538:	00600d13          	addi	s10,zero,6
   1353c:	b91ff06f          	jal	zero,130cc <_vfprintf_r+0x954>
   13540:	00023a37          	lui	s4,0x23
   13544:	5d8a0a13          	addi	s4,s4,1496 # 235d8 <zeroes.4514+0x20>
   13548:	ca1ff06f          	jal	zero,131e8 <_vfprintf_r+0xa70>
   1354c:	feb68fa3          	sb	a1,-1(a3)
   13550:	e99ff06f          	jal	zero,133e8 <_vfprintf_r+0xc70>
   13554:	00170713          	addi	a4,a4,1
   13558:	0ff77713          	andi	a4,a4,255
   1355c:	eadff06f          	jal	zero,13408 <_vfprintf_r+0xc90>
   13560:	001a0a13          	addi	s4,s4,1
   13564:	feea0fa3          	sb	a4,-1(s4)
   13568:	414c87b3          	sub	a5,s9,s4
   1356c:	fe07dae3          	bge	a5,zero,13560 <_vfprintf_r+0xde8>
   13570:	ea1ff06f          	jal	zero,13410 <_vfprintf_r+0xc98>
   13574:	04812783          	lw	a5,72(sp)
   13578:	000c8a13          	addi	s4,s9,0
   1357c:	03000713          	addi	a4,zero,48
   13580:	00fc8cb3          	add	s9,s9,a5
   13584:	fe5ff06f          	jal	zero,13568 <_vfprintf_r+0xdf0>
   13588:	04600793          	addi	a5,zero,70
   1358c:	00fc0e63          	beq	s8,a5,135a8 <_vfprintf_r+0xe30>
   13590:	04500793          	addi	a5,zero,69
   13594:	001d0a93          	addi	s5,s10,1
   13598:	00fc0463          	beq	s8,a5,135a0 <_vfprintf_r+0xe28>
   1359c:	000d0a93          	addi	s5,s10,0
   135a0:	00200613          	addi	a2,zero,2
   135a4:	00c0006f          	jal	zero,135b0 <_vfprintf_r+0xe38>
   135a8:	000d0a93          	addi	s5,s10,0
   135ac:	00300613          	addi	a2,zero,3
   135b0:	0c010793          	addi	a5,sp,192
   135b4:	0cc10813          	addi	a6,sp,204
   135b8:	0bc10713          	addi	a4,sp,188
   135bc:	000a8693          	addi	a3,s5,0
   135c0:	0a010593          	addi	a1,sp,160
   135c4:	00098513          	addi	a0,s3,0
   135c8:	0bd12023          	sw	t4,160(sp)
   135cc:	05d12823          	sw	t4,80(sp)
   135d0:	0bc12223          	sw	t3,164(sp)
   135d4:	05c12423          	sw	t3,72(sp)
   135d8:	0bb12423          	sw	s11,168(sp)
   135dc:	0b412623          	sw	s4,172(sp)
   135e0:	628030ef          	jal	ra,16c08 <_ldtoa_r>
   135e4:	04700793          	addi	a5,zero,71
   135e8:	00050493          	addi	s1,a0,0
   135ec:	04812e03          	lw	t3,72(sp)
   135f0:	05012e83          	lw	t4,80(sp)
   135f4:	00fc1a63          	bne	s8,a5,13608 <_vfprintf_r+0xe90>
   135f8:	00147793          	andi	a5,s0,1
   135fc:	00079663          	bne	a5,zero,13608 <_vfprintf_r+0xe90>
   13600:	0cc12a03          	lw	s4,204(sp)
   13604:	e0dff06f          	jal	zero,13410 <_vfprintf_r+0xc98>
   13608:	04600793          	addi	a5,zero,70
   1360c:	01548cb3          	add	s9,s1,s5
   13610:	06fc1263          	bne	s8,a5,13674 <_vfprintf_r+0xefc>
   13614:	0004c703          	lbu	a4,0(s1)
   13618:	03000793          	addi	a5,zero,48
   1361c:	04f71863          	bne	a4,a5,1366c <_vfprintf_r+0xef4>
   13620:	09010593          	addi	a1,sp,144
   13624:	0a010513          	addi	a0,sp,160
   13628:	0bd12023          	sw	t4,160(sp)
   1362c:	05d12823          	sw	t4,80(sp)
   13630:	0bc12223          	sw	t3,164(sp)
   13634:	05c12423          	sw	t3,72(sp)
   13638:	0bb12423          	sw	s11,168(sp)
   1363c:	0b412623          	sw	s4,172(sp)
   13640:	08012823          	sw	zero,144(sp)
   13644:	08012a23          	sw	zero,148(sp)
   13648:	08012c23          	sw	zero,152(sp)
   1364c:	08012e23          	sw	zero,156(sp)
   13650:	4700c0ef          	jal	ra,1fac0 <__eqtf2>
   13654:	04812e03          	lw	t3,72(sp)
   13658:	05012e83          	lw	t4,80(sp)
   1365c:	00050863          	beq	a0,zero,1366c <_vfprintf_r+0xef4>
   13660:	00100793          	addi	a5,zero,1
   13664:	41578ab3          	sub	s5,a5,s5
   13668:	0b512e23          	sw	s5,188(sp)
   1366c:	0bc12783          	lw	a5,188(sp)
   13670:	00fc8cb3          	add	s9,s9,a5
   13674:	09010593          	addi	a1,sp,144
   13678:	0a010513          	addi	a0,sp,160
   1367c:	0bd12023          	sw	t4,160(sp)
   13680:	0bc12223          	sw	t3,164(sp)
   13684:	0bb12423          	sw	s11,168(sp)
   13688:	0b412623          	sw	s4,172(sp)
   1368c:	08012823          	sw	zero,144(sp)
   13690:	08012a23          	sw	zero,148(sp)
   13694:	08012c23          	sw	zero,152(sp)
   13698:	08012e23          	sw	zero,156(sp)
   1369c:	4240c0ef          	jal	ra,1fac0 <__eqtf2>
   136a0:	00051463          	bne	a0,zero,136a8 <_vfprintf_r+0xf30>
   136a4:	0d912623          	sw	s9,204(sp)
   136a8:	03000713          	addi	a4,zero,48
   136ac:	0100006f          	jal	zero,136bc <_vfprintf_r+0xf44>
   136b0:	00178693          	addi	a3,a5,1 # 40030001 <__BSS_END__+0x4000a409>
   136b4:	0cd12623          	sw	a3,204(sp)
   136b8:	00e78023          	sb	a4,0(a5)
   136bc:	0cc12783          	lw	a5,204(sp)
   136c0:	ff97e8e3          	bltu	a5,s9,136b0 <_vfprintf_r+0xf38>
   136c4:	f3dff06f          	jal	zero,13600 <_vfprintf_r+0xe88>
   136c8:	04600713          	addi	a4,zero,70
   136cc:	d6ec12e3          	bne	s8,a4,13430 <_vfprintf_r+0xcb8>
   136d0:	00147713          	andi	a4,s0,1
   136d4:	01a76733          	or	a4,a4,s10
   136d8:	07b05063          	bge	zero,s11,13738 <_vfprintf_r+0xfc0>
   136dc:	0c070063          	beq	a4,zero,1379c <_vfprintf_r+0x1024>
   136e0:	02012783          	lw	a5,32(sp)
   136e4:	00fd8733          	add	a4,s11,a5
   136e8:	00ed0d33          	add	s10,s10,a4
   136ec:	06600b13          	addi	s6,zero,102
   136f0:	0900006f          	jal	zero,13780 <_vfprintf_r+0x1008>
   136f4:	000c8c13          	addi	s8,s9,0
   136f8:	00050a93          	addi	s5,a0,0
   136fc:	d8dff06f          	jal	zero,13488 <_vfprintf_r+0xd10>
   13700:	001c0c13          	addi	s8,s8,1
   13704:	fffc4703          	lbu	a4,-1(s8)
   13708:	00178793          	addi	a5,a5,1
   1370c:	fee78fa3          	sb	a4,-1(a5)
   13710:	db1ff06f          	jal	zero,134c0 <_vfprintf_r+0xd48>
   13714:	0c610713          	addi	a4,sp,198
   13718:	00061863          	bne	a2,zero,13728 <_vfprintf_r+0xfb0>
   1371c:	03000793          	addi	a5,zero,48
   13720:	0cf10323          	sb	a5,198(sp)
   13724:	0c710713          	addi	a4,sp,199
   13728:	030a8a93          	addi	s5,s5,48
   1372c:	00170793          	addi	a5,a4,1
   13730:	01570023          	sb	s5,0(a4)
   13734:	d91ff06f          	jal	zero,134c4 <_vfprintf_r+0xd4c>
   13738:	06070663          	beq	a4,zero,137a4 <_vfprintf_r+0x102c>
   1373c:	02012783          	lw	a5,32(sp)
   13740:	00178713          	addi	a4,a5,1
   13744:	fa5ff06f          	jal	zero,136e8 <_vfprintf_r+0xf70>
   13748:	034dc063          	blt	s11,s4,13768 <_vfprintf_r+0xff0>
   1374c:	00147713          	andi	a4,s0,1
   13750:	000d8d13          	addi	s10,s11,0
   13754:	00070663          	beq	a4,zero,13760 <_vfprintf_r+0xfe8>
   13758:	02012783          	lw	a5,32(sp)
   1375c:	00fd8d33          	add	s10,s11,a5
   13760:	06700b13          	addi	s6,zero,103
   13764:	01c0006f          	jal	zero,13780 <_vfprintf_r+0x1008>
   13768:	02012783          	lw	a5,32(sp)
   1376c:	06700b13          	addi	s6,zero,103
   13770:	00fa0d33          	add	s10,s4,a5
   13774:	01b04663          	blt	zero,s11,13780 <_vfprintf_r+0x1008>
   13778:	41bd0333          	sub	t1,s10,s11
   1377c:	00130d13          	addi	s10,t1,1
   13780:	40047c13          	andi	s8,s0,1024
   13784:	00000c93          	addi	s9,zero,0
   13788:	d60c0ee3          	beq	s8,zero,13504 <_vfprintf_r+0xd8c>
   1378c:	00000c13          	addi	s8,zero,0
   13790:	d7b05ae3          	bge	zero,s11,13504 <_vfprintf_r+0xd8c>
   13794:	0ff00693          	addi	a3,zero,255
   13798:	0380006f          	jal	zero,137d0 <_vfprintf_r+0x1058>
   1379c:	000d8d13          	addi	s10,s11,0
   137a0:	f4dff06f          	jal	zero,136ec <_vfprintf_r+0xf74>
   137a4:	06600b13          	addi	s6,zero,102
   137a8:	00100d13          	addi	s10,zero,1
   137ac:	fd5ff06f          	jal	zero,13780 <_vfprintf_r+0x1008>
   137b0:	03b75663          	bge	a4,s11,137dc <_vfprintf_r+0x1064>
   137b4:	01012783          	lw	a5,16(sp)
   137b8:	40ed8db3          	sub	s11,s11,a4
   137bc:	0017c703          	lbu	a4,1(a5)
   137c0:	02070863          	beq	a4,zero,137f0 <_vfprintf_r+0x1078>
   137c4:	00178793          	addi	a5,a5,1
   137c8:	001c0c13          	addi	s8,s8,1
   137cc:	00f12823          	sw	a5,16(sp)
   137d0:	01012783          	lw	a5,16(sp)
   137d4:	0007c703          	lbu	a4,0(a5)
   137d8:	fcd71ce3          	bne	a4,a3,137b0 <_vfprintf_r+0x1038>
   137dc:	03012583          	lw	a1,48(sp)
   137e0:	019c0533          	add	a0,s8,s9
   137e4:	7500f0ef          	jal	ra,22f34 <__mulsi3>
   137e8:	01a50d33          	add	s10,a0,s10
   137ec:	d19ff06f          	jal	zero,13504 <_vfprintf_r+0xd8c>
   137f0:	001c8c93          	addi	s9,s9,1
   137f4:	fddff06f          	jal	zero,137d0 <_vfprintf_r+0x1058>
   137f8:	004a8713          	addi	a4,s5,4
   137fc:	00e12c23          	sw	a4,24(sp)
   13800:	02047713          	andi	a4,s0,32
   13804:	000aa783          	lw	a5,0(s5)
   13808:	02070063          	beq	a4,zero,13828 <_vfprintf_r+0x10b0>
   1380c:	02412703          	lw	a4,36(sp)
   13810:	00e7a023          	sw	a4,0(a5)
   13814:	41f75713          	srai	a4,a4,0x1f
   13818:	00e7a223          	sw	a4,4(a5)
   1381c:	01812a83          	lw	s5,24(sp)
   13820:	01c12483          	lw	s1,28(sp)
   13824:	8ecff06f          	jal	zero,12910 <_vfprintf_r+0x198>
   13828:	01047713          	andi	a4,s0,16
   1382c:	00070863          	beq	a4,zero,1383c <_vfprintf_r+0x10c4>
   13830:	02412703          	lw	a4,36(sp)
   13834:	00e7a023          	sw	a4,0(a5)
   13838:	fe5ff06f          	jal	zero,1381c <_vfprintf_r+0x10a4>
   1383c:	04047713          	andi	a4,s0,64
   13840:	00070863          	beq	a4,zero,13850 <_vfprintf_r+0x10d8>
   13844:	02412703          	lw	a4,36(sp)
   13848:	00e79023          	sh	a4,0(a5)
   1384c:	fd1ff06f          	jal	zero,1381c <_vfprintf_r+0x10a4>
   13850:	20047413          	andi	s0,s0,512
   13854:	fc040ee3          	beq	s0,zero,13830 <_vfprintf_r+0x10b8>
   13858:	02412703          	lw	a4,36(sp)
   1385c:	00e78023          	sb	a4,0(a5)
   13860:	fbdff06f          	jal	zero,1381c <_vfprintf_r+0x10a4>
   13864:	01046413          	ori	s0,s0,16
   13868:	02047793          	andi	a5,s0,32
   1386c:	02078663          	beq	a5,zero,13898 <_vfprintf_r+0x1120>
   13870:	007a8a93          	addi	s5,s5,7
   13874:	ff8afa93          	andi	s5,s5,-8
   13878:	000aac83          	lw	s9,0(s5)
   1387c:	004aad83          	lw	s11,4(s5)
   13880:	008a8793          	addi	a5,s5,8
   13884:	00f12c23          	sw	a5,24(sp)
   13888:	bff47413          	andi	s0,s0,-1025
   1388c:	00000793          	addi	a5,zero,0
   13890:	0a010ba3          	sb	zero,183(sp)
   13894:	e0cff06f          	jal	zero,12ea0 <_vfprintf_r+0x728>
   13898:	004a8793          	addi	a5,s5,4
   1389c:	00f12c23          	sw	a5,24(sp)
   138a0:	01047793          	andi	a5,s0,16
   138a4:	00078663          	beq	a5,zero,138b0 <_vfprintf_r+0x1138>
   138a8:	000aac83          	lw	s9,0(s5)
   138ac:	0100006f          	jal	zero,138bc <_vfprintf_r+0x1144>
   138b0:	04047793          	andi	a5,s0,64
   138b4:	00078863          	beq	a5,zero,138c4 <_vfprintf_r+0x114c>
   138b8:	000adc83          	lhu	s9,0(s5)
   138bc:	00000d93          	addi	s11,zero,0
   138c0:	fc9ff06f          	jal	zero,13888 <_vfprintf_r+0x1110>
   138c4:	20047793          	andi	a5,s0,512
   138c8:	fe0780e3          	beq	a5,zero,138a8 <_vfprintf_r+0x1130>
   138cc:	000acc83          	lbu	s9,0(s5)
   138d0:	fedff06f          	jal	zero,138bc <_vfprintf_r+0x1144>
   138d4:	004a8793          	addi	a5,s5,4
   138d8:	00f12c23          	sw	a5,24(sp)
   138dc:	ffff87b7          	lui	a5,0xffff8
   138e0:	8307c793          	xori	a5,a5,-2000
   138e4:	0af11c23          	sh	a5,184(sp)
   138e8:	000237b7          	lui	a5,0x23
   138ec:	5d878793          	addi	a5,a5,1496 # 235d8 <zeroes.4514+0x20>
   138f0:	04f12023          	sw	a5,64(sp)
   138f4:	000aac83          	lw	s9,0(s5)
   138f8:	00000d93          	addi	s11,zero,0
   138fc:	00246413          	ori	s0,s0,2
   13900:	00200793          	addi	a5,zero,2
   13904:	07800b13          	addi	s6,zero,120
   13908:	f89ff06f          	jal	zero,13890 <_vfprintf_r+0x1118>
   1390c:	004a8793          	addi	a5,s5,4
   13910:	00f12c23          	sw	a5,24(sp)
   13914:	0a010ba3          	sb	zero,183(sp)
   13918:	fff00793          	addi	a5,zero,-1
   1391c:	000aa483          	lw	s1,0(s5)
   13920:	02fd0463          	beq	s10,a5,13948 <_vfprintf_r+0x11d0>
   13924:	000d0613          	addi	a2,s10,0
   13928:	00000593          	addi	a1,zero,0
   1392c:	00048513          	addi	a0,s1,0
   13930:	079040ef          	jal	ra,181a8 <memchr>
   13934:	00a12623          	sw	a0,12(sp)
   13938:	e8050263          	beq	a0,zero,12fbc <_vfprintf_r+0x844>
   1393c:	40950d33          	sub	s10,a0,s1
   13940:	00012623          	sw	zero,12(sp)
   13944:	e78ff06f          	jal	zero,12fbc <_vfprintf_r+0x844>
   13948:	00048513          	addi	a0,s1,0
   1394c:	e11fe0ef          	jal	ra,1275c <strlen>
   13950:	00050d13          	addi	s10,a0,0
   13954:	fedff06f          	jal	zero,13940 <_vfprintf_r+0x11c8>
   13958:	01046413          	ori	s0,s0,16
   1395c:	02047793          	andi	a5,s0,32
   13960:	02078263          	beq	a5,zero,13984 <_vfprintf_r+0x120c>
   13964:	007a8a93          	addi	s5,s5,7
   13968:	ff8afa93          	andi	s5,s5,-8
   1396c:	000aac83          	lw	s9,0(s5)
   13970:	004aad83          	lw	s11,4(s5)
   13974:	008a8793          	addi	a5,s5,8
   13978:	00f12c23          	sw	a5,24(sp)
   1397c:	00100793          	addi	a5,zero,1
   13980:	f11ff06f          	jal	zero,13890 <_vfprintf_r+0x1118>
   13984:	004a8793          	addi	a5,s5,4
   13988:	00f12c23          	sw	a5,24(sp)
   1398c:	01047793          	andi	a5,s0,16
   13990:	00078663          	beq	a5,zero,1399c <_vfprintf_r+0x1224>
   13994:	000aac83          	lw	s9,0(s5)
   13998:	0100006f          	jal	zero,139a8 <_vfprintf_r+0x1230>
   1399c:	04047793          	andi	a5,s0,64
   139a0:	00078863          	beq	a5,zero,139b0 <_vfprintf_r+0x1238>
   139a4:	000adc83          	lhu	s9,0(s5)
   139a8:	00000d93          	addi	s11,zero,0
   139ac:	fd1ff06f          	jal	zero,1397c <_vfprintf_r+0x1204>
   139b0:	20047793          	andi	a5,s0,512
   139b4:	fe0780e3          	beq	a5,zero,13994 <_vfprintf_r+0x121c>
   139b8:	000acc83          	lbu	s9,0(s5)
   139bc:	fedff06f          	jal	zero,139a8 <_vfprintf_r+0x1230>
   139c0:	000237b7          	lui	a5,0x23
   139c4:	5ec78793          	addi	a5,a5,1516 # 235ec <zeroes.4514+0x34>
   139c8:	04f12023          	sw	a5,64(sp)
   139cc:	02047793          	andi	a5,s0,32
   139d0:	04078a63          	beq	a5,zero,13a24 <_vfprintf_r+0x12ac>
   139d4:	007a8a93          	addi	s5,s5,7
   139d8:	ff8afa93          	andi	s5,s5,-8
   139dc:	000aac83          	lw	s9,0(s5)
   139e0:	004aad83          	lw	s11,4(s5)
   139e4:	008a8793          	addi	a5,s5,8
   139e8:	00f12c23          	sw	a5,24(sp)
   139ec:	00147793          	andi	a5,s0,1
   139f0:	00078e63          	beq	a5,zero,13a0c <_vfprintf_r+0x1294>
   139f4:	01bce7b3          	or	a5,s9,s11
   139f8:	00078a63          	beq	a5,zero,13a0c <_vfprintf_r+0x1294>
   139fc:	03000793          	addi	a5,zero,48
   13a00:	0af10c23          	sb	a5,184(sp)
   13a04:	0b610ca3          	sb	s6,185(sp)
   13a08:	00246413          	ori	s0,s0,2
   13a0c:	bff47413          	andi	s0,s0,-1025
   13a10:	00200793          	addi	a5,zero,2
   13a14:	e7dff06f          	jal	zero,13890 <_vfprintf_r+0x1118>
   13a18:	000237b7          	lui	a5,0x23
   13a1c:	5d878793          	addi	a5,a5,1496 # 235d8 <zeroes.4514+0x20>
   13a20:	fa9ff06f          	jal	zero,139c8 <_vfprintf_r+0x1250>
   13a24:	004a8793          	addi	a5,s5,4
   13a28:	00f12c23          	sw	a5,24(sp)
   13a2c:	01047793          	andi	a5,s0,16
   13a30:	00078663          	beq	a5,zero,13a3c <_vfprintf_r+0x12c4>
   13a34:	000aac83          	lw	s9,0(s5)
   13a38:	0100006f          	jal	zero,13a48 <_vfprintf_r+0x12d0>
   13a3c:	04047793          	andi	a5,s0,64
   13a40:	00078863          	beq	a5,zero,13a50 <_vfprintf_r+0x12d8>
   13a44:	000adc83          	lhu	s9,0(s5)
   13a48:	00000d93          	addi	s11,zero,0
   13a4c:	fa1ff06f          	jal	zero,139ec <_vfprintf_r+0x1274>
   13a50:	20047793          	andi	a5,s0,512
   13a54:	fe0780e3          	beq	a5,zero,13a34 <_vfprintf_r+0x12bc>
   13a58:	000acc83          	lbu	s9,0(s5)
   13a5c:	fedff06f          	jal	zero,13a48 <_vfprintf_r+0x12d0>
   13a60:	00040713          	addi	a4,s0,0
   13a64:	00100793          	addi	a5,zero,1
   13a68:	c44ff06f          	jal	zero,12eac <_vfprintf_r+0x734>
   13a6c:	00100713          	addi	a4,zero,1
   13a70:	4ae780e3          	beq	a5,a4,14710 <_vfprintf_r+0x1f98>
   13a74:	00200713          	addi	a4,zero,2
   13a78:	12e78a63          	beq	a5,a4,13bac <_vfprintf_r+0x1434>
   13a7c:	1a010793          	addi	a5,sp,416
   13a80:	01dd9693          	slli	a3,s11,0x1d
   13a84:	007cf713          	andi	a4,s9,7
   13a88:	003cdc93          	srli	s9,s9,0x3
   13a8c:	03070713          	addi	a4,a4,48
   13a90:	0196ecb3          	or	s9,a3,s9
   13a94:	003ddd93          	srli	s11,s11,0x3
   13a98:	fee78fa3          	sb	a4,-1(a5)
   13a9c:	01bce6b3          	or	a3,s9,s11
   13aa0:	fff78493          	addi	s1,a5,-1
   13aa4:	02069e63          	bne	a3,zero,13ae0 <_vfprintf_r+0x1368>
   13aa8:	00147693          	andi	a3,s0,1
   13aac:	00068a63          	beq	a3,zero,13ac0 <_vfprintf_r+0x1348>
   13ab0:	03000693          	addi	a3,zero,48
   13ab4:	00d70663          	beq	a4,a3,13ac0 <_vfprintf_r+0x1348>
   13ab8:	fed48fa3          	sb	a3,-1(s1)
   13abc:	ffe78493          	addi	s1,a5,-2
   13ac0:	1a010793          	addi	a5,sp,416
   13ac4:	000d0713          	addi	a4,s10,0
   13ac8:	00012623          	sw	zero,12(sp)
   13acc:	40978d33          	sub	s10,a5,s1
   13ad0:	00000c93          	addi	s9,zero,0
   13ad4:	00000c13          	addi	s8,zero,0
   13ad8:	00000d93          	addi	s11,zero,0
   13adc:	8c8ff06f          	jal	zero,12ba4 <_vfprintf_r+0x42c>
   13ae0:	00048793          	addi	a5,s1,0
   13ae4:	f9dff06f          	jal	zero,13a80 <_vfprintf_r+0x1308>
   13ae8:	40047713          	andi	a4,s0,1024
   13aec:	00000a13          	addi	s4,zero,0
   13af0:	1a010793          	addi	a5,sp,416
   13af4:	00e12623          	sw	a4,12(sp)
   13af8:	0ff00c13          	addi	s8,zero,255
   13afc:	00900a93          	addi	s5,zero,9
   13b00:	00a00613          	addi	a2,zero,10
   13b04:	00000693          	addi	a3,zero,0
   13b08:	000c8513          	addi	a0,s9,0
   13b0c:	000d8593          	addi	a1,s11,0
   13b10:	fff78493          	addi	s1,a5,-1
   13b14:	02f12623          	sw	a5,44(sp)
   13b18:	4750a0ef          	jal	ra,1e78c <__umoddi3>
   13b1c:	02c12783          	lw	a5,44(sp)
   13b20:	03050513          	addi	a0,a0,48
   13b24:	001a0a13          	addi	s4,s4,1
   13b28:	fea78fa3          	sb	a0,-1(a5)
   13b2c:	00c12783          	lw	a5,12(sp)
   13b30:	04078863          	beq	a5,zero,13b80 <_vfprintf_r+0x1408>
   13b34:	01012783          	lw	a5,16(sp)
   13b38:	0007c783          	lbu	a5,0(a5)
   13b3c:	04fa1263          	bne	s4,a5,13b80 <_vfprintf_r+0x1408>
   13b40:	058a0063          	beq	s4,s8,13b80 <_vfprintf_r+0x1408>
   13b44:	000d9463          	bne	s11,zero,13b4c <_vfprintf_r+0x13d4>
   13b48:	039afc63          	bgeu	s5,s9,13b80 <_vfprintf_r+0x1408>
   13b4c:	03012783          	lw	a5,48(sp)
   13b50:	03812583          	lw	a1,56(sp)
   13b54:	00000a13          	addi	s4,zero,0
   13b58:	40f484b3          	sub	s1,s1,a5
   13b5c:	00078613          	addi	a2,a5,0
   13b60:	00048513          	addi	a0,s1,0
   13b64:	7e9050ef          	jal	ra,19b4c <strncpy>
   13b68:	01012783          	lw	a5,16(sp)
   13b6c:	0017c783          	lbu	a5,1(a5)
   13b70:	00078863          	beq	a5,zero,13b80 <_vfprintf_r+0x1408>
   13b74:	01012783          	lw	a5,16(sp)
   13b78:	00178793          	addi	a5,a5,1
   13b7c:	00f12823          	sw	a5,16(sp)
   13b80:	00a00613          	addi	a2,zero,10
   13b84:	00000693          	addi	a3,zero,0
   13b88:	000c8513          	addi	a0,s9,0
   13b8c:	000d8593          	addi	a1,s11,0
   13b90:	6280a0ef          	jal	ra,1e1b8 <__udivdi3>
   13b94:	000d9463          	bne	s11,zero,13b9c <_vfprintf_r+0x1424>
   13b98:	f39af4e3          	bgeu	s5,s9,13ac0 <_vfprintf_r+0x1348>
   13b9c:	00050c93          	addi	s9,a0,0
   13ba0:	00058d93          	addi	s11,a1,0
   13ba4:	00048793          	addi	a5,s1,0
   13ba8:	f59ff06f          	jal	zero,13b00 <_vfprintf_r+0x1388>
   13bac:	1a010493          	addi	s1,sp,416
   13bb0:	04012703          	lw	a4,64(sp)
   13bb4:	00fcf793          	andi	a5,s9,15
   13bb8:	fff48493          	addi	s1,s1,-1
   13bbc:	00f707b3          	add	a5,a4,a5
   13bc0:	0007c783          	lbu	a5,0(a5)
   13bc4:	004cdc93          	srli	s9,s9,0x4
   13bc8:	00f48023          	sb	a5,0(s1)
   13bcc:	01cd9793          	slli	a5,s11,0x1c
   13bd0:	0197ecb3          	or	s9,a5,s9
   13bd4:	004ddd93          	srli	s11,s11,0x4
   13bd8:	01bce7b3          	or	a5,s9,s11
   13bdc:	fc079ae3          	bne	a5,zero,13bb0 <_vfprintf_r+0x1438>
   13be0:	ee1ff06f          	jal	zero,13ac0 <_vfprintf_r+0x1348>
   13be4:	1a010493          	addi	s1,sp,416
   13be8:	ec079ce3          	bne	a5,zero,13ac0 <_vfprintf_r+0x1348>
   13bec:	00177713          	andi	a4,a4,1
   13bf0:	ec0708e3          	beq	a4,zero,13ac0 <_vfprintf_r+0x1348>
   13bf4:	03000793          	addi	a5,zero,48
   13bf8:	18f10fa3          	sb	a5,415(sp)
   13bfc:	3290006f          	jal	zero,14724 <_vfprintf_r+0x1fac>
   13c00:	2e0b04e3          	beq	s6,zero,146e8 <_vfprintf_r+0x1f70>
   13c04:	13610e23          	sb	s6,316(sp)
   13c08:	0a010ba3          	sb	zero,183(sp)
   13c0c:	01512c23          	sw	s5,24(sp)
   13c10:	f79fe06f          	jal	zero,12b88 <_vfprintf_r+0x410>
   13c14:	01058593          	addi	a1,a1,16
   13c18:	01cba223          	sw	t3,4(s7)
   13c1c:	0cb12e23          	sw	a1,220(sp)
   13c20:	0cc12c23          	sw	a2,216(sp)
   13c24:	02cede63          	bge	t4,a2,13c60 <_vfprintf_r+0x14e8>
   13c28:	0d410613          	addi	a2,sp,212
   13c2c:	00090593          	addi	a1,s2,0
   13c30:	00098513          	addi	a0,s3,0
   13c34:	04e12823          	sw	a4,80(sp)
   13c38:	04d12423          	sw	a3,72(sp)
   13c3c:	6a1070ef          	jal	ra,1badc <__sprint_r>
   13c40:	240512e3          	bne	a0,zero,14684 <_vfprintf_r+0x1f0c>
   13c44:	05012703          	lw	a4,80(sp)
   13c48:	04812683          	lw	a3,72(sp)
   13c4c:	000237b7          	lui	a5,0x23
   13c50:	0fc10513          	addi	a0,sp,252
   13c54:	00700e93          	addi	t4,zero,7
   13c58:	5a878813          	addi	a6,a5,1448 # 235a8 <blanks.4513>
   13c5c:	01000e13          	addi	t3,zero,16
   13c60:	ff068693          	addi	a3,a3,-16
   13c64:	00050b93          	addi	s7,a0,0
   13c68:	f9dfe06f          	jal	zero,12c04 <_vfprintf_r+0x48c>
   13c6c:	01060613          	addi	a2,a2,16
   13c70:	010ba223          	sw	a6,4(s7)
   13c74:	0cc12e23          	sw	a2,220(sp)
   13c78:	0cd12c23          	sw	a3,216(sp)
   13c7c:	02de5663          	bge	t3,a3,13ca8 <_vfprintf_r+0x1530>
   13c80:	0d410613          	addi	a2,sp,212
   13c84:	00090593          	addi	a1,s2,0
   13c88:	00098513          	addi	a0,s3,0
   13c8c:	04e12223          	sw	a4,68(sp)
   13c90:	64d070ef          	jal	ra,1badc <__sprint_r>
   13c94:	1e0518e3          	bne	a0,zero,14684 <_vfprintf_r+0x1f0c>
   13c98:	04412703          	lw	a4,68(sp)
   13c9c:	0fc10593          	addi	a1,sp,252
   13ca0:	00700e13          	addi	t3,zero,7
   13ca4:	01000813          	addi	a6,zero,16
   13ca8:	ff0a8a93          	addi	s5,s5,-16
   13cac:	00058b93          	addi	s7,a1,0
   13cb0:	890ff06f          	jal	zero,12d40 <_vfprintf_r+0x5c8>
   13cb4:	01070713          	addi	a4,a4,16
   13cb8:	010ba223          	sw	a6,4(s7)
   13cbc:	0ce12e23          	sw	a4,220(sp)
   13cc0:	0cd12c23          	sw	a3,216(sp)
   13cc4:	02de5263          	bge	t3,a3,13ce8 <_vfprintf_r+0x1570>
   13cc8:	0d410613          	addi	a2,sp,212
   13ccc:	00090593          	addi	a1,s2,0
   13cd0:	00098513          	addi	a0,s3,0
   13cd4:	609070ef          	jal	ra,1badc <__sprint_r>
   13cd8:	1a0516e3          	bne	a0,zero,14684 <_vfprintf_r+0x1f0c>
   13cdc:	0fc10613          	addi	a2,sp,252
   13ce0:	00700e13          	addi	t3,zero,7
   13ce4:	01000813          	addi	a6,zero,16
   13ce8:	ff0a8a93          	addi	s5,s5,-16
   13cec:	00060b93          	addi	s7,a2,0
   13cf0:	8bcff06f          	jal	zero,12dac <_vfprintf_r+0x634>
   13cf4:	06500693          	addi	a3,zero,101
   13cf8:	7366d463          	bge	a3,s6,14420 <_vfprintf_r+0x1ca8>
   13cfc:	0e012683          	lw	a3,224(sp)
   13d00:	09010593          	addi	a1,sp,144
   13d04:	0a010513          	addi	a0,sp,160
   13d08:	0ad12023          	sw	a3,160(sp)
   13d0c:	0e412683          	lw	a3,228(sp)
   13d10:	04e12223          	sw	a4,68(sp)
   13d14:	08012823          	sw	zero,144(sp)
   13d18:	0ad12223          	sw	a3,164(sp)
   13d1c:	0e812683          	lw	a3,232(sp)
   13d20:	08012a23          	sw	zero,148(sp)
   13d24:	08012c23          	sw	zero,152(sp)
   13d28:	0ad12423          	sw	a3,168(sp)
   13d2c:	0ec12683          	lw	a3,236(sp)
   13d30:	08012e23          	sw	zero,156(sp)
   13d34:	0ad12623          	sw	a3,172(sp)
   13d38:	5890b0ef          	jal	ra,1fac0 <__eqtf2>
   13d3c:	04412703          	lw	a4,68(sp)
   13d40:	12051a63          	bne	a0,zero,13e74 <_vfprintf_r+0x16fc>
   13d44:	000237b7          	lui	a5,0x23
   13d48:	60078793          	addi	a5,a5,1536 # 23600 <zeroes.4514+0x48>
   13d4c:	00fba023          	sw	a5,0(s7)
   13d50:	00100793          	addi	a5,zero,1
   13d54:	00fba223          	sw	a5,4(s7)
   13d58:	0d812783          	lw	a5,216(sp)
   13d5c:	00170713          	addi	a4,a4,1
   13d60:	0ce12e23          	sw	a4,220(sp)
   13d64:	00178793          	addi	a5,a5,1
   13d68:	0cf12c23          	sw	a5,216(sp)
   13d6c:	00700713          	addi	a4,zero,7
   13d70:	008b8b93          	addi	s7,s7,8
   13d74:	00f75e63          	bge	a4,a5,13d90 <_vfprintf_r+0x1618>
   13d78:	0d410613          	addi	a2,sp,212
   13d7c:	00090593          	addi	a1,s2,0
   13d80:	00098513          	addi	a0,s3,0
   13d84:	559070ef          	jal	ra,1badc <__sprint_r>
   13d88:	0e051ee3          	bne	a0,zero,14684 <_vfprintf_r+0x1f0c>
   13d8c:	0fc10b93          	addi	s7,sp,252
   13d90:	0bc12783          	lw	a5,188(sp)
   13d94:	0147c663          	blt	a5,s4,13da0 <_vfprintf_r+0x1628>
   13d98:	00147793          	andi	a5,s0,1
   13d9c:	22078063          	beq	a5,zero,13fbc <_vfprintf_r+0x1844>
   13da0:	03412783          	lw	a5,52(sp)
   13da4:	02012703          	lw	a4,32(sp)
   13da8:	008b8b93          	addi	s7,s7,8
   13dac:	fefbac23          	sw	a5,-8(s7)
   13db0:	02012783          	lw	a5,32(sp)
   13db4:	fefbae23          	sw	a5,-4(s7)
   13db8:	0dc12783          	lw	a5,220(sp)
   13dbc:	00e787b3          	add	a5,a5,a4
   13dc0:	0cf12e23          	sw	a5,220(sp)
   13dc4:	0d812783          	lw	a5,216(sp)
   13dc8:	00700713          	addi	a4,zero,7
   13dcc:	00178793          	addi	a5,a5,1
   13dd0:	0cf12c23          	sw	a5,216(sp)
   13dd4:	00f75e63          	bge	a4,a5,13df0 <_vfprintf_r+0x1678>
   13dd8:	0d410613          	addi	a2,sp,212
   13ddc:	00090593          	addi	a1,s2,0
   13de0:	00098513          	addi	a0,s3,0
   13de4:	4f9070ef          	jal	ra,1badc <__sprint_r>
   13de8:	08051ee3          	bne	a0,zero,14684 <_vfprintf_r+0x1f0c>
   13dec:	0fc10b93          	addi	s7,sp,252
   13df0:	fffa0493          	addi	s1,s4,-1
   13df4:	1c905463          	bge	zero,s1,13fbc <_vfprintf_r+0x1844>
   13df8:	01000a93          	addi	s5,zero,16
   13dfc:	00700b13          	addi	s6,zero,7
   13e00:	01412603          	lw	a2,20(sp)
   13e04:	0d812783          	lw	a5,216(sp)
   13e08:	0dc12703          	lw	a4,220(sp)
   13e0c:	00cba023          	sw	a2,0(s7)
   13e10:	00178793          	addi	a5,a5,1
   13e14:	008b8693          	addi	a3,s7,8
   13e18:	029ac263          	blt	s5,s1,13e3c <_vfprintf_r+0x16c4>
   13e1c:	009ba223          	sw	s1,4(s7)
   13e20:	00e484b3          	add	s1,s1,a4
   13e24:	0c912e23          	sw	s1,220(sp)
   13e28:	0cf12c23          	sw	a5,216(sp)
   13e2c:	00700713          	addi	a4,zero,7
   13e30:	00068b93          	addi	s7,a3,0
   13e34:	18f75463          	bge	a4,a5,13fbc <_vfprintf_r+0x1844>
   13e38:	800ff06f          	jal	zero,12e38 <_vfprintf_r+0x6c0>
   13e3c:	01070713          	addi	a4,a4,16
   13e40:	015ba223          	sw	s5,4(s7)
   13e44:	0ce12e23          	sw	a4,220(sp)
   13e48:	0cf12c23          	sw	a5,216(sp)
   13e4c:	00fb5e63          	bge	s6,a5,13e68 <_vfprintf_r+0x16f0>
   13e50:	0d410613          	addi	a2,sp,212
   13e54:	00090593          	addi	a1,s2,0
   13e58:	00098513          	addi	a0,s3,0
   13e5c:	481070ef          	jal	ra,1badc <__sprint_r>
   13e60:	020512e3          	bne	a0,zero,14684 <_vfprintf_r+0x1f0c>
   13e64:	0fc10693          	addi	a3,sp,252
   13e68:	ff048493          	addi	s1,s1,-16
   13e6c:	00068b93          	addi	s7,a3,0
   13e70:	f91ff06f          	jal	zero,13e00 <_vfprintf_r+0x1688>
   13e74:	0bc12683          	lw	a3,188(sp)
   13e78:	1cd04863          	blt	zero,a3,14048 <_vfprintf_r+0x18d0>
   13e7c:	000237b7          	lui	a5,0x23
   13e80:	60078793          	addi	a5,a5,1536 # 23600 <zeroes.4514+0x48>
   13e84:	00fba023          	sw	a5,0(s7)
   13e88:	00100793          	addi	a5,zero,1
   13e8c:	00fba223          	sw	a5,4(s7)
   13e90:	0d812783          	lw	a5,216(sp)
   13e94:	00170713          	addi	a4,a4,1
   13e98:	0ce12e23          	sw	a4,220(sp)
   13e9c:	00178793          	addi	a5,a5,1
   13ea0:	0cf12c23          	sw	a5,216(sp)
   13ea4:	00700713          	addi	a4,zero,7
   13ea8:	008b8b93          	addi	s7,s7,8
   13eac:	00f75e63          	bge	a4,a5,13ec8 <_vfprintf_r+0x1750>
   13eb0:	0d410613          	addi	a2,sp,212
   13eb4:	00090593          	addi	a1,s2,0
   13eb8:	00098513          	addi	a0,s3,0
   13ebc:	421070ef          	jal	ra,1badc <__sprint_r>
   13ec0:	7c051263          	bne	a0,zero,14684 <_vfprintf_r+0x1f0c>
   13ec4:	0fc10b93          	addi	s7,sp,252
   13ec8:	0bc12783          	lw	a5,188(sp)
   13ecc:	00147693          	andi	a3,s0,1
   13ed0:	0dc12703          	lw	a4,220(sp)
   13ed4:	00fa67b3          	or	a5,s4,a5
   13ed8:	00d7e7b3          	or	a5,a5,a3
   13edc:	0e078063          	beq	a5,zero,13fbc <_vfprintf_r+0x1844>
   13ee0:	03412783          	lw	a5,52(sp)
   13ee4:	008b8893          	addi	a7,s7,8
   13ee8:	00fba023          	sw	a5,0(s7)
   13eec:	02012783          	lw	a5,32(sp)
   13ef0:	00fba223          	sw	a5,4(s7)
   13ef4:	00e787b3          	add	a5,a5,a4
   13ef8:	0cf12e23          	sw	a5,220(sp)
   13efc:	0d812783          	lw	a5,216(sp)
   13f00:	00700713          	addi	a4,zero,7
   13f04:	00178793          	addi	a5,a5,1
   13f08:	0cf12c23          	sw	a5,216(sp)
   13f0c:	00f75e63          	bge	a4,a5,13f28 <_vfprintf_r+0x17b0>
   13f10:	0d410613          	addi	a2,sp,212
   13f14:	00090593          	addi	a1,s2,0
   13f18:	00098513          	addi	a0,s3,0
   13f1c:	3c1070ef          	jal	ra,1badc <__sprint_r>
   13f20:	76051263          	bne	a0,zero,14684 <_vfprintf_r+0x1f0c>
   13f24:	0fc10893          	addi	a7,sp,252
   13f28:	0bc12a83          	lw	s5,188(sp)
   13f2c:	060ad063          	bge	s5,zero,13f8c <_vfprintf_r+0x1814>
   13f30:	41500ab3          	sub	s5,zero,s5
   13f34:	00088713          	addi	a4,a7,0
   13f38:	01000b13          	addi	s6,zero,16
   13f3c:	00700c13          	addi	s8,zero,7
   13f40:	01412603          	lw	a2,20(sp)
   13f44:	0d812783          	lw	a5,216(sp)
   13f48:	0dc12683          	lw	a3,220(sp)
   13f4c:	00c72023          	sw	a2,0(a4)
   13f50:	00178793          	addi	a5,a5,1
   13f54:	00888893          	addi	a7,a7,8
   13f58:	0b5b4c63          	blt	s6,s5,14010 <_vfprintf_r+0x1898>
   13f5c:	01572223          	sw	s5,4(a4)
   13f60:	00da8ab3          	add	s5,s5,a3
   13f64:	0d512e23          	sw	s5,220(sp)
   13f68:	0cf12c23          	sw	a5,216(sp)
   13f6c:	00700713          	addi	a4,zero,7
   13f70:	00f75e63          	bge	a4,a5,13f8c <_vfprintf_r+0x1814>
   13f74:	0d410613          	addi	a2,sp,212
   13f78:	00090593          	addi	a1,s2,0
   13f7c:	00098513          	addi	a0,s3,0
   13f80:	35d070ef          	jal	ra,1badc <__sprint_r>
   13f84:	70051063          	bne	a0,zero,14684 <_vfprintf_r+0x1f0c>
   13f88:	0fc10893          	addi	a7,sp,252
   13f8c:	0dc12783          	lw	a5,220(sp)
   13f90:	0098a023          	sw	s1,0(a7)
   13f94:	0148a223          	sw	s4,4(a7)
   13f98:	014787b3          	add	a5,a5,s4
   13f9c:	0cf12e23          	sw	a5,220(sp)
   13fa0:	0d812783          	lw	a5,216(sp)
   13fa4:	00700713          	addi	a4,zero,7
   13fa8:	00888b93          	addi	s7,a7,8
   13fac:	00178793          	addi	a5,a5,1
   13fb0:	0cf12c23          	sw	a5,216(sp)
   13fb4:	00f75463          	bge	a4,a5,13fbc <_vfprintf_r+0x1844>
   13fb8:	e81fe06f          	jal	zero,12e38 <_vfprintf_r+0x6c0>
   13fbc:	00447413          	andi	s0,s0,4
   13fc0:	66041263          	bne	s0,zero,14624 <_vfprintf_r+0x1eac>
   13fc4:	02812b03          	lw	s6,40(sp)
   13fc8:	02c12783          	lw	a5,44(sp)
   13fcc:	00fb5463          	bge	s6,a5,13fd4 <_vfprintf_r+0x185c>
   13fd0:	00078b13          	addi	s6,a5,0
   13fd4:	02412783          	lw	a5,36(sp)
   13fd8:	016787b3          	add	a5,a5,s6
   13fdc:	02f12223          	sw	a5,36(sp)
   13fe0:	0dc12783          	lw	a5,220(sp)
   13fe4:	00078c63          	beq	a5,zero,13ffc <_vfprintf_r+0x1884>
   13fe8:	0d410613          	addi	a2,sp,212
   13fec:	00090593          	addi	a1,s2,0
   13ff0:	00098513          	addi	a0,s3,0
   13ff4:	2e9070ef          	jal	ra,1badc <__sprint_r>
   13ff8:	68051663          	bne	a0,zero,14684 <_vfprintf_r+0x1f0c>
   13ffc:	00c12783          	lw	a5,12(sp)
   14000:	0c012c23          	sw	zero,216(sp)
   14004:	6c079a63          	bne	a5,zero,146d8 <_vfprintf_r+0x1f60>
   14008:	0fc10b93          	addi	s7,sp,252
   1400c:	811ff06f          	jal	zero,1381c <_vfprintf_r+0x10a4>
   14010:	01068693          	addi	a3,a3,16
   14014:	01672223          	sw	s6,4(a4)
   14018:	0cd12e23          	sw	a3,220(sp)
   1401c:	0cf12c23          	sw	a5,216(sp)
   14020:	00fc5e63          	bge	s8,a5,1403c <_vfprintf_r+0x18c4>
   14024:	0d410613          	addi	a2,sp,212
   14028:	00090593          	addi	a1,s2,0
   1402c:	00098513          	addi	a0,s3,0
   14030:	2ad070ef          	jal	ra,1badc <__sprint_r>
   14034:	64051863          	bne	a0,zero,14684 <_vfprintf_r+0x1f0c>
   14038:	0fc10893          	addi	a7,sp,252
   1403c:	ff0a8a93          	addi	s5,s5,-16
   14040:	00088713          	addi	a4,a7,0
   14044:	efdff06f          	jal	zero,13f40 <_vfprintf_r+0x17c8>
   14048:	000d8a93          	addi	s5,s11,0
   1404c:	01ba5463          	bge	s4,s11,14054 <_vfprintf_r+0x18dc>
   14050:	000a0a93          	addi	s5,s4,0
   14054:	05505263          	bge	zero,s5,14098 <_vfprintf_r+0x1920>
   14058:	00ea8733          	add	a4,s5,a4
   1405c:	0ce12e23          	sw	a4,220(sp)
   14060:	0d812703          	lw	a4,216(sp)
   14064:	009ba023          	sw	s1,0(s7)
   14068:	015ba223          	sw	s5,4(s7)
   1406c:	00170713          	addi	a4,a4,1
   14070:	0ce12c23          	sw	a4,216(sp)
   14074:	00700693          	addi	a3,zero,7
   14078:	008b8b93          	addi	s7,s7,8
   1407c:	00e6de63          	bge	a3,a4,14098 <_vfprintf_r+0x1920>
   14080:	0d410613          	addi	a2,sp,212
   14084:	00090593          	addi	a1,s2,0
   14088:	00098513          	addi	a0,s3,0
   1408c:	251070ef          	jal	ra,1badc <__sprint_r>
   14090:	5e051a63          	bne	a0,zero,14684 <_vfprintf_r+0x1f0c>
   14094:	0fc10b93          	addi	s7,sp,252
   14098:	000ad463          	bge	s5,zero,140a0 <_vfprintf_r+0x1928>
   1409c:	00000a93          	addi	s5,zero,0
   140a0:	415d8ab3          	sub	s5,s11,s5
   140a4:	05505e63          	bge	zero,s5,14100 <_vfprintf_r+0x1988>
   140a8:	01000b13          	addi	s6,zero,16
   140ac:	00700d13          	addi	s10,zero,7
   140b0:	01412783          	lw	a5,20(sp)
   140b4:	0d812703          	lw	a4,216(sp)
   140b8:	0dc12683          	lw	a3,220(sp)
   140bc:	00fba023          	sw	a5,0(s7)
   140c0:	00170713          	addi	a4,a4,1
   140c4:	008b8613          	addi	a2,s7,8
   140c8:	195b4c63          	blt	s6,s5,14260 <_vfprintf_r+0x1ae8>
   140cc:	015ba223          	sw	s5,4(s7)
   140d0:	00da8ab3          	add	s5,s5,a3
   140d4:	0d512e23          	sw	s5,220(sp)
   140d8:	0ce12c23          	sw	a4,216(sp)
   140dc:	00700693          	addi	a3,zero,7
   140e0:	00060b93          	addi	s7,a2,0
   140e4:	00e6de63          	bge	a3,a4,14100 <_vfprintf_r+0x1988>
   140e8:	0d410613          	addi	a2,sp,212
   140ec:	00090593          	addi	a1,s2,0
   140f0:	00098513          	addi	a0,s3,0
   140f4:	1e9070ef          	jal	ra,1badc <__sprint_r>
   140f8:	58051663          	bne	a0,zero,14684 <_vfprintf_r+0x1f0c>
   140fc:	0fc10b93          	addi	s7,sp,252
   14100:	40047793          	andi	a5,s0,1024
   14104:	01b48ab3          	add	s5,s1,s11
   14108:	02078063          	beq	a5,zero,14128 <_vfprintf_r+0x19b0>
   1410c:	00700b13          	addi	s6,zero,7
   14110:	01448d33          	add	s10,s1,s4
   14114:	180c1263          	bne	s8,zero,14298 <_vfprintf_r+0x1b20>
   14118:	180c9263          	bne	s9,zero,1429c <_vfprintf_r+0x1b24>
   1411c:	014487b3          	add	a5,s1,s4
   14120:	0157f463          	bgeu	a5,s5,14128 <_vfprintf_r+0x19b0>
   14124:	00078a93          	addi	s5,a5,0
   14128:	0bc12783          	lw	a5,188(sp)
   1412c:	0147c663          	blt	a5,s4,14138 <_vfprintf_r+0x19c0>
   14130:	00147793          	andi	a5,s0,1
   14134:	04078a63          	beq	a5,zero,14188 <_vfprintf_r+0x1a10>
   14138:	03412783          	lw	a5,52(sp)
   1413c:	02012703          	lw	a4,32(sp)
   14140:	008b8b93          	addi	s7,s7,8
   14144:	fefbac23          	sw	a5,-8(s7)
   14148:	02012783          	lw	a5,32(sp)
   1414c:	fefbae23          	sw	a5,-4(s7)
   14150:	0dc12783          	lw	a5,220(sp)
   14154:	00e787b3          	add	a5,a5,a4
   14158:	0cf12e23          	sw	a5,220(sp)
   1415c:	0d812783          	lw	a5,216(sp)
   14160:	00700713          	addi	a4,zero,7
   14164:	00178793          	addi	a5,a5,1
   14168:	0cf12c23          	sw	a5,216(sp)
   1416c:	00f75e63          	bge	a4,a5,14188 <_vfprintf_r+0x1a10>
   14170:	0d410613          	addi	a2,sp,212
   14174:	00090593          	addi	a1,s2,0
   14178:	00098513          	addi	a0,s3,0
   1417c:	161070ef          	jal	ra,1badc <__sprint_r>
   14180:	50051263          	bne	a0,zero,14684 <_vfprintf_r+0x1f0c>
   14184:	0fc10b93          	addi	s7,sp,252
   14188:	014484b3          	add	s1,s1,s4
   1418c:	415487b3          	sub	a5,s1,s5
   14190:	0bc12483          	lw	s1,188(sp)
   14194:	409a04b3          	sub	s1,s4,s1
   14198:	0097d463          	bge	a5,s1,141a0 <_vfprintf_r+0x1a28>
   1419c:	00078493          	addi	s1,a5,0
   141a0:	04905463          	bge	zero,s1,141e8 <_vfprintf_r+0x1a70>
   141a4:	0dc12783          	lw	a5,220(sp)
   141a8:	015ba023          	sw	s5,0(s7)
   141ac:	009ba223          	sw	s1,4(s7)
   141b0:	00f487b3          	add	a5,s1,a5
   141b4:	0cf12e23          	sw	a5,220(sp)
   141b8:	0d812783          	lw	a5,216(sp)
   141bc:	00700713          	addi	a4,zero,7
   141c0:	008b8b93          	addi	s7,s7,8
   141c4:	00178793          	addi	a5,a5,1
   141c8:	0cf12c23          	sw	a5,216(sp)
   141cc:	00f75e63          	bge	a4,a5,141e8 <_vfprintf_r+0x1a70>
   141d0:	0d410613          	addi	a2,sp,212
   141d4:	00090593          	addi	a1,s2,0
   141d8:	00098513          	addi	a0,s3,0
   141dc:	101070ef          	jal	ra,1badc <__sprint_r>
   141e0:	4a051263          	bne	a0,zero,14684 <_vfprintf_r+0x1f0c>
   141e4:	0fc10b93          	addi	s7,sp,252
   141e8:	00048793          	addi	a5,s1,0
   141ec:	0004d463          	bge	s1,zero,141f4 <_vfprintf_r+0x1a7c>
   141f0:	00000793          	addi	a5,zero,0
   141f4:	0bc12483          	lw	s1,188(sp)
   141f8:	409a04b3          	sub	s1,s4,s1
   141fc:	40f484b3          	sub	s1,s1,a5
   14200:	da905ee3          	bge	zero,s1,13fbc <_vfprintf_r+0x1844>
   14204:	01000a93          	addi	s5,zero,16
   14208:	00700b13          	addi	s6,zero,7
   1420c:	01412603          	lw	a2,20(sp)
   14210:	0d812783          	lw	a5,216(sp)
   14214:	0dc12703          	lw	a4,220(sp)
   14218:	00cba023          	sw	a2,0(s7)
   1421c:	00178793          	addi	a5,a5,1
   14220:	008b8693          	addi	a3,s7,8
   14224:	be9adce3          	bge	s5,s1,13e1c <_vfprintf_r+0x16a4>
   14228:	01070713          	addi	a4,a4,16
   1422c:	015ba223          	sw	s5,4(s7)
   14230:	0ce12e23          	sw	a4,220(sp)
   14234:	0cf12c23          	sw	a5,216(sp)
   14238:	00fb5e63          	bge	s6,a5,14254 <_vfprintf_r+0x1adc>
   1423c:	0d410613          	addi	a2,sp,212
   14240:	00090593          	addi	a1,s2,0
   14244:	00098513          	addi	a0,s3,0
   14248:	095070ef          	jal	ra,1badc <__sprint_r>
   1424c:	42051c63          	bne	a0,zero,14684 <_vfprintf_r+0x1f0c>
   14250:	0fc10693          	addi	a3,sp,252
   14254:	ff048493          	addi	s1,s1,-16
   14258:	00068b93          	addi	s7,a3,0
   1425c:	fb1ff06f          	jal	zero,1420c <_vfprintf_r+0x1a94>
   14260:	01068693          	addi	a3,a3,16
   14264:	016ba223          	sw	s6,4(s7)
   14268:	0cd12e23          	sw	a3,220(sp)
   1426c:	0ce12c23          	sw	a4,216(sp)
   14270:	00ed5e63          	bge	s10,a4,1428c <_vfprintf_r+0x1b14>
   14274:	0d410613          	addi	a2,sp,212
   14278:	00090593          	addi	a1,s2,0
   1427c:	00098513          	addi	a0,s3,0
   14280:	05d070ef          	jal	ra,1badc <__sprint_r>
   14284:	40051063          	bne	a0,zero,14684 <_vfprintf_r+0x1f0c>
   14288:	0fc10613          	addi	a2,sp,252
   1428c:	ff0a8a93          	addi	s5,s5,-16
   14290:	00060b93          	addi	s7,a2,0
   14294:	e1dff06f          	jal	zero,140b0 <_vfprintf_r+0x1938>
   14298:	0e0c8263          	beq	s9,zero,1437c <_vfprintf_r+0x1c04>
   1429c:	fffc8c93          	addi	s9,s9,-1
   142a0:	03812783          	lw	a5,56(sp)
   142a4:	03012703          	lw	a4,48(sp)
   142a8:	008b8b93          	addi	s7,s7,8
   142ac:	fefbac23          	sw	a5,-8(s7)
   142b0:	03012783          	lw	a5,48(sp)
   142b4:	fefbae23          	sw	a5,-4(s7)
   142b8:	0dc12783          	lw	a5,220(sp)
   142bc:	00e787b3          	add	a5,a5,a4
   142c0:	0cf12e23          	sw	a5,220(sp)
   142c4:	0d812783          	lw	a5,216(sp)
   142c8:	00178793          	addi	a5,a5,1
   142cc:	0cf12c23          	sw	a5,216(sp)
   142d0:	00fb5e63          	bge	s6,a5,142ec <_vfprintf_r+0x1b74>
   142d4:	0d410613          	addi	a2,sp,212
   142d8:	00090593          	addi	a1,s2,0
   142dc:	00098513          	addi	a0,s3,0
   142e0:	7fc070ef          	jal	ra,1badc <__sprint_r>
   142e4:	3a051063          	bne	a0,zero,14684 <_vfprintf_r+0x1f0c>
   142e8:	0fc10b93          	addi	s7,sp,252
   142ec:	01012783          	lw	a5,16(sp)
   142f0:	415d0733          	sub	a4,s10,s5
   142f4:	0007c783          	lbu	a5,0(a5)
   142f8:	00f75463          	bge	a4,a5,14300 <_vfprintf_r+0x1b88>
   142fc:	00070793          	addi	a5,a4,0
   14300:	04f05663          	bge	zero,a5,1434c <_vfprintf_r+0x1bd4>
   14304:	0dc12703          	lw	a4,220(sp)
   14308:	015ba023          	sw	s5,0(s7)
   1430c:	00fba223          	sw	a5,4(s7)
   14310:	00e78733          	add	a4,a5,a4
   14314:	0ce12e23          	sw	a4,220(sp)
   14318:	0d812703          	lw	a4,216(sp)
   1431c:	008b8b93          	addi	s7,s7,8
   14320:	00170713          	addi	a4,a4,1
   14324:	0ce12c23          	sw	a4,216(sp)
   14328:	02eb5263          	bge	s6,a4,1434c <_vfprintf_r+0x1bd4>
   1432c:	0d410613          	addi	a2,sp,212
   14330:	00090593          	addi	a1,s2,0
   14334:	00098513          	addi	a0,s3,0
   14338:	04f12223          	sw	a5,68(sp)
   1433c:	7a0070ef          	jal	ra,1badc <__sprint_r>
   14340:	34051263          	bne	a0,zero,14684 <_vfprintf_r+0x1f0c>
   14344:	04412783          	lw	a5,68(sp)
   14348:	0fc10b93          	addi	s7,sp,252
   1434c:	00078713          	addi	a4,a5,0
   14350:	0007d463          	bge	a5,zero,14358 <_vfprintf_r+0x1be0>
   14354:	00000713          	addi	a4,zero,0
   14358:	01012783          	lw	a5,16(sp)
   1435c:	01000813          	addi	a6,zero,16
   14360:	0007c783          	lbu	a5,0(a5)
   14364:	40e787b3          	sub	a5,a5,a4
   14368:	06f04463          	blt	zero,a5,143d0 <_vfprintf_r+0x1c58>
   1436c:	01012783          	lw	a5,16(sp)
   14370:	0007c783          	lbu	a5,0(a5)
   14374:	00fa8ab3          	add	s5,s5,a5
   14378:	d9dff06f          	jal	zero,14114 <_vfprintf_r+0x199c>
   1437c:	01012783          	lw	a5,16(sp)
   14380:	fffc0c13          	addi	s8,s8,-1
   14384:	fff78793          	addi	a5,a5,-1
   14388:	00f12823          	sw	a5,16(sp)
   1438c:	f15ff06f          	jal	zero,142a0 <_vfprintf_r+0x1b28>
   14390:	01068693          	addi	a3,a3,16
   14394:	010ba223          	sw	a6,4(s7)
   14398:	0cd12e23          	sw	a3,220(sp)
   1439c:	0ce12c23          	sw	a4,216(sp)
   143a0:	02eb5463          	bge	s6,a4,143c8 <_vfprintf_r+0x1c50>
   143a4:	0d410613          	addi	a2,sp,212
   143a8:	00090593          	addi	a1,s2,0
   143ac:	00098513          	addi	a0,s3,0
   143b0:	04f12223          	sw	a5,68(sp)
   143b4:	728070ef          	jal	ra,1badc <__sprint_r>
   143b8:	2c051663          	bne	a0,zero,14684 <_vfprintf_r+0x1f0c>
   143bc:	04412783          	lw	a5,68(sp)
   143c0:	0fc10613          	addi	a2,sp,252
   143c4:	01000813          	addi	a6,zero,16
   143c8:	ff078793          	addi	a5,a5,-16
   143cc:	00060b93          	addi	s7,a2,0
   143d0:	01412583          	lw	a1,20(sp)
   143d4:	0d812703          	lw	a4,216(sp)
   143d8:	0dc12683          	lw	a3,220(sp)
   143dc:	00bba023          	sw	a1,0(s7)
   143e0:	00170713          	addi	a4,a4,1
   143e4:	008b8613          	addi	a2,s7,8
   143e8:	faf844e3          	blt	a6,a5,14390 <_vfprintf_r+0x1c18>
   143ec:	00fba223          	sw	a5,4(s7)
   143f0:	00d787b3          	add	a5,a5,a3
   143f4:	0cf12e23          	sw	a5,220(sp)
   143f8:	0ce12c23          	sw	a4,216(sp)
   143fc:	00060b93          	addi	s7,a2,0
   14400:	f6eb56e3          	bge	s6,a4,1436c <_vfprintf_r+0x1bf4>
   14404:	0d410613          	addi	a2,sp,212
   14408:	00090593          	addi	a1,s2,0
   1440c:	00098513          	addi	a0,s3,0
   14410:	6cc070ef          	jal	ra,1badc <__sprint_r>
   14414:	26051863          	bne	a0,zero,14684 <_vfprintf_r+0x1f0c>
   14418:	0fc10b93          	addi	s7,sp,252
   1441c:	f51ff06f          	jal	zero,1436c <_vfprintf_r+0x1bf4>
   14420:	0d812783          	lw	a5,216(sp)
   14424:	00100693          	addi	a3,zero,1
   14428:	009ba023          	sw	s1,0(s7)
   1442c:	00170713          	addi	a4,a4,1
   14430:	00178793          	addi	a5,a5,1
   14434:	008b8a93          	addi	s5,s7,8
   14438:	0146c663          	blt	a3,s4,14444 <_vfprintf_r+0x1ccc>
   1443c:	00147613          	andi	a2,s0,1
   14440:	1c060663          	beq	a2,zero,1460c <_vfprintf_r+0x1e94>
   14444:	00100693          	addi	a3,zero,1
   14448:	0ce12e23          	sw	a4,220(sp)
   1444c:	00dba223          	sw	a3,4(s7)
   14450:	0cf12c23          	sw	a5,216(sp)
   14454:	00700713          	addi	a4,zero,7
   14458:	00f75e63          	bge	a4,a5,14474 <_vfprintf_r+0x1cfc>
   1445c:	0d410613          	addi	a2,sp,212
   14460:	00090593          	addi	a1,s2,0
   14464:	00098513          	addi	a0,s3,0
   14468:	674070ef          	jal	ra,1badc <__sprint_r>
   1446c:	20051c63          	bne	a0,zero,14684 <_vfprintf_r+0x1f0c>
   14470:	0fc10a93          	addi	s5,sp,252
   14474:	03412783          	lw	a5,52(sp)
   14478:	02012703          	lw	a4,32(sp)
   1447c:	008a8a93          	addi	s5,s5,8
   14480:	fefaac23          	sw	a5,-8(s5)
   14484:	02012783          	lw	a5,32(sp)
   14488:	fefaae23          	sw	a5,-4(s5)
   1448c:	0dc12783          	lw	a5,220(sp)
   14490:	00e787b3          	add	a5,a5,a4
   14494:	0cf12e23          	sw	a5,220(sp)
   14498:	0d812783          	lw	a5,216(sp)
   1449c:	00700713          	addi	a4,zero,7
   144a0:	00178793          	addi	a5,a5,1
   144a4:	0cf12c23          	sw	a5,216(sp)
   144a8:	00f75e63          	bge	a4,a5,144c4 <_vfprintf_r+0x1d4c>
   144ac:	0d410613          	addi	a2,sp,212
   144b0:	00090593          	addi	a1,s2,0
   144b4:	00098513          	addi	a0,s3,0
   144b8:	624070ef          	jal	ra,1badc <__sprint_r>
   144bc:	1c051463          	bne	a0,zero,14684 <_vfprintf_r+0x1f0c>
   144c0:	0fc10a93          	addi	s5,sp,252
   144c4:	0e012783          	lw	a5,224(sp)
   144c8:	09010593          	addi	a1,sp,144
   144cc:	0a010513          	addi	a0,sp,160
   144d0:	0af12023          	sw	a5,160(sp)
   144d4:	0e412783          	lw	a5,228(sp)
   144d8:	fffa0b13          	addi	s6,s4,-1
   144dc:	08012823          	sw	zero,144(sp)
   144e0:	0af12223          	sw	a5,164(sp)
   144e4:	0e812783          	lw	a5,232(sp)
   144e8:	08012a23          	sw	zero,148(sp)
   144ec:	08012c23          	sw	zero,152(sp)
   144f0:	0af12423          	sw	a5,168(sp)
   144f4:	0ec12783          	lw	a5,236(sp)
   144f8:	08012e23          	sw	zero,156(sp)
   144fc:	0af12623          	sw	a5,172(sp)
   14500:	5c00b0ef          	jal	ra,1fac0 <__eqtf2>
   14504:	08050663          	beq	a0,zero,14590 <_vfprintf_r+0x1e18>
   14508:	0dc12783          	lw	a5,220(sp)
   1450c:	0d812703          	lw	a4,216(sp)
   14510:	00148493          	addi	s1,s1,1
   14514:	fff78793          	addi	a5,a5,-1
   14518:	014787b3          	add	a5,a5,s4
   1451c:	00170713          	addi	a4,a4,1
   14520:	009aa023          	sw	s1,0(s5)
   14524:	016aa223          	sw	s6,4(s5)
   14528:	0cf12e23          	sw	a5,220(sp)
   1452c:	0ce12c23          	sw	a4,216(sp)
   14530:	00700793          	addi	a5,zero,7
   14534:	008a8a93          	addi	s5,s5,8
   14538:	00e7de63          	bge	a5,a4,14554 <_vfprintf_r+0x1ddc>
   1453c:	0d410613          	addi	a2,sp,212
   14540:	00090593          	addi	a1,s2,0
   14544:	00098513          	addi	a0,s3,0
   14548:	594070ef          	jal	ra,1badc <__sprint_r>
   1454c:	12051c63          	bne	a0,zero,14684 <_vfprintf_r+0x1f0c>
   14550:	0fc10a93          	addi	s5,sp,252
   14554:	0c410793          	addi	a5,sp,196
   14558:	00faa023          	sw	a5,0(s5)
   1455c:	03c12783          	lw	a5,60(sp)
   14560:	03c12703          	lw	a4,60(sp)
   14564:	008a8b93          	addi	s7,s5,8
   14568:	00faa223          	sw	a5,4(s5)
   1456c:	0dc12783          	lw	a5,220(sp)
   14570:	00e787b3          	add	a5,a5,a4
   14574:	0cf12e23          	sw	a5,220(sp)
   14578:	0d812783          	lw	a5,216(sp)
   1457c:	00700713          	addi	a4,zero,7
   14580:	00178793          	addi	a5,a5,1
   14584:	0cf12c23          	sw	a5,216(sp)
   14588:	a2f75ae3          	bge	a4,a5,13fbc <_vfprintf_r+0x1844>
   1458c:	8adfe06f          	jal	zero,12e38 <_vfprintf_r+0x6c0>
   14590:	fd6052e3          	bge	zero,s6,14554 <_vfprintf_r+0x1ddc>
   14594:	01000493          	addi	s1,zero,16
   14598:	00700c13          	addi	s8,zero,7
   1459c:	01412603          	lw	a2,20(sp)
   145a0:	0d812703          	lw	a4,216(sp)
   145a4:	0dc12783          	lw	a5,220(sp)
   145a8:	00caa023          	sw	a2,0(s5)
   145ac:	00170713          	addi	a4,a4,1
   145b0:	008a8693          	addi	a3,s5,8
   145b4:	0364c063          	blt	s1,s6,145d4 <_vfprintf_r+0x1e5c>
   145b8:	00fb07b3          	add	a5,s6,a5
   145bc:	016aa223          	sw	s6,4(s5)
   145c0:	0cf12e23          	sw	a5,220(sp)
   145c4:	0ce12c23          	sw	a4,216(sp)
   145c8:	00700793          	addi	a5,zero,7
   145cc:	00068a93          	addi	s5,a3,0
   145d0:	f69ff06f          	jal	zero,14538 <_vfprintf_r+0x1dc0>
   145d4:	01078793          	addi	a5,a5,16
   145d8:	009aa223          	sw	s1,4(s5)
   145dc:	0cf12e23          	sw	a5,220(sp)
   145e0:	0ce12c23          	sw	a4,216(sp)
   145e4:	00ec5e63          	bge	s8,a4,14600 <_vfprintf_r+0x1e88>
   145e8:	0d410613          	addi	a2,sp,212
   145ec:	00090593          	addi	a1,s2,0
   145f0:	00098513          	addi	a0,s3,0
   145f4:	4e8070ef          	jal	ra,1badc <__sprint_r>
   145f8:	08051663          	bne	a0,zero,14684 <_vfprintf_r+0x1f0c>
   145fc:	0fc10693          	addi	a3,sp,252
   14600:	ff0b0b13          	addi	s6,s6,-16
   14604:	00068a93          	addi	s5,a3,0
   14608:	f95ff06f          	jal	zero,1459c <_vfprintf_r+0x1e24>
   1460c:	0ce12e23          	sw	a4,220(sp)
   14610:	00dba223          	sw	a3,4(s7)
   14614:	0cf12c23          	sw	a5,216(sp)
   14618:	00700713          	addi	a4,zero,7
   1461c:	f2f75ce3          	bge	a4,a5,14554 <_vfprintf_r+0x1ddc>
   14620:	f1dff06f          	jal	zero,1453c <_vfprintf_r+0x1dc4>
   14624:	02812783          	lw	a5,40(sp)
   14628:	02c12703          	lw	a4,44(sp)
   1462c:	40e78433          	sub	s0,a5,a4
   14630:	98805ae3          	bge	zero,s0,13fc4 <_vfprintf_r+0x184c>
   14634:	000237b7          	lui	a5,0x23
   14638:	01000a93          	addi	s5,zero,16
   1463c:	5a878493          	addi	s1,a5,1448 # 235a8 <blanks.4513>
   14640:	00700b13          	addi	s6,zero,7
   14644:	0d812783          	lw	a5,216(sp)
   14648:	009ba023          	sw	s1,0(s7)
   1464c:	0dc12703          	lw	a4,220(sp)
   14650:	00178793          	addi	a5,a5,1
   14654:	048ac663          	blt	s5,s0,146a0 <_vfprintf_r+0x1f28>
   14658:	008ba223          	sw	s0,4(s7)
   1465c:	00e40433          	add	s0,s0,a4
   14660:	0c812e23          	sw	s0,220(sp)
   14664:	0cf12c23          	sw	a5,216(sp)
   14668:	00700713          	addi	a4,zero,7
   1466c:	94f75ce3          	bge	a4,a5,13fc4 <_vfprintf_r+0x184c>
   14670:	0d410613          	addi	a2,sp,212
   14674:	00090593          	addi	a1,s2,0
   14678:	00098513          	addi	a0,s3,0
   1467c:	460070ef          	jal	ra,1badc <__sprint_r>
   14680:	940502e3          	beq	a0,zero,13fc4 <_vfprintf_r+0x184c>
   14684:	00c12783          	lw	a5,12(sp)
   14688:	00079463          	bne	a5,zero,14690 <_vfprintf_r+0x1f18>
   1468c:	a11fe06f          	jal	zero,1309c <_vfprintf_r+0x924>
   14690:	00078593          	addi	a1,a5,0
   14694:	00098513          	addi	a0,s3,0
   14698:	221000ef          	jal	ra,150b8 <_free_r>
   1469c:	a01fe06f          	jal	zero,1309c <_vfprintf_r+0x924>
   146a0:	01070713          	addi	a4,a4,16
   146a4:	015ba223          	sw	s5,4(s7)
   146a8:	0ce12e23          	sw	a4,220(sp)
   146ac:	0cf12c23          	sw	a5,216(sp)
   146b0:	008b8b93          	addi	s7,s7,8
   146b4:	00fb5e63          	bge	s6,a5,146d0 <_vfprintf_r+0x1f58>
   146b8:	0d410613          	addi	a2,sp,212
   146bc:	00090593          	addi	a1,s2,0
   146c0:	00098513          	addi	a0,s3,0
   146c4:	418070ef          	jal	ra,1badc <__sprint_r>
   146c8:	fa051ee3          	bne	a0,zero,14684 <_vfprintf_r+0x1f0c>
   146cc:	0fc10b93          	addi	s7,sp,252
   146d0:	ff040413          	addi	s0,s0,-16
   146d4:	f71ff06f          	jal	zero,14644 <_vfprintf_r+0x1ecc>
   146d8:	00c12583          	lw	a1,12(sp)
   146dc:	00098513          	addi	a0,s3,0
   146e0:	1d9000ef          	jal	ra,150b8 <_free_r>
   146e4:	925ff06f          	jal	zero,14008 <_vfprintf_r+0x1890>
   146e8:	0dc12783          	lw	a5,220(sp)
   146ec:	00079463          	bne	a5,zero,146f4 <_vfprintf_r+0x1f7c>
   146f0:	9adfe06f          	jal	zero,1309c <_vfprintf_r+0x924>
   146f4:	0d410613          	addi	a2,sp,212
   146f8:	00090593          	addi	a1,s2,0
   146fc:	00098513          	addi	a0,s3,0
   14700:	3dc070ef          	jal	ra,1badc <__sprint_r>
   14704:	999fe06f          	jal	zero,1309c <_vfprintf_r+0x924>
   14708:	fff00793          	addi	a5,zero,-1
   1470c:	b4fd1a63          	bne	s10,a5,13a60 <_vfprintf_r+0x12e8>
   14710:	bc0d9c63          	bne	s11,zero,13ae8 <_vfprintf_r+0x1370>
   14714:	00900793          	addi	a5,zero,9
   14718:	bd97e863          	bltu	a5,s9,13ae8 <_vfprintf_r+0x1370>
   1471c:	030c8c93          	addi	s9,s9,48
   14720:	19910fa3          	sb	s9,415(sp)
   14724:	19f10493          	addi	s1,sp,415
   14728:	b98ff06f          	jal	zero,13ac0 <_vfprintf_r+0x1348>

0001472c <vfprintf>:
   1472c:	00060693          	addi	a3,a2,0
   14730:	00058613          	addi	a2,a1,0
   14734:	00050593          	addi	a1,a0,0
   14738:	1c01a503          	lw	a0,448(gp) # 25b90 <_impure_ptr>
   1473c:	83cfe06f          	jal	zero,12778 <_vfprintf_r>

00014740 <__sbprintf>:
   14740:	00c5d783          	lhu	a5,12(a1)
   14744:	b8010113          	addi	sp,sp,-1152
   14748:	46812c23          	sw	s0,1144(sp)
   1474c:	ffd7f793          	andi	a5,a5,-3
   14750:	00f11a23          	sh	a5,20(sp)
   14754:	0645a783          	lw	a5,100(a1)
   14758:	00058413          	addi	s0,a1,0
   1475c:	46912a23          	sw	s1,1140(sp)
   14760:	06f12623          	sw	a5,108(sp)
   14764:	00e5d783          	lhu	a5,14(a1)
   14768:	47212823          	sw	s2,1136(sp)
   1476c:	46112e23          	sw	ra,1148(sp)
   14770:	00f11b23          	sh	a5,22(sp)
   14774:	01c5a783          	lw	a5,28(a1)
   14778:	00050913          	addi	s2,a0,0
   1477c:	02012023          	sw	zero,32(sp)
   14780:	02f12223          	sw	a5,36(sp)
   14784:	0245a783          	lw	a5,36(a1)
   14788:	00810593          	addi	a1,sp,8
   1478c:	02f12623          	sw	a5,44(sp)
   14790:	07010793          	addi	a5,sp,112
   14794:	00f12423          	sw	a5,8(sp)
   14798:	00f12c23          	sw	a5,24(sp)
   1479c:	40000793          	addi	a5,zero,1024
   147a0:	00f12823          	sw	a5,16(sp)
   147a4:	00f12e23          	sw	a5,28(sp)
   147a8:	fd1fd0ef          	jal	ra,12778 <_vfprintf_r>
   147ac:	00050493          	addi	s1,a0,0
   147b0:	00054c63          	blt	a0,zero,147c8 <__sbprintf+0x88>
   147b4:	00810593          	addi	a1,sp,8
   147b8:	00090513          	addi	a0,s2,0
   147bc:	4bc000ef          	jal	ra,14c78 <_fflush_r>
   147c0:	00050463          	beq	a0,zero,147c8 <__sbprintf+0x88>
   147c4:	fff00493          	addi	s1,zero,-1
   147c8:	01415783          	lhu	a5,20(sp)
   147cc:	0407f793          	andi	a5,a5,64
   147d0:	00078863          	beq	a5,zero,147e0 <__sbprintf+0xa0>
   147d4:	00c45783          	lhu	a5,12(s0)
   147d8:	0407e793          	ori	a5,a5,64
   147dc:	00f41623          	sh	a5,12(s0)
   147e0:	47c12083          	lw	ra,1148(sp)
   147e4:	47812403          	lw	s0,1144(sp)
   147e8:	00048513          	addi	a0,s1,0
   147ec:	47012903          	lw	s2,1136(sp)
   147f0:	47412483          	lw	s1,1140(sp)
   147f4:	48010113          	addi	sp,sp,1152
   147f8:	00008067          	jalr	zero,0(ra)

000147fc <__swbuf_r>:
   147fc:	fe010113          	addi	sp,sp,-32
   14800:	00812c23          	sw	s0,24(sp)
   14804:	00912a23          	sw	s1,20(sp)
   14808:	01212823          	sw	s2,16(sp)
   1480c:	00112e23          	sw	ra,28(sp)
   14810:	01312623          	sw	s3,12(sp)
   14814:	00050913          	addi	s2,a0,0
   14818:	00058493          	addi	s1,a1,0
   1481c:	00060413          	addi	s0,a2,0
   14820:	00050863          	beq	a0,zero,14830 <__swbuf_r+0x34>
   14824:	03852783          	lw	a5,56(a0)
   14828:	00079463          	bne	a5,zero,14830 <__swbuf_r+0x34>
   1482c:	5e8000ef          	jal	ra,14e14 <__sinit>
   14830:	01842783          	lw	a5,24(s0)
   14834:	00f42423          	sw	a5,8(s0)
   14838:	00c45783          	lhu	a5,12(s0)
   1483c:	0087f793          	andi	a5,a5,8
   14840:	0a078863          	beq	a5,zero,148f0 <__swbuf_r+0xf4>
   14844:	01042783          	lw	a5,16(s0)
   14848:	0a078463          	beq	a5,zero,148f0 <__swbuf_r+0xf4>
   1484c:	00c41783          	lh	a5,12(s0)
   14850:	0ff4f993          	andi	s3,s1,255
   14854:	0ff4f493          	andi	s1,s1,255
   14858:	01279713          	slli	a4,a5,0x12
   1485c:	0a075663          	bge	a4,zero,14908 <__swbuf_r+0x10c>
   14860:	01042783          	lw	a5,16(s0)
   14864:	00042503          	lw	a0,0(s0)
   14868:	40f50533          	sub	a0,a0,a5
   1486c:	01442783          	lw	a5,20(s0)
   14870:	00f54a63          	blt	a0,a5,14884 <__swbuf_r+0x88>
   14874:	00040593          	addi	a1,s0,0
   14878:	00090513          	addi	a0,s2,0
   1487c:	3fc000ef          	jal	ra,14c78 <_fflush_r>
   14880:	08051063          	bne	a0,zero,14900 <__swbuf_r+0x104>
   14884:	00842783          	lw	a5,8(s0)
   14888:	00150513          	addi	a0,a0,1
   1488c:	fff78793          	addi	a5,a5,-1
   14890:	00f42423          	sw	a5,8(s0)
   14894:	00042783          	lw	a5,0(s0)
   14898:	00178713          	addi	a4,a5,1
   1489c:	00e42023          	sw	a4,0(s0)
   148a0:	01378023          	sb	s3,0(a5)
   148a4:	01442783          	lw	a5,20(s0)
   148a8:	00a78c63          	beq	a5,a0,148c0 <__swbuf_r+0xc4>
   148ac:	00c45783          	lhu	a5,12(s0)
   148b0:	0017f793          	andi	a5,a5,1
   148b4:	00078e63          	beq	a5,zero,148d0 <__swbuf_r+0xd4>
   148b8:	00a00793          	addi	a5,zero,10
   148bc:	00f49a63          	bne	s1,a5,148d0 <__swbuf_r+0xd4>
   148c0:	00040593          	addi	a1,s0,0
   148c4:	00090513          	addi	a0,s2,0
   148c8:	3b0000ef          	jal	ra,14c78 <_fflush_r>
   148cc:	02051a63          	bne	a0,zero,14900 <__swbuf_r+0x104>
   148d0:	01c12083          	lw	ra,28(sp)
   148d4:	01812403          	lw	s0,24(sp)
   148d8:	00048513          	addi	a0,s1,0
   148dc:	01012903          	lw	s2,16(sp)
   148e0:	01412483          	lw	s1,20(sp)
   148e4:	00c12983          	lw	s3,12(sp)
   148e8:	02010113          	addi	sp,sp,32
   148ec:	00008067          	jalr	zero,0(ra)
   148f0:	00040593          	addi	a1,s0,0
   148f4:	00090513          	addi	a0,s2,0
   148f8:	044000ef          	jal	ra,1493c <__swsetup_r>
   148fc:	f40508e3          	beq	a0,zero,1484c <__swbuf_r+0x50>
   14900:	fff00493          	addi	s1,zero,-1
   14904:	fcdff06f          	jal	zero,148d0 <__swbuf_r+0xd4>
   14908:	00002737          	lui	a4,0x2
   1490c:	00e7e7b3          	or	a5,a5,a4
   14910:	00f41623          	sh	a5,12(s0)
   14914:	06442783          	lw	a5,100(s0)
   14918:	ffffe737          	lui	a4,0xffffe
   1491c:	fff70713          	addi	a4,a4,-1 # ffffdfff <__BSS_END__+0xfffd8407>
   14920:	00e7f7b3          	and	a5,a5,a4
   14924:	06f42223          	sw	a5,100(s0)
   14928:	f39ff06f          	jal	zero,14860 <__swbuf_r+0x64>

0001492c <__swbuf>:
   1492c:	00058613          	addi	a2,a1,0
   14930:	00050593          	addi	a1,a0,0
   14934:	1c01a503          	lw	a0,448(gp) # 25b90 <_impure_ptr>
   14938:	ec5ff06f          	jal	zero,147fc <__swbuf_r>

0001493c <__swsetup_r>:
   1493c:	ff010113          	addi	sp,sp,-16
   14940:	00912223          	sw	s1,4(sp)
   14944:	00050493          	addi	s1,a0,0
   14948:	1c01a503          	lw	a0,448(gp) # 25b90 <_impure_ptr>
   1494c:	00812423          	sw	s0,8(sp)
   14950:	00112623          	sw	ra,12(sp)
   14954:	00058413          	addi	s0,a1,0
   14958:	00050863          	beq	a0,zero,14968 <__swsetup_r+0x2c>
   1495c:	03852783          	lw	a5,56(a0)
   14960:	00079463          	bne	a5,zero,14968 <__swsetup_r+0x2c>
   14964:	4b0000ef          	jal	ra,14e14 <__sinit>
   14968:	00c41703          	lh	a4,12(s0)
   1496c:	01071793          	slli	a5,a4,0x10
   14970:	0107d793          	srli	a5,a5,0x10
   14974:	0087f693          	andi	a3,a5,8
   14978:	06069e63          	bne	a3,zero,149f4 <__swsetup_r+0xb8>
   1497c:	0107f693          	andi	a3,a5,16
   14980:	02069663          	bne	a3,zero,149ac <__swsetup_r+0x70>
   14984:	00900793          	addi	a5,zero,9
   14988:	00f4a023          	sw	a5,0(s1)
   1498c:	04076713          	ori	a4,a4,64
   14990:	00e41623          	sh	a4,12(s0)
   14994:	fff00513          	addi	a0,zero,-1
   14998:	00c12083          	lw	ra,12(sp)
   1499c:	00812403          	lw	s0,8(sp)
   149a0:	00412483          	lw	s1,4(sp)
   149a4:	01010113          	addi	sp,sp,16
   149a8:	00008067          	jalr	zero,0(ra)
   149ac:	0047f793          	andi	a5,a5,4
   149b0:	02078c63          	beq	a5,zero,149e8 <__swsetup_r+0xac>
   149b4:	03042583          	lw	a1,48(s0)
   149b8:	00058c63          	beq	a1,zero,149d0 <__swsetup_r+0x94>
   149bc:	04040793          	addi	a5,s0,64
   149c0:	00f58663          	beq	a1,a5,149cc <__swsetup_r+0x90>
   149c4:	00048513          	addi	a0,s1,0
   149c8:	6f0000ef          	jal	ra,150b8 <_free_r>
   149cc:	02042823          	sw	zero,48(s0)
   149d0:	00c45783          	lhu	a5,12(s0)
   149d4:	00042223          	sw	zero,4(s0)
   149d8:	fdb7f793          	andi	a5,a5,-37
   149dc:	00f41623          	sh	a5,12(s0)
   149e0:	01042783          	lw	a5,16(s0)
   149e4:	00f42023          	sw	a5,0(s0)
   149e8:	00c45783          	lhu	a5,12(s0)
   149ec:	0087e793          	ori	a5,a5,8
   149f0:	00f41623          	sh	a5,12(s0)
   149f4:	01042783          	lw	a5,16(s0)
   149f8:	02079063          	bne	a5,zero,14a18 <__swsetup_r+0xdc>
   149fc:	00c45783          	lhu	a5,12(s0)
   14a00:	20000713          	addi	a4,zero,512
   14a04:	2807f793          	andi	a5,a5,640
   14a08:	00e78863          	beq	a5,a4,14a18 <__swsetup_r+0xdc>
   14a0c:	00040593          	addi	a1,s0,0
   14a10:	00048513          	addi	a0,s1,0
   14a14:	7d9020ef          	jal	ra,179ec <__smakebuf_r>
   14a18:	00c45783          	lhu	a5,12(s0)
   14a1c:	0017f713          	andi	a4,a5,1
   14a20:	02070c63          	beq	a4,zero,14a58 <__swsetup_r+0x11c>
   14a24:	01442783          	lw	a5,20(s0)
   14a28:	00042423          	sw	zero,8(s0)
   14a2c:	40f007b3          	sub	a5,zero,a5
   14a30:	00f42c23          	sw	a5,24(s0)
   14a34:	01042783          	lw	a5,16(s0)
   14a38:	00000513          	addi	a0,zero,0
   14a3c:	f4079ee3          	bne	a5,zero,14998 <__swsetup_r+0x5c>
   14a40:	00c41783          	lh	a5,12(s0)
   14a44:	0807f713          	andi	a4,a5,128
   14a48:	f40708e3          	beq	a4,zero,14998 <__swsetup_r+0x5c>
   14a4c:	0407e793          	ori	a5,a5,64
   14a50:	00f41623          	sh	a5,12(s0)
   14a54:	f41ff06f          	jal	zero,14994 <__swsetup_r+0x58>
   14a58:	0027f793          	andi	a5,a5,2
   14a5c:	00000713          	addi	a4,zero,0
   14a60:	00079463          	bne	a5,zero,14a68 <__swsetup_r+0x12c>
   14a64:	01442703          	lw	a4,20(s0)
   14a68:	00e42423          	sw	a4,8(s0)
   14a6c:	fc9ff06f          	jal	zero,14a34 <__swsetup_r+0xf8>

00014a70 <__sflush_r>:
   14a70:	00c59783          	lh	a5,12(a1)
   14a74:	fe010113          	addi	sp,sp,-32
   14a78:	00812c23          	sw	s0,24(sp)
   14a7c:	01079713          	slli	a4,a5,0x10
   14a80:	01075713          	srli	a4,a4,0x10
   14a84:	00912a23          	sw	s1,20(sp)
   14a88:	00112e23          	sw	ra,28(sp)
   14a8c:	01212823          	sw	s2,16(sp)
   14a90:	01312623          	sw	s3,12(sp)
   14a94:	00877693          	andi	a3,a4,8
   14a98:	00050493          	addi	s1,a0,0
   14a9c:	00058413          	addi	s0,a1,0
   14aa0:	16069c63          	bne	a3,zero,14c18 <__sflush_r+0x1a8>
   14aa4:	00001737          	lui	a4,0x1
   14aa8:	80070713          	addi	a4,a4,-2048 # 800 <main-0xf874>
   14aac:	00e7e7b3          	or	a5,a5,a4
   14ab0:	0045a703          	lw	a4,4(a1)
   14ab4:	00f59623          	sh	a5,12(a1)
   14ab8:	02e04663          	blt	zero,a4,14ae4 <__sflush_r+0x74>
   14abc:	03c5a703          	lw	a4,60(a1)
   14ac0:	02e04263          	blt	zero,a4,14ae4 <__sflush_r+0x74>
   14ac4:	00000513          	addi	a0,zero,0
   14ac8:	01c12083          	lw	ra,28(sp)
   14acc:	01812403          	lw	s0,24(sp)
   14ad0:	01412483          	lw	s1,20(sp)
   14ad4:	01012903          	lw	s2,16(sp)
   14ad8:	00c12983          	lw	s3,12(sp)
   14adc:	02010113          	addi	sp,sp,32
   14ae0:	00008067          	jalr	zero,0(ra)
   14ae4:	02842703          	lw	a4,40(s0)
   14ae8:	fc070ee3          	beq	a4,zero,14ac4 <__sflush_r+0x54>
   14aec:	0004a903          	lw	s2,0(s1)
   14af0:	01379693          	slli	a3,a5,0x13
   14af4:	0004a023          	sw	zero,0(s1)
   14af8:	0c06d863          	bge	a3,zero,14bc8 <__sflush_r+0x158>
   14afc:	05042603          	lw	a2,80(s0)
   14b00:	00c45783          	lhu	a5,12(s0)
   14b04:	0047f793          	andi	a5,a5,4
   14b08:	00078e63          	beq	a5,zero,14b24 <__sflush_r+0xb4>
   14b0c:	00442783          	lw	a5,4(s0)
   14b10:	40f60633          	sub	a2,a2,a5
   14b14:	03042783          	lw	a5,48(s0)
   14b18:	00078663          	beq	a5,zero,14b24 <__sflush_r+0xb4>
   14b1c:	03c42783          	lw	a5,60(s0)
   14b20:	40f60633          	sub	a2,a2,a5
   14b24:	02842783          	lw	a5,40(s0)
   14b28:	01c42583          	lw	a1,28(s0)
   14b2c:	00000693          	addi	a3,zero,0
   14b30:	00048513          	addi	a0,s1,0
   14b34:	000780e7          	jalr	ra,0(a5)
   14b38:	fff00793          	addi	a5,zero,-1
   14b3c:	00c45683          	lhu	a3,12(s0)
   14b40:	02f51263          	bne	a0,a5,14b64 <__sflush_r+0xf4>
   14b44:	0004a783          	lw	a5,0(s1)
   14b48:	01d00713          	addi	a4,zero,29
   14b4c:	0af76e63          	bltu	a4,a5,14c08 <__sflush_r+0x198>
   14b50:	20400737          	lui	a4,0x20400
   14b54:	00170713          	addi	a4,a4,1 # 20400001 <__BSS_END__+0x203da409>
   14b58:	00f75733          	srl	a4,a4,a5
   14b5c:	00177713          	andi	a4,a4,1
   14b60:	0a070463          	beq	a4,zero,14c08 <__sflush_r+0x198>
   14b64:	fffff7b7          	lui	a5,0xfffff
   14b68:	7ff78793          	addi	a5,a5,2047 # fffff7ff <__BSS_END__+0xfffd9c07>
   14b6c:	01042703          	lw	a4,16(s0)
   14b70:	00d7f7b3          	and	a5,a5,a3
   14b74:	01079793          	slli	a5,a5,0x10
   14b78:	4107d793          	srai	a5,a5,0x10
   14b7c:	00e42023          	sw	a4,0(s0)
   14b80:	00f41623          	sh	a5,12(s0)
   14b84:	00042223          	sw	zero,4(s0)
   14b88:	01379713          	slli	a4,a5,0x13
   14b8c:	00075c63          	bge	a4,zero,14ba4 <__sflush_r+0x134>
   14b90:	fff00793          	addi	a5,zero,-1
   14b94:	00f51663          	bne	a0,a5,14ba0 <__sflush_r+0x130>
   14b98:	0004a783          	lw	a5,0(s1)
   14b9c:	00079463          	bne	a5,zero,14ba4 <__sflush_r+0x134>
   14ba0:	04a42823          	sw	a0,80(s0)
   14ba4:	03042583          	lw	a1,48(s0)
   14ba8:	0124a023          	sw	s2,0(s1)
   14bac:	f0058ce3          	beq	a1,zero,14ac4 <__sflush_r+0x54>
   14bb0:	04040793          	addi	a5,s0,64
   14bb4:	00f58663          	beq	a1,a5,14bc0 <__sflush_r+0x150>
   14bb8:	00048513          	addi	a0,s1,0
   14bbc:	4fc000ef          	jal	ra,150b8 <_free_r>
   14bc0:	02042823          	sw	zero,48(s0)
   14bc4:	f01ff06f          	jal	zero,14ac4 <__sflush_r+0x54>
   14bc8:	01c42583          	lw	a1,28(s0)
   14bcc:	00000613          	addi	a2,zero,0
   14bd0:	00100693          	addi	a3,zero,1
   14bd4:	00048513          	addi	a0,s1,0
   14bd8:	000700e7          	jalr	ra,0(a4)
   14bdc:	fff00793          	addi	a5,zero,-1
   14be0:	00050613          	addi	a2,a0,0
   14be4:	f0f51ee3          	bne	a0,a5,14b00 <__sflush_r+0x90>
   14be8:	0004a783          	lw	a5,0(s1)
   14bec:	f0078ae3          	beq	a5,zero,14b00 <__sflush_r+0x90>
   14bf0:	01d00713          	addi	a4,zero,29
   14bf4:	00e78663          	beq	a5,a4,14c00 <__sflush_r+0x190>
   14bf8:	01600713          	addi	a4,zero,22
   14bfc:	06e79263          	bne	a5,a4,14c60 <__sflush_r+0x1f0>
   14c00:	0124a023          	sw	s2,0(s1)
   14c04:	ec1ff06f          	jal	zero,14ac4 <__sflush_r+0x54>
   14c08:	0406e793          	ori	a5,a3,64
   14c0c:	00f41623          	sh	a5,12(s0)
   14c10:	fff00513          	addi	a0,zero,-1
   14c14:	eb5ff06f          	jal	zero,14ac8 <__sflush_r+0x58>
   14c18:	0105a983          	lw	s3,16(a1)
   14c1c:	ea0984e3          	beq	s3,zero,14ac4 <__sflush_r+0x54>
   14c20:	0005a903          	lw	s2,0(a1)
   14c24:	00377713          	andi	a4,a4,3
   14c28:	0135a023          	sw	s3,0(a1)
   14c2c:	41390933          	sub	s2,s2,s3
   14c30:	00000793          	addi	a5,zero,0
   14c34:	00071463          	bne	a4,zero,14c3c <__sflush_r+0x1cc>
   14c38:	0145a783          	lw	a5,20(a1)
   14c3c:	00f42423          	sw	a5,8(s0)
   14c40:	e92052e3          	bge	zero,s2,14ac4 <__sflush_r+0x54>
   14c44:	02442783          	lw	a5,36(s0)
   14c48:	01c42583          	lw	a1,28(s0)
   14c4c:	00090693          	addi	a3,s2,0
   14c50:	00098613          	addi	a2,s3,0
   14c54:	00048513          	addi	a0,s1,0
   14c58:	000780e7          	jalr	ra,0(a5)
   14c5c:	00a04863          	blt	zero,a0,14c6c <__sflush_r+0x1fc>
   14c60:	00c45783          	lhu	a5,12(s0)
   14c64:	0407e793          	ori	a5,a5,64
   14c68:	fa5ff06f          	jal	zero,14c0c <__sflush_r+0x19c>
   14c6c:	00a989b3          	add	s3,s3,a0
   14c70:	40a90933          	sub	s2,s2,a0
   14c74:	fcdff06f          	jal	zero,14c40 <__sflush_r+0x1d0>

00014c78 <_fflush_r>:
   14c78:	fe010113          	addi	sp,sp,-32
   14c7c:	00812c23          	sw	s0,24(sp)
   14c80:	00112e23          	sw	ra,28(sp)
   14c84:	00050413          	addi	s0,a0,0
   14c88:	00050c63          	beq	a0,zero,14ca0 <_fflush_r+0x28>
   14c8c:	03852783          	lw	a5,56(a0)
   14c90:	00079863          	bne	a5,zero,14ca0 <_fflush_r+0x28>
   14c94:	00b12623          	sw	a1,12(sp)
   14c98:	17c000ef          	jal	ra,14e14 <__sinit>
   14c9c:	00c12583          	lw	a1,12(sp)
   14ca0:	00c59783          	lh	a5,12(a1)
   14ca4:	00078c63          	beq	a5,zero,14cbc <_fflush_r+0x44>
   14ca8:	00040513          	addi	a0,s0,0
   14cac:	01812403          	lw	s0,24(sp)
   14cb0:	01c12083          	lw	ra,28(sp)
   14cb4:	02010113          	addi	sp,sp,32
   14cb8:	db9ff06f          	jal	zero,14a70 <__sflush_r>
   14cbc:	01c12083          	lw	ra,28(sp)
   14cc0:	01812403          	lw	s0,24(sp)
   14cc4:	00000513          	addi	a0,zero,0
   14cc8:	02010113          	addi	sp,sp,32
   14ccc:	00008067          	jalr	zero,0(ra)

00014cd0 <fflush>:
   14cd0:	00050593          	addi	a1,a0,0
   14cd4:	00051a63          	bne	a0,zero,14ce8 <fflush+0x18>
   14cd8:	1b81a503          	lw	a0,440(gp) # 25b88 <_global_impure_ptr>
   14cdc:	000155b7          	lui	a1,0x15
   14ce0:	c7858593          	addi	a1,a1,-904 # 14c78 <_fflush_r>
   14ce4:	3250006f          	jal	zero,15808 <_fwalk_reent>
   14ce8:	1c01a503          	lw	a0,448(gp) # 25b90 <_impure_ptr>
   14cec:	f8dff06f          	jal	zero,14c78 <_fflush_r>

00014cf0 <__fp_lock>:
   14cf0:	00000513          	addi	a0,zero,0
   14cf4:	00008067          	jalr	zero,0(ra)

00014cf8 <std>:
   14cf8:	ff010113          	addi	sp,sp,-16
   14cfc:	00812423          	sw	s0,8(sp)
   14d00:	00112623          	sw	ra,12(sp)
   14d04:	00050413          	addi	s0,a0,0
   14d08:	00b51623          	sh	a1,12(a0)
   14d0c:	00c51723          	sh	a2,14(a0)
   14d10:	00052023          	sw	zero,0(a0)
   14d14:	00052223          	sw	zero,4(a0)
   14d18:	00052423          	sw	zero,8(a0)
   14d1c:	06052223          	sw	zero,100(a0)
   14d20:	00052823          	sw	zero,16(a0)
   14d24:	00052a23          	sw	zero,20(a0)
   14d28:	00052c23          	sw	zero,24(a0)
   14d2c:	00800613          	addi	a2,zero,8
   14d30:	00000593          	addi	a1,zero,0
   14d34:	05c50513          	addi	a0,a0,92
   14d38:	fdcfb0ef          	jal	ra,10514 <memset>
   14d3c:	0001a7b7          	lui	a5,0x1a
   14d40:	87878793          	addi	a5,a5,-1928 # 19878 <__sread>
   14d44:	02f42023          	sw	a5,32(s0)
   14d48:	0001a7b7          	lui	a5,0x1a
   14d4c:	8d078793          	addi	a5,a5,-1840 # 198d0 <__swrite>
   14d50:	02f42223          	sw	a5,36(s0)
   14d54:	0001a7b7          	lui	a5,0x1a
   14d58:	95478793          	addi	a5,a5,-1708 # 19954 <__sseek>
   14d5c:	02f42423          	sw	a5,40(s0)
   14d60:	0001a7b7          	lui	a5,0x1a
   14d64:	9ac78793          	addi	a5,a5,-1620 # 199ac <__sclose>
   14d68:	00842e23          	sw	s0,28(s0)
   14d6c:	02f42623          	sw	a5,44(s0)
   14d70:	00c12083          	lw	ra,12(sp)
   14d74:	00812403          	lw	s0,8(sp)
   14d78:	01010113          	addi	sp,sp,16
   14d7c:	00008067          	jalr	zero,0(ra)

00014d80 <_cleanup_r>:
   14d80:	0001d5b7          	lui	a1,0x1d
   14d84:	ac458593          	addi	a1,a1,-1340 # 1cac4 <_fclose_r>
   14d88:	2810006f          	jal	zero,15808 <_fwalk_reent>

00014d8c <__fp_unlock>:
   14d8c:	00000513          	addi	a0,zero,0
   14d90:	00008067          	jalr	zero,0(ra)

00014d94 <__sfmoreglue>:
   14d94:	ff010113          	addi	sp,sp,-16
   14d98:	fff58613          	addi	a2,a1,-1
   14d9c:	00812423          	sw	s0,8(sp)
   14da0:	00161413          	slli	s0,a2,0x1
   14da4:	00c40433          	add	s0,s0,a2
   14da8:	00241413          	slli	s0,s0,0x2
   14dac:	00c40433          	add	s0,s0,a2
   14db0:	00341413          	slli	s0,s0,0x3
   14db4:	01212023          	sw	s2,0(sp)
   14db8:	00058913          	addi	s2,a1,0
   14dbc:	07440593          	addi	a1,s0,116
   14dc0:	00912223          	sw	s1,4(sp)
   14dc4:	00112623          	sw	ra,12(sp)
   14dc8:	515020ef          	jal	ra,17adc <_malloc_r>
   14dcc:	00050493          	addi	s1,a0,0
   14dd0:	02050063          	beq	a0,zero,14df0 <__sfmoreglue+0x5c>
   14dd4:	00052023          	sw	zero,0(a0)
   14dd8:	01252223          	sw	s2,4(a0)
   14ddc:	00c50513          	addi	a0,a0,12
   14de0:	00a4a423          	sw	a0,8(s1)
   14de4:	06840613          	addi	a2,s0,104
   14de8:	00000593          	addi	a1,zero,0
   14dec:	f28fb0ef          	jal	ra,10514 <memset>
   14df0:	00c12083          	lw	ra,12(sp)
   14df4:	00812403          	lw	s0,8(sp)
   14df8:	00048513          	addi	a0,s1,0
   14dfc:	00012903          	lw	s2,0(sp)
   14e00:	00412483          	lw	s1,4(sp)
   14e04:	01010113          	addi	sp,sp,16
   14e08:	00008067          	jalr	zero,0(ra)

00014e0c <_cleanup>:
   14e0c:	1b81a503          	lw	a0,440(gp) # 25b88 <_global_impure_ptr>
   14e10:	f71ff06f          	jal	zero,14d80 <_cleanup_r>

00014e14 <__sinit>:
   14e14:	03852783          	lw	a5,56(a0)
   14e18:	06079e63          	bne	a5,zero,14e94 <__sinit+0x80>
   14e1c:	ff010113          	addi	sp,sp,-16
   14e20:	000157b7          	lui	a5,0x15
   14e24:	00112623          	sw	ra,12(sp)
   14e28:	00812423          	sw	s0,8(sp)
   14e2c:	d8078793          	addi	a5,a5,-640 # 14d80 <_cleanup_r>
   14e30:	02f52e23          	sw	a5,60(a0)
   14e34:	00300793          	addi	a5,zero,3
   14e38:	2ef52223          	sw	a5,740(a0)
   14e3c:	2ec50793          	addi	a5,a0,748
   14e40:	00050413          	addi	s0,a0,0
   14e44:	2ef52423          	sw	a5,744(a0)
   14e48:	2e052023          	sw	zero,736(a0)
   14e4c:	00452503          	lw	a0,4(a0)
   14e50:	00000613          	addi	a2,zero,0
   14e54:	00400593          	addi	a1,zero,4
   14e58:	ea1ff0ef          	jal	ra,14cf8 <std>
   14e5c:	00842503          	lw	a0,8(s0)
   14e60:	00100613          	addi	a2,zero,1
   14e64:	00900593          	addi	a1,zero,9
   14e68:	e91ff0ef          	jal	ra,14cf8 <std>
   14e6c:	00c42503          	lw	a0,12(s0)
   14e70:	00200613          	addi	a2,zero,2
   14e74:	01200593          	addi	a1,zero,18
   14e78:	e81ff0ef          	jal	ra,14cf8 <std>
   14e7c:	00100793          	addi	a5,zero,1
   14e80:	02f42c23          	sw	a5,56(s0)
   14e84:	00c12083          	lw	ra,12(sp)
   14e88:	00812403          	lw	s0,8(sp)
   14e8c:	01010113          	addi	sp,sp,16
   14e90:	00008067          	jalr	zero,0(ra)
   14e94:	00008067          	jalr	zero,0(ra)

00014e98 <__sfp>:
   14e98:	ff010113          	addi	sp,sp,-16
   14e9c:	00912223          	sw	s1,4(sp)
   14ea0:	1b81a483          	lw	s1,440(gp) # 25b88 <_global_impure_ptr>
   14ea4:	01212023          	sw	s2,0(sp)
   14ea8:	00112623          	sw	ra,12(sp)
   14eac:	0384a783          	lw	a5,56(s1)
   14eb0:	00812423          	sw	s0,8(sp)
   14eb4:	00050913          	addi	s2,a0,0
   14eb8:	00079663          	bne	a5,zero,14ec4 <__sfp+0x2c>
   14ebc:	00048513          	addi	a0,s1,0
   14ec0:	f55ff0ef          	jal	ra,14e14 <__sinit>
   14ec4:	2e048493          	addi	s1,s1,736
   14ec8:	0084a403          	lw	s0,8(s1)
   14ecc:	0044a783          	lw	a5,4(s1)
   14ed0:	fff78793          	addi	a5,a5,-1
   14ed4:	0007da63          	bge	a5,zero,14ee8 <__sfp+0x50>
   14ed8:	0004a783          	lw	a5,0(s1)
   14edc:	08078063          	beq	a5,zero,14f5c <__sfp+0xc4>
   14ee0:	0004a483          	lw	s1,0(s1)
   14ee4:	fe5ff06f          	jal	zero,14ec8 <__sfp+0x30>
   14ee8:	00c41703          	lh	a4,12(s0)
   14eec:	06071463          	bne	a4,zero,14f54 <__sfp+0xbc>
   14ef0:	ffff07b7          	lui	a5,0xffff0
   14ef4:	00178793          	addi	a5,a5,1 # ffff0001 <__BSS_END__+0xfffca409>
   14ef8:	06042223          	sw	zero,100(s0)
   14efc:	00042023          	sw	zero,0(s0)
   14f00:	00042223          	sw	zero,4(s0)
   14f04:	00042423          	sw	zero,8(s0)
   14f08:	00f42623          	sw	a5,12(s0)
   14f0c:	00042823          	sw	zero,16(s0)
   14f10:	00042a23          	sw	zero,20(s0)
   14f14:	00042c23          	sw	zero,24(s0)
   14f18:	00800613          	addi	a2,zero,8
   14f1c:	00000593          	addi	a1,zero,0
   14f20:	05c40513          	addi	a0,s0,92
   14f24:	df0fb0ef          	jal	ra,10514 <memset>
   14f28:	02042823          	sw	zero,48(s0)
   14f2c:	02042a23          	sw	zero,52(s0)
   14f30:	04042223          	sw	zero,68(s0)
   14f34:	04042423          	sw	zero,72(s0)
   14f38:	00040513          	addi	a0,s0,0
   14f3c:	00c12083          	lw	ra,12(sp)
   14f40:	00812403          	lw	s0,8(sp)
   14f44:	00412483          	lw	s1,4(sp)
   14f48:	00012903          	lw	s2,0(sp)
   14f4c:	01010113          	addi	sp,sp,16
   14f50:	00008067          	jalr	zero,0(ra)
   14f54:	06840413          	addi	s0,s0,104
   14f58:	f79ff06f          	jal	zero,14ed0 <__sfp+0x38>
   14f5c:	00400593          	addi	a1,zero,4
   14f60:	00090513          	addi	a0,s2,0
   14f64:	e31ff0ef          	jal	ra,14d94 <__sfmoreglue>
   14f68:	00a4a023          	sw	a0,0(s1)
   14f6c:	f6051ae3          	bne	a0,zero,14ee0 <__sfp+0x48>
   14f70:	00c00793          	addi	a5,zero,12
   14f74:	00f92023          	sw	a5,0(s2)
   14f78:	00000413          	addi	s0,zero,0
   14f7c:	fbdff06f          	jal	zero,14f38 <__sfp+0xa0>

00014f80 <__sfp_lock_acquire>:
   14f80:	00008067          	jalr	zero,0(ra)

00014f84 <__sfp_lock_release>:
   14f84:	00008067          	jalr	zero,0(ra)

00014f88 <__sinit_lock_acquire>:
   14f88:	00008067          	jalr	zero,0(ra)

00014f8c <__sinit_lock_release>:
   14f8c:	00008067          	jalr	zero,0(ra)

00014f90 <__fp_lock_all>:
   14f90:	1c01a503          	lw	a0,448(gp) # 25b90 <_impure_ptr>
   14f94:	000155b7          	lui	a1,0x15
   14f98:	cf058593          	addi	a1,a1,-784 # 14cf0 <__fp_lock>
   14f9c:	7cc0006f          	jal	zero,15768 <_fwalk>

00014fa0 <__fp_unlock_all>:
   14fa0:	1c01a503          	lw	a0,448(gp) # 25b90 <_impure_ptr>
   14fa4:	000155b7          	lui	a1,0x15
   14fa8:	d8c58593          	addi	a1,a1,-628 # 14d8c <__fp_unlock>
   14fac:	7bc0006f          	jal	zero,15768 <_fwalk>

00014fb0 <_malloc_trim_r>:
   14fb0:	fe010113          	addi	sp,sp,-32
   14fb4:	01212823          	sw	s2,16(sp)
   14fb8:	00812c23          	sw	s0,24(sp)
   14fbc:	00912a23          	sw	s1,20(sp)
   14fc0:	01312623          	sw	s3,12(sp)
   14fc4:	00058413          	addi	s0,a1,0
   14fc8:	00112e23          	sw	ra,28(sp)
   14fcc:	00050993          	addi	s3,a0,0
   14fd0:	d9418913          	addi	s2,gp,-620 # 25764 <__malloc_av_>
   14fd4:	254030ef          	jal	ra,18228 <__malloc_lock>
   14fd8:	00892783          	lw	a5,8(s2)
   14fdc:	00001737          	lui	a4,0x1
   14fe0:	0047a483          	lw	s1,4(a5)
   14fe4:	fef70793          	addi	a5,a4,-17 # fef <main-0xf085>
   14fe8:	40878433          	sub	s0,a5,s0
   14fec:	ffc4f493          	andi	s1,s1,-4
   14ff0:	00940433          	add	s0,s0,s1
   14ff4:	00c45413          	srli	s0,s0,0xc
   14ff8:	fff40413          	addi	s0,s0,-1
   14ffc:	00c41413          	slli	s0,s0,0xc
   15000:	02e45663          	bge	s0,a4,1502c <_malloc_trim_r+0x7c>
   15004:	00098513          	addi	a0,s3,0
   15008:	224030ef          	jal	ra,1822c <__malloc_unlock>
   1500c:	00000513          	addi	a0,zero,0
   15010:	01c12083          	lw	ra,28(sp)
   15014:	01812403          	lw	s0,24(sp)
   15018:	01412483          	lw	s1,20(sp)
   1501c:	01012903          	lw	s2,16(sp)
   15020:	00c12983          	lw	s3,12(sp)
   15024:	02010113          	addi	sp,sp,32
   15028:	00008067          	jalr	zero,0(ra)
   1502c:	00000593          	addi	a1,zero,0
   15030:	00098513          	addi	a0,s3,0
   15034:	678040ef          	jal	ra,196ac <_sbrk_r>
   15038:	00892783          	lw	a5,8(s2)
   1503c:	009787b3          	add	a5,a5,s1
   15040:	fcf512e3          	bne	a0,a5,15004 <_malloc_trim_r+0x54>
   15044:	408005b3          	sub	a1,zero,s0
   15048:	00098513          	addi	a0,s3,0
   1504c:	660040ef          	jal	ra,196ac <_sbrk_r>
   15050:	fff00793          	addi	a5,zero,-1
   15054:	02f51c63          	bne	a0,a5,1508c <_malloc_trim_r+0xdc>
   15058:	00000593          	addi	a1,zero,0
   1505c:	00098513          	addi	a0,s3,0
   15060:	64c040ef          	jal	ra,196ac <_sbrk_r>
   15064:	00892703          	lw	a4,8(s2)
   15068:	00f00693          	addi	a3,zero,15
   1506c:	40e507b3          	sub	a5,a0,a4
   15070:	f8f6dae3          	bge	a3,a5,15004 <_malloc_trim_r+0x54>
   15074:	1c41a683          	lw	a3,452(gp) # 25b94 <__malloc_sbrk_base>
   15078:	0017e793          	ori	a5,a5,1
   1507c:	00f72223          	sw	a5,4(a4)
   15080:	40d50533          	sub	a0,a0,a3
   15084:	1ea1ae23          	sw	a0,508(gp) # 25bcc <__malloc_current_mallinfo>
   15088:	f7dff06f          	jal	zero,15004 <_malloc_trim_r+0x54>
   1508c:	00892783          	lw	a5,8(s2)
   15090:	408484b3          	sub	s1,s1,s0
   15094:	0014e493          	ori	s1,s1,1
   15098:	0097a223          	sw	s1,4(a5)
   1509c:	1fc1a783          	lw	a5,508(gp) # 25bcc <__malloc_current_mallinfo>
   150a0:	00098513          	addi	a0,s3,0
   150a4:	40878433          	sub	s0,a5,s0
   150a8:	1e81ae23          	sw	s0,508(gp) # 25bcc <__malloc_current_mallinfo>
   150ac:	180030ef          	jal	ra,1822c <__malloc_unlock>
   150b0:	00100513          	addi	a0,zero,1
   150b4:	f5dff06f          	jal	zero,15010 <_malloc_trim_r+0x60>

000150b8 <_free_r>:
   150b8:	24058663          	beq	a1,zero,15304 <_free_r+0x24c>
   150bc:	ff010113          	addi	sp,sp,-16
   150c0:	00812423          	sw	s0,8(sp)
   150c4:	00912223          	sw	s1,4(sp)
   150c8:	00050413          	addi	s0,a0,0
   150cc:	00058493          	addi	s1,a1,0
   150d0:	00112623          	sw	ra,12(sp)
   150d4:	154030ef          	jal	ra,18228 <__malloc_lock>
   150d8:	ffc4a503          	lw	a0,-4(s1)
   150dc:	ff848693          	addi	a3,s1,-8
   150e0:	ffe57793          	andi	a5,a0,-2
   150e4:	d9418813          	addi	a6,gp,-620 # 25764 <__malloc_av_>
   150e8:	00f685b3          	add	a1,a3,a5
   150ec:	0045a703          	lw	a4,4(a1)
   150f0:	00882803          	lw	a6,8(a6)
   150f4:	d9418613          	addi	a2,gp,-620 # 25764 <__malloc_av_>
   150f8:	ffc77713          	andi	a4,a4,-4
   150fc:	00157513          	andi	a0,a0,1
   15100:	06b81063          	bne	a6,a1,15160 <_free_r+0xa8>
   15104:	00e787b3          	add	a5,a5,a4
   15108:	02051063          	bne	a0,zero,15128 <_free_r+0x70>
   1510c:	ff84a703          	lw	a4,-8(s1)
   15110:	40e686b3          	sub	a3,a3,a4
   15114:	0086a583          	lw	a1,8(a3)
   15118:	00e787b3          	add	a5,a5,a4
   1511c:	00c6a703          	lw	a4,12(a3)
   15120:	00e5a623          	sw	a4,12(a1)
   15124:	00b72423          	sw	a1,8(a4)
   15128:	0017e713          	ori	a4,a5,1
   1512c:	00e6a223          	sw	a4,4(a3)
   15130:	1c81a703          	lw	a4,456(gp) # 25b98 <__malloc_trim_threshold>
   15134:	00d62423          	sw	a3,8(a2)
   15138:	00e7e863          	bltu	a5,a4,15148 <_free_r+0x90>
   1513c:	1d81a583          	lw	a1,472(gp) # 25ba8 <__malloc_top_pad>
   15140:	00040513          	addi	a0,s0,0
   15144:	e6dff0ef          	jal	ra,14fb0 <_malloc_trim_r>
   15148:	00040513          	addi	a0,s0,0
   1514c:	00812403          	lw	s0,8(sp)
   15150:	00c12083          	lw	ra,12(sp)
   15154:	00412483          	lw	s1,4(sp)
   15158:	01010113          	addi	sp,sp,16
   1515c:	0d00306f          	jal	zero,1822c <__malloc_unlock>
   15160:	00e5a223          	sw	a4,4(a1)
   15164:	00000813          	addi	a6,zero,0
   15168:	02051463          	bne	a0,zero,15190 <_free_r+0xd8>
   1516c:	ff84a503          	lw	a0,-8(s1)
   15170:	d9c18893          	addi	a7,gp,-612 # 2576c <__malloc_av_+0x8>
   15174:	40a686b3          	sub	a3,a3,a0
   15178:	00a787b3          	add	a5,a5,a0
   1517c:	0086a503          	lw	a0,8(a3)
   15180:	0b150463          	beq	a0,a7,15228 <_free_r+0x170>
   15184:	00c6a883          	lw	a7,12(a3)
   15188:	01152623          	sw	a7,12(a0)
   1518c:	00a8a423          	sw	a0,8(a7)
   15190:	00e58533          	add	a0,a1,a4
   15194:	00452503          	lw	a0,4(a0)
   15198:	00157513          	andi	a0,a0,1
   1519c:	02051663          	bne	a0,zero,151c8 <_free_r+0x110>
   151a0:	00e787b3          	add	a5,a5,a4
   151a4:	0085a703          	lw	a4,8(a1)
   151a8:	08081463          	bne	a6,zero,15230 <_free_r+0x178>
   151ac:	d9c18513          	addi	a0,gp,-612 # 2576c <__malloc_av_+0x8>
   151b0:	08a71063          	bne	a4,a0,15230 <_free_r+0x178>
   151b4:	00d62a23          	sw	a3,20(a2)
   151b8:	00d62823          	sw	a3,16(a2)
   151bc:	00e6a623          	sw	a4,12(a3)
   151c0:	00e6a423          	sw	a4,8(a3)
   151c4:	00100813          	addi	a6,zero,1
   151c8:	0017e713          	ori	a4,a5,1
   151cc:	00e6a223          	sw	a4,4(a3)
   151d0:	00f68733          	add	a4,a3,a5
   151d4:	00f72023          	sw	a5,0(a4)
   151d8:	f60818e3          	bne	a6,zero,15148 <_free_r+0x90>
   151dc:	1ff00713          	addi	a4,zero,511
   151e0:	06f76063          	bltu	a4,a5,15240 <_free_r+0x188>
   151e4:	0037d793          	srli	a5,a5,0x3
   151e8:	4027d593          	srai	a1,a5,0x2
   151ec:	00100713          	addi	a4,zero,1
   151f0:	00b71733          	sll	a4,a4,a1
   151f4:	00462583          	lw	a1,4(a2)
   151f8:	00178793          	addi	a5,a5,1
   151fc:	00379793          	slli	a5,a5,0x3
   15200:	00f607b3          	add	a5,a2,a5
   15204:	00b76733          	or	a4,a4,a1
   15208:	00e62223          	sw	a4,4(a2)
   1520c:	0007a703          	lw	a4,0(a5)
   15210:	ff878613          	addi	a2,a5,-8
   15214:	00c6a623          	sw	a2,12(a3)
   15218:	00e6a423          	sw	a4,8(a3)
   1521c:	00d7a023          	sw	a3,0(a5)
   15220:	00d72623          	sw	a3,12(a4)
   15224:	f25ff06f          	jal	zero,15148 <_free_r+0x90>
   15228:	00100813          	addi	a6,zero,1
   1522c:	f65ff06f          	jal	zero,15190 <_free_r+0xd8>
   15230:	00c5a583          	lw	a1,12(a1)
   15234:	00b72623          	sw	a1,12(a4)
   15238:	00e5a423          	sw	a4,8(a1)
   1523c:	f8dff06f          	jal	zero,151c8 <_free_r+0x110>
   15240:	0097d593          	srli	a1,a5,0x9
   15244:	00400713          	addi	a4,zero,4
   15248:	04b76863          	bltu	a4,a1,15298 <_free_r+0x1e0>
   1524c:	0067d713          	srli	a4,a5,0x6
   15250:	03870713          	addi	a4,a4,56
   15254:	00170593          	addi	a1,a4,1
   15258:	00359593          	slli	a1,a1,0x3
   1525c:	00b605b3          	add	a1,a2,a1
   15260:	ff858513          	addi	a0,a1,-8
   15264:	0005a583          	lw	a1,0(a1)
   15268:	08b51463          	bne	a0,a1,152f0 <_free_r+0x238>
   1526c:	00100793          	addi	a5,zero,1
   15270:	40275713          	srai	a4,a4,0x2
   15274:	00e79733          	sll	a4,a5,a4
   15278:	00462783          	lw	a5,4(a2)
   1527c:	00f76733          	or	a4,a4,a5
   15280:	00e62223          	sw	a4,4(a2)
   15284:	00a6a623          	sw	a0,12(a3)
   15288:	00b6a423          	sw	a1,8(a3)
   1528c:	00d52423          	sw	a3,8(a0)
   15290:	00d5a623          	sw	a3,12(a1)
   15294:	eb5ff06f          	jal	zero,15148 <_free_r+0x90>
   15298:	01400713          	addi	a4,zero,20
   1529c:	00b76663          	bltu	a4,a1,152a8 <_free_r+0x1f0>
   152a0:	05b58713          	addi	a4,a1,91
   152a4:	fb1ff06f          	jal	zero,15254 <_free_r+0x19c>
   152a8:	05400713          	addi	a4,zero,84
   152ac:	00b76863          	bltu	a4,a1,152bc <_free_r+0x204>
   152b0:	00c7d713          	srli	a4,a5,0xc
   152b4:	06e70713          	addi	a4,a4,110
   152b8:	f9dff06f          	jal	zero,15254 <_free_r+0x19c>
   152bc:	15400713          	addi	a4,zero,340
   152c0:	00b76863          	bltu	a4,a1,152d0 <_free_r+0x218>
   152c4:	00f7d713          	srli	a4,a5,0xf
   152c8:	07770713          	addi	a4,a4,119
   152cc:	f89ff06f          	jal	zero,15254 <_free_r+0x19c>
   152d0:	55400513          	addi	a0,zero,1364
   152d4:	07e00713          	addi	a4,zero,126
   152d8:	f6b56ee3          	bltu	a0,a1,15254 <_free_r+0x19c>
   152dc:	0127d713          	srli	a4,a5,0x12
   152e0:	07c70713          	addi	a4,a4,124
   152e4:	f71ff06f          	jal	zero,15254 <_free_r+0x19c>
   152e8:	0085a583          	lw	a1,8(a1)
   152ec:	00b50863          	beq	a0,a1,152fc <_free_r+0x244>
   152f0:	0045a703          	lw	a4,4(a1)
   152f4:	ffc77713          	andi	a4,a4,-4
   152f8:	fee7e8e3          	bltu	a5,a4,152e8 <_free_r+0x230>
   152fc:	00c5a503          	lw	a0,12(a1)
   15300:	f85ff06f          	jal	zero,15284 <_free_r+0x1cc>
   15304:	00008067          	jalr	zero,0(ra)

00015308 <__sfvwrite_r>:
   15308:	00862783          	lw	a5,8(a2)
   1530c:	00079863          	bne	a5,zero,1531c <__sfvwrite_r+0x14>
   15310:	00000793          	addi	a5,zero,0
   15314:	00078513          	addi	a0,a5,0
   15318:	00008067          	jalr	zero,0(ra)
   1531c:	00c5d783          	lhu	a5,12(a1)
   15320:	fc010113          	addi	sp,sp,-64
   15324:	02812c23          	sw	s0,56(sp)
   15328:	03212823          	sw	s2,48(sp)
   1532c:	03612023          	sw	s6,32(sp)
   15330:	02112e23          	sw	ra,60(sp)
   15334:	02912a23          	sw	s1,52(sp)
   15338:	03312623          	sw	s3,44(sp)
   1533c:	03412423          	sw	s4,40(sp)
   15340:	03512223          	sw	s5,36(sp)
   15344:	01712e23          	sw	s7,28(sp)
   15348:	01812c23          	sw	s8,24(sp)
   1534c:	01912a23          	sw	s9,20(sp)
   15350:	01a12823          	sw	s10,16(sp)
   15354:	01b12623          	sw	s11,12(sp)
   15358:	0087f793          	andi	a5,a5,8
   1535c:	00060b13          	addi	s6,a2,0
   15360:	00058413          	addi	s0,a1,0
   15364:	00050913          	addi	s2,a0,0
   15368:	0e078263          	beq	a5,zero,1544c <__sfvwrite_r+0x144>
   1536c:	0105a783          	lw	a5,16(a1)
   15370:	0c078e63          	beq	a5,zero,1544c <__sfvwrite_r+0x144>
   15374:	00c45783          	lhu	a5,12(s0)
   15378:	000b2a03          	lw	s4,0(s6)
   1537c:	0027f713          	andi	a4,a5,2
   15380:	16071a63          	bne	a4,zero,154f4 <__sfvwrite_r+0x1ec>
   15384:	0017f793          	andi	a5,a5,1
   15388:	00000b93          	addi	s7,zero,0
   1538c:	20078a63          	beq	a5,zero,155a0 <__sfvwrite_r+0x298>
   15390:	00000513          	addi	a0,zero,0
   15394:	00000a93          	addi	s5,zero,0
   15398:	00000993          	addi	s3,zero,0
   1539c:	36098463          	beq	s3,zero,15704 <__sfvwrite_r+0x3fc>
   153a0:	02051263          	bne	a0,zero,153c4 <__sfvwrite_r+0xbc>
   153a4:	00098613          	addi	a2,s3,0
   153a8:	00a00593          	addi	a1,zero,10
   153ac:	000a8513          	addi	a0,s5,0
   153b0:	5f9020ef          	jal	ra,181a8 <memchr>
   153b4:	00198b93          	addi	s7,s3,1
   153b8:	00050663          	beq	a0,zero,153c4 <__sfvwrite_r+0xbc>
   153bc:	00150513          	addi	a0,a0,1
   153c0:	41550bb3          	sub	s7,a0,s5
   153c4:	000b8c13          	addi	s8,s7,0
   153c8:	0179f463          	bgeu	s3,s7,153d0 <__sfvwrite_r+0xc8>
   153cc:	00098c13          	addi	s8,s3,0
   153d0:	00042503          	lw	a0,0(s0)
   153d4:	01042783          	lw	a5,16(s0)
   153d8:	01442683          	lw	a3,20(s0)
   153dc:	32a7fe63          	bgeu	a5,a0,15718 <__sfvwrite_r+0x410>
   153e0:	00842483          	lw	s1,8(s0)
   153e4:	009684b3          	add	s1,a3,s1
   153e8:	3384d863          	bge	s1,s8,15718 <__sfvwrite_r+0x410>
   153ec:	000a8593          	addi	a1,s5,0
   153f0:	00048613          	addi	a2,s1,0
   153f4:	5d9020ef          	jal	ra,181cc <memmove>
   153f8:	00042783          	lw	a5,0(s0)
   153fc:	00040593          	addi	a1,s0,0
   15400:	00090513          	addi	a0,s2,0
   15404:	009787b3          	add	a5,a5,s1
