
test.elf:     file format elf32-littleriscv


Disassembly of section .text:

00010074 <main>:
   10074:	00023537          	lui	a0,0x23
   10078:	f0010113          	addi	sp,sp,-256
   1007c:	3f850513          	addi	a0,a0,1016 # 233f8 <rsbox+0x294>
   10080:	0e112e23          	sw	ra,252(sp)
   10084:	0e812c23          	sw	s0,248(sp)
   10088:	0e912a23          	sw	s1,244(sp)
   1008c:	0f212823          	sw	s2,240(sp)
   10090:	6c0020ef          	jal	ra,12750 <puts>
   10094:	669010ef          	jal	ra,11efc <test_encrypt_cbc>
   10098:	00050493          	addi	s1,a0,0
   1009c:	79d010ef          	jal	ra,12038 <test_decrypt_cbc>
   100a0:	00a484b3          	add	s1,s1,a0
   100a4:	00023537          	lui	a0,0x23
   100a8:	40c50513          	addi	a0,a0,1036 # 2340c <rsbox+0x2a8>
   100ac:	0c8020ef          	jal	ra,12174 <test_xcrypt_ctr>
   100b0:	00a484b3          	add	s1,s1,a0
   100b4:	00023537          	lui	a0,0x23
   100b8:	41450513          	addi	a0,a0,1044 # 23414 <rsbox+0x2b0>
   100bc:	00023437          	lui	s0,0x23
   100c0:	0b4020ef          	jal	ra,12174 <test_xcrypt_ctr>
   100c4:	26440413          	addi	s0,s0,612 # 23264 <rsbox+0x100>
   100c8:	10842703          	lw	a4,264(s0)
   100cc:	10c42783          	lw	a5,268(s0)
   100d0:	00042283          	lw	t0,0(s0)
   100d4:	00442f83          	lw	t6,4(s0)
   100d8:	00842f03          	lw	t5,8(s0)
   100dc:	00c42e83          	lw	t4,12(s0)
   100e0:	0f042e03          	lw	t3,240(s0)
   100e4:	0f442303          	lw	t1,244(s0)
   100e8:	0f842883          	lw	a7,248(s0)
   100ec:	0fc42803          	lw	a6,252(s0)
   100f0:	10042603          	lw	a2,256(s0)
   100f4:	10442683          	lw	a3,260(s0)
   100f8:	00010593          	addi	a1,sp,0
   100fc:	00a484b3          	add	s1,s1,a0
   10100:	03010513          	addi	a0,sp,48
   10104:	02e12423          	sw	a4,40(sp)
   10108:	02f12623          	sw	a5,44(sp)
   1010c:	00512023          	sw	t0,0(sp)
   10110:	01f12223          	sw	t6,4(sp)
   10114:	01e12423          	sw	t5,8(sp)
   10118:	01d12623          	sw	t4,12(sp)
   1011c:	01c12823          	sw	t3,16(sp)
   10120:	00612a23          	sw	t1,20(sp)
   10124:	01112c23          	sw	a7,24(sp)
   10128:	01012e23          	sw	a6,28(sp)
   1012c:	02c12023          	sw	a2,32(sp)
   10130:	02d12223          	sw	a3,36(sp)
   10134:	071010ef          	jal	ra,119a4 <AES_init_ctx>
   10138:	01010593          	addi	a1,sp,16
   1013c:	03010513          	addi	a0,sp,48
   10140:	0c1010ef          	jal	ra,11a00 <AES_ECB_decrypt>
   10144:	00023537          	lui	a0,0x23
   10148:	41c50513          	addi	a0,a0,1052 # 2341c <rsbox+0x2b8>
   1014c:	438020ef          	jal	ra,12584 <printf>
   10150:	02012703          	lw	a4,32(sp)
   10154:	01012783          	lw	a5,16(sp)
   10158:	0cf70e63          	beq	a4,a5,10234 <main+0x1c0>
   1015c:	00023537          	lui	a0,0x23
   10160:	39050513          	addi	a0,a0,912 # 23390 <rsbox+0x22c>
   10164:	5ec020ef          	jal	ra,12750 <puts>
   10168:	00100913          	addi	s2,zero,1
   1016c:	10842703          	lw	a4,264(s0)
   10170:	10c42783          	lw	a5,268(s0)
   10174:	00042283          	lw	t0,0(s0)
   10178:	00442f83          	lw	t6,4(s0)
   1017c:	00842f03          	lw	t5,8(s0)
   10180:	00c42e83          	lw	t4,12(s0)
   10184:	0f042e03          	lw	t3,240(s0)
   10188:	0f442303          	lw	t1,244(s0)
   1018c:	0f842883          	lw	a7,248(s0)
   10190:	0fc42803          	lw	a6,252(s0)
   10194:	10042603          	lw	a2,256(s0)
   10198:	10442683          	lw	a3,260(s0)
   1019c:	00010593          	addi	a1,sp,0
   101a0:	03010513          	addi	a0,sp,48
   101a4:	02e12423          	sw	a4,40(sp)
   101a8:	02f12623          	sw	a5,44(sp)
   101ac:	00512023          	sw	t0,0(sp)
   101b0:	01f12223          	sw	t6,4(sp)
   101b4:	01e12423          	sw	t5,8(sp)
   101b8:	01d12623          	sw	t4,12(sp)
   101bc:	01c12823          	sw	t3,16(sp)
   101c0:	00612a23          	sw	t1,20(sp)
   101c4:	01112c23          	sw	a7,24(sp)
   101c8:	01012e23          	sw	a6,28(sp)
   101cc:	02c12023          	sw	a2,32(sp)
   101d0:	02d12223          	sw	a3,36(sp)
   101d4:	7d0010ef          	jal	ra,119a4 <AES_init_ctx>
   101d8:	02010593          	addi	a1,sp,32
   101dc:	03010513          	addi	a0,sp,48
   101e0:	011010ef          	jal	ra,119f0 <AES_ECB_encrypt>
   101e4:	00023537          	lui	a0,0x23
   101e8:	42c50513          	addi	a0,a0,1068 # 2342c <rsbox+0x2c8>
   101ec:	398020ef          	jal	ra,12584 <printf>
   101f0:	01012703          	lw	a4,16(sp)
   101f4:	02012783          	lw	a5,32(sp)
   101f8:	012484b3          	add	s1,s1,s2
   101fc:	06f70863          	beq	a4,a5,1026c <main+0x1f8>
   10200:	00023537          	lui	a0,0x23
   10204:	39050513          	addi	a0,a0,912 # 23390 <rsbox+0x22c>
   10208:	548020ef          	jal	ra,12750 <puts>
   1020c:	00100413          	addi	s0,zero,1
   10210:	0a8020ef          	jal	ra,122b8 <test_encrypt_ecb_verbose>
   10214:	008484b3          	add	s1,s1,s0
   10218:	0fc12083          	lw	ra,252(sp)
   1021c:	0f812403          	lw	s0,248(sp)
   10220:	00048513          	addi	a0,s1,0
   10224:	0f012903          	lw	s2,240(sp)
   10228:	0f412483          	lw	s1,244(sp)
   1022c:	10010113          	addi	sp,sp,256
   10230:	00008067          	jalr	zero,0(ra)
   10234:	02412703          	lw	a4,36(sp)
   10238:	01412783          	lw	a5,20(sp)
   1023c:	f2f710e3          	bne	a4,a5,1015c <main+0xe8>
   10240:	02812703          	lw	a4,40(sp)
   10244:	01812783          	lw	a5,24(sp)
   10248:	f0f71ae3          	bne	a4,a5,1015c <main+0xe8>
   1024c:	02c12703          	lw	a4,44(sp)
   10250:	01c12783          	lw	a5,28(sp)
   10254:	f0f714e3          	bne	a4,a5,1015c <main+0xe8>
   10258:	00023537          	lui	a0,0x23
   1025c:	38450513          	addi	a0,a0,900 # 23384 <rsbox+0x220>
   10260:	00000913          	addi	s2,zero,0
   10264:	4ec020ef          	jal	ra,12750 <puts>
   10268:	f05ff06f          	jal	zero,1016c <main+0xf8>
   1026c:	01412703          	lw	a4,20(sp)
   10270:	02412783          	lw	a5,36(sp)
   10274:	f8f716e3          	bne	a4,a5,10200 <main+0x18c>
   10278:	01812703          	lw	a4,24(sp)
   1027c:	02812783          	lw	a5,40(sp)
   10280:	f8f710e3          	bne	a4,a5,10200 <main+0x18c>
   10284:	01c12703          	lw	a4,28(sp)
   10288:	02c12783          	lw	a5,44(sp)
   1028c:	f6f71ae3          	bne	a4,a5,10200 <main+0x18c>
   10290:	00023537          	lui	a0,0x23
   10294:	38450513          	addi	a0,a0,900 # 23384 <rsbox+0x220>
   10298:	00000413          	addi	s0,zero,0
   1029c:	4b4020ef          	jal	ra,12750 <puts>
   102a0:	f71ff06f          	jal	zero,10210 <main+0x19c>

000102a4 <_start>:
   102a4:	00015197          	auipc	gp,0x15
   102a8:	72c18193          	addi	gp,gp,1836 # 259d0 <__global_pointer$>
   102ac:	1cc18513          	addi	a0,gp,460 # 25b9c <_edata>
   102b0:	22818613          	addi	a2,gp,552 # 25bf8 <__BSS_END__>
   102b4:	40a60633          	sub	a2,a2,a0
   102b8:	00000593          	addi	a1,zero,0
   102bc:	258000ef          	jal	ra,10514 <memset>
   102c0:	00000517          	auipc	a0,0x0
   102c4:	15050513          	addi	a0,a0,336 # 10410 <__libc_fini_array>
   102c8:	104000ef          	jal	ra,103cc <atexit>
   102cc:	1a0000ef          	jal	ra,1046c <__libc_init_array>
   102d0:	00012503          	lw	a0,0(sp)
   102d4:	00410593          	addi	a1,sp,4
   102d8:	00000613          	addi	a2,zero,0
   102dc:	d99ff0ef          	jal	ra,10074 <main>
   102e0:	1000006f          	jal	zero,103e0 <exit>

000102e4 <_fini>:
   102e4:	00008067          	jalr	zero,0(ra)

000102e8 <deregister_tm_clones>:
   102e8:	19c18713          	addi	a4,gp,412 # 25b6c <__TMC_END__>
   102ec:	19c18793          	addi	a5,gp,412 # 25b6c <__TMC_END__>
   102f0:	00e78c63          	beq	a5,a4,10308 <deregister_tm_clones+0x20>
   102f4:	00000337          	lui	t1,0x0
   102f8:	00030313          	addi	t1,t1,0 # 0 <main-0x10074>
   102fc:	00030663          	beq	t1,zero,10308 <deregister_tm_clones+0x20>
   10300:	19c18513          	addi	a0,gp,412 # 25b6c <__TMC_END__>
   10304:	00030067          	jalr	zero,0(t1)
   10308:	00008067          	jalr	zero,0(ra)

0001030c <register_tm_clones>:
   1030c:	19c18593          	addi	a1,gp,412 # 25b6c <__TMC_END__>
   10310:	19c18793          	addi	a5,gp,412 # 25b6c <__TMC_END__>
   10314:	40f585b3          	sub	a1,a1,a5
   10318:	4025d593          	srai	a1,a1,0x2
   1031c:	01f5d793          	srli	a5,a1,0x1f
   10320:	00b785b3          	add	a1,a5,a1
   10324:	4015d593          	srai	a1,a1,0x1
   10328:	00058c63          	beq	a1,zero,10340 <register_tm_clones+0x34>
   1032c:	00000337          	lui	t1,0x0
   10330:	00030313          	addi	t1,t1,0 # 0 <main-0x10074>
   10334:	00030663          	beq	t1,zero,10340 <register_tm_clones+0x34>
   10338:	19c18513          	addi	a0,gp,412 # 25b6c <__TMC_END__>
   1033c:	00030067          	jalr	zero,0(t1)
   10340:	00008067          	jalr	zero,0(ra)

00010344 <__do_global_dtors_aux>:
   10344:	1e01c703          	lbu	a4,480(gp) # 25bb0 <completed.5430>
   10348:	04071663          	bne	a4,zero,10394 <__do_global_dtors_aux+0x50>
   1034c:	ff010113          	addi	sp,sp,-16
   10350:	00812423          	sw	s0,8(sp)
   10354:	00112623          	sw	ra,12(sp)
   10358:	00078413          	addi	s0,a5,0
   1035c:	f8dff0ef          	jal	ra,102e8 <deregister_tm_clones>
   10360:	000007b7          	lui	a5,0x0
   10364:	00078793          	addi	a5,a5,0 # 0 <main-0x10074>
   10368:	00078a63          	beq	a5,zero,1037c <__do_global_dtors_aux+0x38>
   1036c:	00025537          	lui	a0,0x25
   10370:	11450513          	addi	a0,a0,276 # 25114 <__EH_FRAME_BEGIN__>
   10374:	00000097          	auipc	ra,0x0
   10378:	000000e7          	jalr	ra,0(zero) # 0 <main-0x10074>
   1037c:	00100793          	addi	a5,zero,1
   10380:	1ef18023          	sb	a5,480(gp) # 25bb0 <completed.5430>
   10384:	00c12083          	lw	ra,12(sp)
   10388:	00812403          	lw	s0,8(sp)
   1038c:	01010113          	addi	sp,sp,16
   10390:	00008067          	jalr	zero,0(ra) # 10374 <__do_global_dtors_aux+0x30>
   10394:	00008067          	jalr	zero,0(ra)

00010398 <frame_dummy>:
   10398:	000007b7          	lui	a5,0x0
   1039c:	00078793          	addi	a5,a5,0 # 0 <main-0x10074>
   103a0:	02078463          	beq	a5,zero,103c8 <frame_dummy+0x30>
   103a4:	00025537          	lui	a0,0x25
   103a8:	ff010113          	addi	sp,sp,-16
   103ac:	1e418593          	addi	a1,gp,484 # 25bb4 <object.5435>
   103b0:	11450513          	addi	a0,a0,276 # 25114 <__EH_FRAME_BEGIN__>
   103b4:	00112623          	sw	ra,12(sp)
   103b8:	00000097          	auipc	ra,0x0
   103bc:	000000e7          	jalr	ra,0(zero) # 0 <main-0x10074>
   103c0:	00c12083          	lw	ra,12(sp)
   103c4:	01010113          	addi	sp,sp,16
   103c8:	f45ff06f          	jal	zero,1030c <register_tm_clones>

000103cc <atexit>:
   103cc:	00050593          	addi	a1,a0,0
   103d0:	00000693          	addi	a3,zero,0
   103d4:	00000613          	addi	a2,zero,0
   103d8:	00000513          	addi	a0,zero,0
   103dc:	2140006f          	jal	zero,105f0 <__register_exitproc>

000103e0 <exit>:
   103e0:	ff010113          	addi	sp,sp,-16
   103e4:	00000593          	addi	a1,zero,0
   103e8:	00812423          	sw	s0,8(sp)
   103ec:	00112623          	sw	ra,12(sp)
   103f0:	00050413          	addi	s0,a0,0
   103f4:	278000ef          	jal	ra,1066c <__call_exitprocs>
   103f8:	1b81a503          	lw	a0,440(gp) # 25b88 <_global_impure_ptr>
   103fc:	03c52783          	lw	a5,60(a0)
   10400:	00078463          	beq	a5,zero,10408 <exit+0x28>
   10404:	000780e7          	jalr	ra,0(a5)
   10408:	00040513          	addi	a0,s0,0
   1040c:	28d0d0ef          	jal	ra,1de98 <_exit>

00010410 <__libc_fini_array>:
   10410:	ff010113          	addi	sp,sp,-16
   10414:	000257b7          	lui	a5,0x25
   10418:	00812423          	sw	s0,8(sp)
   1041c:	00025437          	lui	s0,0x25
   10420:	1cc78713          	addi	a4,a5,460 # 251cc <__init_array_end>
   10424:	1d040413          	addi	s0,s0,464 # 251d0 <__fini_array_end>
   10428:	40e40433          	sub	s0,s0,a4
   1042c:	00912223          	sw	s1,4(sp)
   10430:	00112623          	sw	ra,12(sp)
   10434:	40245413          	srai	s0,s0,0x2
   10438:	1cc78493          	addi	s1,a5,460
   1043c:	00041c63          	bne	s0,zero,10454 <__libc_fini_array+0x44>
   10440:	00812403          	lw	s0,8(sp)
   10444:	00c12083          	lw	ra,12(sp)
   10448:	00412483          	lw	s1,4(sp)
   1044c:	01010113          	addi	sp,sp,16
   10450:	e95ff06f          	jal	zero,102e4 <_fini>
   10454:	fff40413          	addi	s0,s0,-1
   10458:	00241793          	slli	a5,s0,0x2
   1045c:	00f487b3          	add	a5,s1,a5
   10460:	0007a783          	lw	a5,0(a5)
   10464:	000780e7          	jalr	ra,0(a5)
   10468:	fd5ff06f          	jal	zero,1043c <__libc_fini_array+0x2c>

0001046c <__libc_init_array>:
   1046c:	ff010113          	addi	sp,sp,-16
   10470:	000257b7          	lui	a5,0x25
   10474:	00812423          	sw	s0,8(sp)
   10478:	00025437          	lui	s0,0x25
   1047c:	1c878713          	addi	a4,a5,456 # 251c8 <__frame_dummy_init_array_entry>
   10480:	1c840413          	addi	s0,s0,456 # 251c8 <__frame_dummy_init_array_entry>
   10484:	40e40433          	sub	s0,s0,a4
   10488:	00912223          	sw	s1,4(sp)
   1048c:	01212023          	sw	s2,0(sp)
   10490:	00112623          	sw	ra,12(sp)
   10494:	40245413          	srai	s0,s0,0x2
   10498:	00000493          	addi	s1,zero,0
   1049c:	1c878913          	addi	s2,a5,456
   104a0:	04849263          	bne	s1,s0,104e4 <__libc_init_array+0x78>
   104a4:	e41ff0ef          	jal	ra,102e4 <_fini>
   104a8:	000257b7          	lui	a5,0x25
   104ac:	00025437          	lui	s0,0x25
   104b0:	1c878713          	addi	a4,a5,456 # 251c8 <__frame_dummy_init_array_entry>
   104b4:	1cc40413          	addi	s0,s0,460 # 251cc <__init_array_end>
   104b8:	40e40433          	sub	s0,s0,a4
   104bc:	40245413          	srai	s0,s0,0x2
   104c0:	00000493          	addi	s1,zero,0
   104c4:	1c878913          	addi	s2,a5,456
   104c8:	02849a63          	bne	s1,s0,104fc <__libc_init_array+0x90>
   104cc:	00c12083          	lw	ra,12(sp)
   104d0:	00812403          	lw	s0,8(sp)
   104d4:	00412483          	lw	s1,4(sp)
   104d8:	00012903          	lw	s2,0(sp)
   104dc:	01010113          	addi	sp,sp,16
   104e0:	00008067          	jalr	zero,0(ra) # 103b8 <frame_dummy+0x20>
   104e4:	00249793          	slli	a5,s1,0x2
   104e8:	00f907b3          	add	a5,s2,a5
   104ec:	0007a783          	lw	a5,0(a5)
   104f0:	00148493          	addi	s1,s1,1
   104f4:	000780e7          	jalr	ra,0(a5)
   104f8:	fa9ff06f          	jal	zero,104a0 <__libc_init_array+0x34>
   104fc:	00249793          	slli	a5,s1,0x2
   10500:	00f907b3          	add	a5,s2,a5
   10504:	0007a783          	lw	a5,0(a5)
   10508:	00148493          	addi	s1,s1,1
   1050c:	000780e7          	jalr	ra,0(a5)
   10510:	fb9ff06f          	jal	zero,104c8 <__libc_init_array+0x5c>

00010514 <memset>:
   10514:	00f00313          	addi	t1,zero,15
   10518:	00050713          	addi	a4,a0,0
   1051c:	02c37e63          	bgeu	t1,a2,10558 <memset+0x44>
   10520:	00f77793          	andi	a5,a4,15
   10524:	0a079063          	bne	a5,zero,105c4 <memset+0xb0>
   10528:	08059263          	bne	a1,zero,105ac <memset+0x98>
   1052c:	ff067693          	andi	a3,a2,-16
   10530:	00f67613          	andi	a2,a2,15
   10534:	00e686b3          	add	a3,a3,a4
   10538:	00b72023          	sw	a1,0(a4)
   1053c:	00b72223          	sw	a1,4(a4)
   10540:	00b72423          	sw	a1,8(a4)
   10544:	00b72623          	sw	a1,12(a4)
   10548:	01070713          	addi	a4,a4,16
   1054c:	fed766e3          	bltu	a4,a3,10538 <memset+0x24>
   10550:	00061463          	bne	a2,zero,10558 <memset+0x44>
   10554:	00008067          	jalr	zero,0(ra)
   10558:	40c306b3          	sub	a3,t1,a2
   1055c:	00269693          	slli	a3,a3,0x2
   10560:	00000297          	auipc	t0,0x0
   10564:	005686b3          	add	a3,a3,t0
   10568:	00c68067          	jalr	zero,12(a3)
   1056c:	00b70723          	sb	a1,14(a4)
   10570:	00b706a3          	sb	a1,13(a4)
   10574:	00b70623          	sb	a1,12(a4)
   10578:	00b705a3          	sb	a1,11(a4)
   1057c:	00b70523          	sb	a1,10(a4)
   10580:	00b704a3          	sb	a1,9(a4)
   10584:	00b70423          	sb	a1,8(a4)
   10588:	00b703a3          	sb	a1,7(a4)
   1058c:	00b70323          	sb	a1,6(a4)
   10590:	00b702a3          	sb	a1,5(a4)
   10594:	00b70223          	sb	a1,4(a4)
   10598:	00b701a3          	sb	a1,3(a4)
   1059c:	00b70123          	sb	a1,2(a4)
   105a0:	00b700a3          	sb	a1,1(a4)
   105a4:	00b70023          	sb	a1,0(a4)
   105a8:	00008067          	jalr	zero,0(ra)
   105ac:	0ff5f593          	andi	a1,a1,255
   105b0:	00859693          	slli	a3,a1,0x8
   105b4:	00d5e5b3          	or	a1,a1,a3
   105b8:	01059693          	slli	a3,a1,0x10
   105bc:	00d5e5b3          	or	a1,a1,a3
   105c0:	f6dff06f          	jal	zero,1052c <memset+0x18>
   105c4:	00279693          	slli	a3,a5,0x2
   105c8:	00000297          	auipc	t0,0x0
   105cc:	005686b3          	add	a3,a3,t0
   105d0:	00008293          	addi	t0,ra,0
   105d4:	fa0680e7          	jalr	ra,-96(a3)
   105d8:	00028093          	addi	ra,t0,0 # 105c8 <memset+0xb4>
   105dc:	ff078793          	addi	a5,a5,-16
   105e0:	40f70733          	sub	a4,a4,a5
   105e4:	00f60633          	add	a2,a2,a5
   105e8:	f6c378e3          	bgeu	t1,a2,10558 <memset+0x44>
   105ec:	f3dff06f          	jal	zero,10528 <memset+0x14>

000105f0 <__register_exitproc>:
   105f0:	1b81a703          	lw	a4,440(gp) # 25b88 <_global_impure_ptr>
   105f4:	00050313          	addi	t1,a0,0
   105f8:	14872783          	lw	a5,328(a4)
   105fc:	00079663          	bne	a5,zero,10608 <__register_exitproc+0x18>
   10600:	14c70793          	addi	a5,a4,332
   10604:	14f72423          	sw	a5,328(a4)
   10608:	0047a703          	lw	a4,4(a5)
   1060c:	01f00813          	addi	a6,zero,31
   10610:	fff00513          	addi	a0,zero,-1
   10614:	04e84a63          	blt	a6,a4,10668 <__register_exitproc+0x78>
   10618:	00271893          	slli	a7,a4,0x2
   1061c:	02030c63          	beq	t1,zero,10654 <__register_exitproc+0x64>
   10620:	01178533          	add	a0,a5,a7
   10624:	08c52423          	sw	a2,136(a0)
   10628:	1887a803          	lw	a6,392(a5)
   1062c:	00100613          	addi	a2,zero,1
   10630:	00e61633          	sll	a2,a2,a4
   10634:	00c86833          	or	a6,a6,a2
   10638:	1907a423          	sw	a6,392(a5)
   1063c:	10d52423          	sw	a3,264(a0)
   10640:	00200693          	addi	a3,zero,2
   10644:	00d31863          	bne	t1,a3,10654 <__register_exitproc+0x64>
   10648:	18c7a683          	lw	a3,396(a5)
   1064c:	00c6e633          	or	a2,a3,a2
   10650:	18c7a623          	sw	a2,396(a5)
   10654:	00170713          	addi	a4,a4,1
   10658:	00e7a223          	sw	a4,4(a5)
   1065c:	011787b3          	add	a5,a5,a7
   10660:	00b7a423          	sw	a1,8(a5)
   10664:	00000513          	addi	a0,zero,0
   10668:	00008067          	jalr	zero,0(ra)

0001066c <__call_exitprocs>:
   1066c:	fd010113          	addi	sp,sp,-48
   10670:	01312e23          	sw	s3,28(sp)
   10674:	1b81a983          	lw	s3,440(gp) # 25b88 <_global_impure_ptr>
   10678:	01412c23          	sw	s4,24(sp)
   1067c:	01512a23          	sw	s5,20(sp)
   10680:	01612823          	sw	s6,16(sp)
   10684:	02112623          	sw	ra,44(sp)
   10688:	02812423          	sw	s0,40(sp)
   1068c:	02912223          	sw	s1,36(sp)
   10690:	03212023          	sw	s2,32(sp)
   10694:	01712623          	sw	s7,12(sp)
   10698:	00050a93          	addi	s5,a0,0
   1069c:	00058a13          	addi	s4,a1,0
   106a0:	00100b13          	addi	s6,zero,1
   106a4:	1489a483          	lw	s1,328(s3)
   106a8:	00048c63          	beq	s1,zero,106c0 <__call_exitprocs+0x54>
   106ac:	0044a403          	lw	s0,4(s1)
   106b0:	fff40913          	addi	s2,s0,-1
   106b4:	00241413          	slli	s0,s0,0x2
   106b8:	00848433          	add	s0,s1,s0
   106bc:	02095863          	bge	s2,zero,106ec <__call_exitprocs+0x80>
   106c0:	02c12083          	lw	ra,44(sp)
   106c4:	02812403          	lw	s0,40(sp)
   106c8:	02412483          	lw	s1,36(sp)
   106cc:	02012903          	lw	s2,32(sp)
   106d0:	01c12983          	lw	s3,28(sp)
   106d4:	01812a03          	lw	s4,24(sp)
   106d8:	01412a83          	lw	s5,20(sp)
   106dc:	01012b03          	lw	s6,16(sp)
   106e0:	00c12b83          	lw	s7,12(sp)
   106e4:	03010113          	addi	sp,sp,48
   106e8:	00008067          	jalr	zero,0(ra)
   106ec:	000a0c63          	beq	s4,zero,10704 <__call_exitprocs+0x98>
   106f0:	10442783          	lw	a5,260(s0)
   106f4:	01478863          	beq	a5,s4,10704 <__call_exitprocs+0x98>
   106f8:	fff90913          	addi	s2,s2,-1
   106fc:	ffc40413          	addi	s0,s0,-4
   10700:	fbdff06f          	jal	zero,106bc <__call_exitprocs+0x50>
   10704:	0044a703          	lw	a4,4(s1)
   10708:	00442783          	lw	a5,4(s0)
   1070c:	fff70713          	addi	a4,a4,-1
   10710:	03271c63          	bne	a4,s2,10748 <__call_exitprocs+0xdc>
   10714:	0124a223          	sw	s2,4(s1)
   10718:	fe0780e3          	beq	a5,zero,106f8 <__call_exitprocs+0x8c>
   1071c:	1884a683          	lw	a3,392(s1)
   10720:	012b1733          	sll	a4,s6,s2
   10724:	0044ab83          	lw	s7,4(s1)
   10728:	00d776b3          	and	a3,a4,a3
   1072c:	02069263          	bne	a3,zero,10750 <__call_exitprocs+0xe4>
   10730:	000780e7          	jalr	ra,0(a5)
   10734:	0044a783          	lw	a5,4(s1)
   10738:	f77796e3          	bne	a5,s7,106a4 <__call_exitprocs+0x38>
   1073c:	1489a783          	lw	a5,328(s3)
   10740:	fa978ce3          	beq	a5,s1,106f8 <__call_exitprocs+0x8c>
   10744:	f61ff06f          	jal	zero,106a4 <__call_exitprocs+0x38>
   10748:	00042223          	sw	zero,4(s0)
   1074c:	fcdff06f          	jal	zero,10718 <__call_exitprocs+0xac>
   10750:	18c4a683          	lw	a3,396(s1)
   10754:	08442583          	lw	a1,132(s0)
   10758:	00d77733          	and	a4,a4,a3
   1075c:	00071863          	bne	a4,zero,1076c <__call_exitprocs+0x100>
   10760:	000a8513          	addi	a0,s5,0
   10764:	000780e7          	jalr	ra,0(a5)
   10768:	fcdff06f          	jal	zero,10734 <__call_exitprocs+0xc8>
   1076c:	00058513          	addi	a0,a1,0
   10770:	000780e7          	jalr	ra,0(a5)
   10774:	fc1ff06f          	jal	zero,10734 <__call_exitprocs+0xc8>

00010778 <KeyExpansion>:
   10778:	00450793          	addi	a5,a0,4
   1077c:	00458713          	addi	a4,a1,4
   10780:	00f5b7b3          	sltu	a5,a1,a5
   10784:	00e53733          	sltu	a4,a0,a4
   10788:	fd010113          	addi	sp,sp,-48
   1078c:	0017c793          	xori	a5,a5,1
   10790:	00174713          	xori	a4,a4,1
   10794:	02812623          	sw	s0,44(sp)
   10798:	02912423          	sw	s1,40(sp)
   1079c:	03212223          	sw	s2,36(sp)
   107a0:	03312023          	sw	s3,32(sp)
   107a4:	01412e23          	sw	s4,28(sp)
   107a8:	01512c23          	sw	s5,24(sp)
   107ac:	01612a23          	sw	s6,20(sp)
   107b0:	01712823          	sw	s7,16(sp)
   107b4:	01812623          	sw	s8,12(sp)
   107b8:	01912423          	sw	s9,8(sp)
   107bc:	01a12223          	sw	s10,4(sp)
   107c0:	00e7e7b3          	or	a5,a5,a4
   107c4:	18078263          	beq	a5,zero,10948 <KeyExpansion+0x1d0>
   107c8:	00b567b3          	or	a5,a0,a1
   107cc:	0037f793          	andi	a5,a5,3
   107d0:	16079c63          	bne	a5,zero,10948 <KeyExpansion+0x1d0>
   107d4:	0005a783          	lw	a5,0(a1)
   107d8:	00f52023          	sw	a5,0(a0)
   107dc:	0045a783          	lw	a5,4(a1)
   107e0:	00f52223          	sw	a5,4(a0)
   107e4:	0085a783          	lw	a5,8(a1)
   107e8:	00f52423          	sw	a5,8(a0)
   107ec:	00c5a783          	lw	a5,12(a1)
   107f0:	00f52623          	sw	a5,12(a0)
   107f4:	000235b7          	lui	a1,0x23
   107f8:	00354a03          	lbu	s4,3(a0)
   107fc:	00754983          	lbu	s3,7(a0)
   10800:	00b54903          	lbu	s2,11(a0)
   10804:	00f54e83          	lbu	t4,15(a0)
   10808:	00254b03          	lbu	s6,2(a0)
   1080c:	00654483          	lbu	s1,6(a0)
   10810:	00a54403          	lbu	s0,10(a0)
   10814:	00e54e03          	lbu	t3,14(a0)
   10818:	00154b83          	lbu	s7,1(a0)
   1081c:	00554383          	lbu	t2,5(a0)
   10820:	00954283          	lbu	t0,9(a0)
   10824:	00d54303          	lbu	t1,13(a0)
   10828:	00054c03          	lbu	s8,0(a0)
   1082c:	00454f83          	lbu	t6,4(a0)
   10830:	00854f03          	lbu	t5,8(a0)
   10834:	00c54883          	lbu	a7,12(a0)
   10838:	00400813          	addi	a6,zero,4
   1083c:	01050513          	addi	a0,a0,16
   10840:	05858593          	addi	a1,a1,88 # 23058 <sbox>
   10844:	02c00a93          	addi	s5,zero,44
   10848:	0980006f          	jal	zero,108e0 <KeyExpansion+0x168>
   1084c:	100d4783          	lbu	a5,256(s10)
   10850:	000ccc83          	lbu	s9,0(s9)
   10854:	00074703          	lbu	a4,0(a4)
   10858:	0006c683          	lbu	a3,0(a3)
   1085c:	00064603          	lbu	a2,0(a2)
   10860:	0197c7b3          	xor	a5,a5,s9
   10864:	0187c7b3          	xor	a5,a5,s8
   10868:	00ebc733          	xor	a4,s7,a4
   1086c:	00db46b3          	xor	a3,s6,a3
   10870:	01464633          	xor	a2,a2,s4
   10874:	0ff7f793          	andi	a5,a5,255
   10878:	0ff77713          	andi	a4,a4,255
   1087c:	0ff6f693          	andi	a3,a3,255
   10880:	0ff67613          	andi	a2,a2,255
   10884:	00f50023          	sb	a5,0(a0)
   10888:	00e500a3          	sb	a4,1(a0)
   1088c:	00d50123          	sb	a3,2(a0)
   10890:	00c501a3          	sb	a2,3(a0)
   10894:	00180813          	addi	a6,a6,1
   10898:	00098a13          	addi	s4,s3,0
   1089c:	00048b13          	addi	s6,s1,0
   108a0:	00090993          	addi	s3,s2,0
   108a4:	00040493          	addi	s1,s0,0
   108a8:	000e8913          	addi	s2,t4,0
   108ac:	000e0413          	addi	s0,t3,0
   108b0:	00038b93          	addi	s7,t2,0
   108b4:	000f8c13          	addi	s8,t6,0
   108b8:	00028393          	addi	t2,t0,0
   108bc:	000f0f93          	addi	t6,t5,0
   108c0:	00030293          	addi	t0,t1,0
   108c4:	00088f13          	addi	t5,a7,0
   108c8:	00450513          	addi	a0,a0,4
   108cc:	00060e93          	addi	t4,a2,0
   108d0:	00068e13          	addi	t3,a3,0
   108d4:	00070313          	addi	t1,a4,0
   108d8:	00078893          	addi	a7,a5,0
   108dc:	03580c63          	beq	a6,s5,10914 <KeyExpansion+0x19c>
   108e0:	00285793          	srli	a5,a6,0x2
   108e4:	00f58d33          	add	s10,a1,a5
   108e8:	00387793          	andi	a5,a6,3
   108ec:	00658cb3          	add	s9,a1,t1
   108f0:	01c58733          	add	a4,a1,t3
   108f4:	01d586b3          	add	a3,a1,t4
   108f8:	01158633          	add	a2,a1,a7
   108fc:	f40788e3          	beq	a5,zero,1084c <KeyExpansion+0xd4>
   10900:	000e8613          	addi	a2,t4,0
   10904:	000e0693          	addi	a3,t3,0
   10908:	00030713          	addi	a4,t1,0
   1090c:	00088793          	addi	a5,a7,0
   10910:	f55ff06f          	jal	zero,10864 <KeyExpansion+0xec>
   10914:	02c12403          	lw	s0,44(sp)
   10918:	02812483          	lw	s1,40(sp)
   1091c:	02412903          	lw	s2,36(sp)
   10920:	02012983          	lw	s3,32(sp)
   10924:	01c12a03          	lw	s4,28(sp)
   10928:	01812a83          	lw	s5,24(sp)
   1092c:	01412b03          	lw	s6,20(sp)
   10930:	01012b83          	lw	s7,16(sp)
   10934:	00c12c03          	lw	s8,12(sp)
   10938:	00812c83          	lw	s9,8(sp)
   1093c:	00412d03          	lw	s10,4(sp)
   10940:	03010113          	addi	sp,sp,48
   10944:	00008067          	jalr	zero,0(ra)
   10948:	0005c783          	lbu	a5,0(a1)
   1094c:	00f50023          	sb	a5,0(a0)
   10950:	0015c783          	lbu	a5,1(a1)
   10954:	00f500a3          	sb	a5,1(a0)
   10958:	0025c783          	lbu	a5,2(a1)
   1095c:	00f50123          	sb	a5,2(a0)
   10960:	0035c783          	lbu	a5,3(a1)
   10964:	00f501a3          	sb	a5,3(a0)
   10968:	0045c783          	lbu	a5,4(a1)
   1096c:	00f50223          	sb	a5,4(a0)
   10970:	0055c783          	lbu	a5,5(a1)
   10974:	00f502a3          	sb	a5,5(a0)
   10978:	0065c783          	lbu	a5,6(a1)
   1097c:	00f50323          	sb	a5,6(a0)
   10980:	0075c783          	lbu	a5,7(a1)
   10984:	00f503a3          	sb	a5,7(a0)
   10988:	0085c783          	lbu	a5,8(a1)
   1098c:	00f50423          	sb	a5,8(a0)
   10990:	0095c783          	lbu	a5,9(a1)
   10994:	00f504a3          	sb	a5,9(a0)
   10998:	00a5c783          	lbu	a5,10(a1)
   1099c:	00f50523          	sb	a5,10(a0)
   109a0:	00b5c783          	lbu	a5,11(a1)
   109a4:	00f505a3          	sb	a5,11(a0)
   109a8:	00c5c783          	lbu	a5,12(a1)
   109ac:	00f50623          	sb	a5,12(a0)
   109b0:	00d5c783          	lbu	a5,13(a1)
   109b4:	00f506a3          	sb	a5,13(a0)
   109b8:	00e5c783          	lbu	a5,14(a1)
   109bc:	00f50723          	sb	a5,14(a0)
   109c0:	00f5c783          	lbu	a5,15(a1)
   109c4:	00f507a3          	sb	a5,15(a0)
   109c8:	e2dff06f          	jal	zero,107f4 <KeyExpansion+0x7c>

000109cc <Cipher>:
   109cc:	f1010113          	addi	sp,sp,-240
   109d0:	0e912423          	sw	s1,232(sp)
   109d4:	0f212223          	sw	s2,228(sp)
   109d8:	0f312023          	sw	s3,224(sp)
   109dc:	0d412e23          	sw	s4,220(sp)
   109e0:	0d512c23          	sw	s5,216(sp)
   109e4:	0d612a23          	sw	s6,212(sp)
   109e8:	0d712823          	sw	s7,208(sp)
   109ec:	0d912423          	sw	s9,200(sp)
   109f0:	0da12223          	sw	s10,196(sp)
   109f4:	0e812623          	sw	s0,236(sp)
   109f8:	0d812623          	sw	s8,204(sp)
   109fc:	0db12023          	sw	s11,192(sp)
   10a00:	0005c783          	lbu	a5,0(a1)
   10a04:	00054703          	lbu	a4,0(a0)
   10a08:	00154603          	lbu	a2,1(a0)
   10a0c:	00254683          	lbu	a3,2(a0)
   10a10:	00e7c7b3          	xor	a5,a5,a4
   10a14:	00f50023          	sb	a5,0(a0)
   10a18:	0015c783          	lbu	a5,1(a1)
   10a1c:	00050313          	addi	t1,a0,0
   10a20:	00454883          	lbu	a7,4(a0)
   10a24:	00c7c7b3          	xor	a5,a5,a2
   10a28:	00f500a3          	sb	a5,1(a0)
   10a2c:	0025c783          	lbu	a5,2(a1)
   10a30:	00554803          	lbu	a6,5(a0)
   10a34:	00354703          	lbu	a4,3(a0)
   10a38:	00d7c7b3          	xor	a5,a5,a3
   10a3c:	00654503          	lbu	a0,6(a0)
   10a40:	00f30123          	sb	a5,2(t1)
   10a44:	0035c783          	lbu	a5,3(a1)
   10a48:	00058e13          	addi	t3,a1,0
   10a4c:	00834603          	lbu	a2,8(t1)
   10a50:	00e7c7b3          	xor	a5,a5,a4
   10a54:	00f301a3          	sb	a5,3(t1)
   10a58:	004e4783          	lbu	a5,4(t3)
   10a5c:	00934683          	lbu	a3,9(t1)
   10a60:	0ab12e23          	sw	a1,188(sp)
   10a64:	0117c7b3          	xor	a5,a5,a7
   10a68:	00734583          	lbu	a1,7(t1)
   10a6c:	00a34703          	lbu	a4,10(t1)
   10a70:	00f30223          	sb	a5,4(t1)
   10a74:	005e4783          	lbu	a5,5(t3)
   10a78:	00034d03          	lbu	s10,0(t1)
   10a7c:	00434a83          	lbu	s5,4(t1)
   10a80:	0107c7b3          	xor	a5,a5,a6
   10a84:	00f302a3          	sb	a5,5(t1)
   10a88:	006e4783          	lbu	a5,6(t3)
   10a8c:	0a0e0813          	addi	a6,t3,160
   10a90:	0b012c23          	sw	a6,184(sp)
   10a94:	00a7c7b3          	xor	a5,a5,a0
   10a98:	00f30323          	sb	a5,6(t1)
   10a9c:	007e4783          	lbu	a5,7(t3)
   10aa0:	00023837          	lui	a6,0x23
   10aa4:	05880293          	addi	t0,a6,88 # 23058 <sbox>
   10aa8:	00b7c7b3          	xor	a5,a5,a1
   10aac:	00f303a3          	sb	a5,7(t1)
   10ab0:	008e4783          	lbu	a5,8(t3)
   10ab4:	00d34803          	lbu	a6,13(t1)
   10ab8:	00f34583          	lbu	a1,15(t1)
   10abc:	00c7c7b3          	xor	a5,a5,a2
   10ac0:	00f30423          	sb	a5,8(t1)
   10ac4:	009e4783          	lbu	a5,9(t3)
   10ac8:	00834383          	lbu	t2,8(t1)
   10acc:	010e0a13          	addi	s4,t3,16
   10ad0:	00d7c7b3          	xor	a5,a5,a3
   10ad4:	00f304a3          	sb	a5,9(t1)
   10ad8:	00ae4783          	lbu	a5,10(t3)
   10adc:	00b34683          	lbu	a3,11(t1)
   10ae0:	00e7c7b3          	xor	a5,a5,a4
   10ae4:	00f30523          	sb	a5,10(t1)
   10ae8:	00be4703          	lbu	a4,11(t3)
   10aec:	00c34783          	lbu	a5,12(t1)
   10af0:	00d74733          	xor	a4,a4,a3
   10af4:	00e305a3          	sb	a4,11(t1)
   10af8:	00ce4683          	lbu	a3,12(t3)
   10afc:	00e34703          	lbu	a4,14(t1)
   10b00:	00d7c7b3          	xor	a5,a5,a3
   10b04:	00f30623          	sb	a5,12(t1)
   10b08:	00de4783          	lbu	a5,13(t3)
   10b0c:	00c34883          	lbu	a7,12(t1)
   10b10:	00f84833          	xor	a6,a6,a5
   10b14:	010306a3          	sb	a6,13(t1)
   10b18:	00ee4783          	lbu	a5,14(t3)
   10b1c:	00080913          	addi	s2,a6,0
   10b20:	00f74733          	xor	a4,a4,a5
   10b24:	00e30723          	sb	a4,14(t1)
   10b28:	00fe4603          	lbu	a2,15(t3)
   10b2c:	00934f83          	lbu	t6,9(t1)
   10b30:	00b34e03          	lbu	t3,11(t1)
   10b34:	00c5c5b3          	xor	a1,a1,a2
   10b38:	000f8f13          	addi	t5,t6,0
   10b3c:	00058b13          	addi	s6,a1,0
   10b40:	00134c83          	lbu	s9,1(t1)
   10b44:	00070593          	addi	a1,a4,0
   10b48:	00534983          	lbu	s3,5(t1)
   10b4c:	000e0713          	addi	a4,t3,0
   10b50:	00234b83          	lbu	s7,2(t1)
   10b54:	00634483          	lbu	s1,6(t1)
   10b58:	00a34e83          	lbu	t4,10(t1)
   10b5c:	00334683          	lbu	a3,3(t1)
   10b60:	00734783          	lbu	a5,7(t1)
   10b64:	00038f93          	addi	t6,t2,0
   10b68:	00088e13          	addi	t3,a7,0
   10b6c:	6640006f          	jal	zero,111d0 <Cipher+0x804>
   10b70:	00b84c33          	xor	s8,a6,a1
   10b74:	00a64433          	xor	s0,a2,a0
   10b78:	00060793          	addi	a5,a2,0
   10b7c:	00080693          	addi	a3,a6,0
   10b80:	00058613          	addi	a2,a1,0
   10b84:	000e8813          	addi	a6,t4,0
   10b88:	011fccb3          	xor	s9,t6,a7
   10b8c:	01e84d33          	xor	s10,a6,t5
   10b90:	00050713          	addi	a4,a0,0
   10b94:	00812023          	sw	s0,0(sp)
   10b98:	000f8593          	addi	a1,t6,0
   10b9c:	00c7c433          	xor	s0,a5,a2
   10ba0:	00088513          	addi	a0,a7,0
   10ba4:	000f0e93          	addi	t4,t5,0
   10ba8:	0093c8b3          	xor	a7,t2,s1
   10bac:	00038f13          	addi	t5,t2,0
   10bb0:	00048f93          	addi	t6,s1,0
   10bb4:	00090393          	addi	t2,s2,0
   10bb8:	00098493          	addi	s1,s3,0
   10bbc:	01394933          	xor	s2,s2,s3
   10bc0:	017b49b3          	xor	s3,s6,s7
   10bc4:	015e4db3          	xor	s11,t3,s5
   10bc8:	01212423          	sw	s2,8(sp)
   10bcc:	000e0913          	addi	s2,t3,0
   10bd0:	00098e13          	addi	t3,s3,0
   10bd4:	00040993          	addi	s3,s0,0
   10bd8:	01054433          	xor	s0,a0,a6
   10bdc:	00040513          	addi	a0,s0,0
   10be0:	01d5c433          	xor	s0,a1,t4
   10be4:	00040593          	addi	a1,s0,0
   10be8:	007fc433          	xor	s0,t6,t2
   10bec:	00040393          	addi	t2,s0,0
   10bf0:	009f4433          	xor	s0,t5,s1
   10bf4:	00040793          	addi	a5,s0,0
   10bf8:	016ac433          	xor	s0,s5,s6
   10bfc:	00040a93          	addi	s5,s0,0
   10c00:	01794433          	xor	s0,s2,s7
   10c04:	00040b13          	addi	s6,s0,0
   10c08:	00012403          	lw	s0,0(sp)
   10c0c:	08b12623          	sw	a1,140(sp)
   10c10:	0075d593          	srli	a1,a1,0x7
   10c14:	00745413          	srli	s0,s0,0x7
   10c18:	00755f93          	srli	t6,a0,0x7
   10c1c:	01b12223          	sw	s11,4(sp)
   10c20:	06b12223          	sw	a1,100(sp)
   10c24:	08a12423          	sw	a0,136(sp)
   10c28:	05112e23          	sw	a7,92(sp)
   10c2c:	0078d513          	srli	a0,a7,0x7
   10c30:	00341893          	slli	a7,s0,0x3
   10c34:	00412603          	lw	a2,4(sp)
   10c38:	0a812023          	sw	s0,160(sp)
   10c3c:	408888b3          	sub	a7,a7,s0
   10c40:	06412403          	lw	s0,100(sp)
   10c44:	0079de93          	srli	t4,s3,0x7
   10c48:	06a12423          	sw	a0,104(sp)
   10c4c:	09312223          	sw	s3,132(sp)
   10c50:	00359593          	slli	a1,a1,0x3
   10c54:	00812983          	lw	s3,8(sp)
   10c58:	00765813          	srli	a6,a2,0x7
   10c5c:	408585b3          	sub	a1,a1,s0
   10c60:	06812403          	lw	s0,104(sp)
   10c64:	007cd493          	srli	s1,s9,0x7
   10c68:	00d74db3          	xor	s11,a4,a3
   10c6c:	05912c23          	sw	s9,88(sp)
   10c70:	00080713          	addi	a4,a6,0
   10c74:	0073dc93          	srli	s9,t2,0x7
   10c78:	007ad813          	srli	a6,s5,0x7
   10c7c:	08712823          	sw	t2,144(sp)
   10c80:	007e5393          	srli	t2,t3,0x7
   10c84:	007d5f13          	srli	t5,s10,0x7
   10c88:	0079d693          	srli	a3,s3,0x7
   10c8c:	01012623          	sw	a6,12(sp)
   10c90:	00712823          	sw	t2,16(sp)
   10c94:	05a12a23          	sw	s10,84(sp)
   10c98:	08f12a23          	sw	a5,148(sp)
   10c9c:	00351d13          	slli	s10,a0,0x3
   10ca0:	0077d793          	srli	a5,a5,0x7
   10ca4:	07912623          	sw	s9,108(sp)
   10ca8:	09b12023          	sw	s11,128(sp)
   10cac:	07812e23          	sw	s8,124(sp)
   10cb0:	09512c23          	sw	s5,152(sp)
   10cb4:	07c12023          	sw	t3,96(sp)
   10cb8:	09612e23          	sw	s6,156(sp)
   10cbc:	06d12823          	sw	a3,112(sp)
   10cc0:	00369513          	slli	a0,a3,0x3
   10cc4:	06f12a23          	sw	a5,116(sp)
   10cc8:	00379993          	slli	s3,a5,0x3
   10ccc:	06e12c23          	sw	a4,120(sp)
   10cd0:	01012783          	lw	a5,16(sp)
   10cd4:	00c12683          	lw	a3,12(sp)
   10cd8:	408d0d33          	sub	s10,s10,s0
   10cdc:	06c12403          	lw	s0,108(sp)
   10ce0:	003c9a93          	slli	s5,s9,0x3
   10ce4:	00371c93          	slli	s9,a4,0x3
   10ce8:	408a8ab3          	sub	s5,s5,s0
   10cec:	07012403          	lw	s0,112(sp)
   10cf0:	007c5913          	srli	s2,s8,0x7
   10cf4:	007b5c13          	srli	s8,s6,0x7
   10cf8:	40850533          	sub	a0,a0,s0
   10cfc:	07412403          	lw	s0,116(sp)
   10d00:	003e9b13          	slli	s6,t4,0x3
   10d04:	00391b93          	slli	s7,s2,0x3
   10d08:	408989b3          	sub	s3,s3,s0
   10d0c:	07812403          	lw	s0,120(sp)
   10d10:	41db0b33          	sub	s6,s6,t4
   10d14:	000c0e13          	addi	t3,s8,0
   10d18:	408c8cb3          	sub	s9,s9,s0
   10d1c:	00c12403          	lw	s0,12(sp)
   10d20:	412b8bb3          	sub	s7,s7,s2
   10d24:	002b1b13          	slli	s6,s6,0x2
   10d28:	00369693          	slli	a3,a3,0x3
   10d2c:	0b612223          	sw	s6,164(sp)
   10d30:	00379713          	slli	a4,a5,0x3
   10d34:	408686b3          	sub	a3,a3,s0
   10d38:	003e1793          	slli	a5,t3,0x3
   10d3c:	01012403          	lw	s0,16(sp)
   10d40:	002b9b93          	slli	s7,s7,0x2
   10d44:	41c787b3          	sub	a5,a5,t3
   10d48:	412b8bb3          	sub	s7,s7,s2
   10d4c:	0a412903          	lw	s2,164(sp)
   10d50:	0bc12823          	sw	t3,176(sp)
   10d54:	00279e13          	slli	t3,a5,0x2
   10d58:	40870733          	sub	a4,a4,s0
   10d5c:	0bc12a23          	sw	t3,180(sp)
   10d60:	00012403          	lw	s0,0(sp)
   10d64:	07c12e03          	lw	t3,124(sp)
   10d68:	00269693          	slli	a3,a3,0x2
   10d6c:	41d90eb3          	sub	t4,s2,t4
   10d70:	08412903          	lw	s2,132(sp)
   10d74:	0ad12423          	sw	a3,168(sp)
   10d78:	00271693          	slli	a3,a4,0x2
   10d7c:	008e4b33          	xor	s6,t3,s0
   10d80:	05412783          	lw	a5,84(sp)
   10d84:	007ddd93          	srli	s11,s11,0x7
   10d88:	0ad12623          	sw	a3,172(sp)
   10d8c:	001e1e13          	slli	t3,t3,0x1
   10d90:	05812683          	lw	a3,88(sp)
   10d94:	003d9c13          	slli	s8,s11,0x3
   10d98:	07c12e23          	sw	t3,124(sp)
   10d9c:	00191e13          	slli	t3,s2,0x1
   10da0:	05812903          	lw	s2,88(sp)
   10da4:	41bc0c33          	sub	s8,s8,s11
   10da8:	00d7c6b3          	xor	a3,a5,a3
   10dac:	002c1c13          	slli	s8,s8,0x2
   10db0:	05c12783          	lw	a5,92(sp)
   10db4:	00812703          	lw	a4,8(sp)
   10db8:	41bc0db3          	sub	s11,s8,s11
   10dbc:	003f1813          	slli	a6,t5,0x3
   10dc0:	08012c03          	lw	s8,128(sp)
   10dc4:	09c12023          	sw	t3,128(sp)
   10dc8:	00191e13          	slli	t3,s2,0x1
   10dcc:	05412903          	lw	s2,84(sp)
   10dd0:	41e80833          	sub	a6,a6,t5
   10dd4:	00e7c733          	xor	a4,a5,a4
   10dd8:	06012403          	lw	s0,96(sp)
   10ddc:	00281813          	slli	a6,a6,0x2
   10de0:	00412783          	lw	a5,4(sp)
   10de4:	41e80f33          	sub	t5,a6,t5
   10de8:	00191813          	slli	a6,s2,0x1
   10dec:	05012a23          	sw	a6,84(sp)
   10df0:	06412803          	lw	a6,100(sp)
   10df4:	0087c7b3          	xor	a5,a5,s0
   10df8:	00349393          	slli	t2,s1,0x3
   10dfc:	0a012403          	lw	s0,160(sp)
   10e00:	003f9613          	slli	a2,t6,0x3
   10e04:	409383b3          	sub	t2,t2,s1
   10e08:	41f60633          	sub	a2,a2,t6
   10e0c:	00259593          	slli	a1,a1,0x2
   10e10:	41058833          	sub	a6,a1,a6
   10e14:	00261613          	slli	a2,a2,0x2
   10e18:	05c12c23          	sw	t3,88(sp)
   10e1c:	00289893          	slli	a7,a7,0x2
   10e20:	00239393          	slli	t2,t2,0x2
   10e24:	408888b3          	sub	a7,a7,s0
   10e28:	41f60fb3          	sub	t6,a2,t6
   10e2c:	00012403          	lw	s0,0(sp)
   10e30:	409383b3          	sub	t2,t2,s1
   10e34:	08812603          	lw	a2,136(sp)
   10e38:	07012223          	sw	a6,100(sp)
   10e3c:	06812483          	lw	s1,104(sp)
   10e40:	05c12903          	lw	s2,92(sp)
   10e44:	002d1d13          	slli	s10,s10,0x2
   10e48:	409d0d33          	sub	s10,s10,s1
   10e4c:	06c12483          	lw	s1,108(sp)
   10e50:	00191593          	slli	a1,s2,0x1
   10e54:	04b12e23          	sw	a1,92(sp)
   10e58:	002a9a93          	slli	s5,s5,0x2
   10e5c:	09012583          	lw	a1,144(sp)
   10e60:	00812903          	lw	s2,8(sp)
   10e64:	409a8ab3          	sub	s5,s5,s1
   10e68:	07012483          	lw	s1,112(sp)
   10e6c:	00159593          	slli	a1,a1,0x1
   10e70:	00251513          	slli	a0,a0,0x2
   10e74:	06b12423          	sw	a1,104(sp)
   10e78:	40950533          	sub	a0,a0,s1
   10e7c:	09412583          	lw	a1,148(sp)
   10e80:	00191493          	slli	s1,s2,0x1
   10e84:	07412903          	lw	s2,116(sp)
   10e88:	00299993          	slli	s3,s3,0x2
   10e8c:	002c9c93          	slli	s9,s9,0x2
   10e90:	412989b3          	sub	s3,s3,s2
   10e94:	00159913          	slli	s2,a1,0x1
   10e98:	07212823          	sw	s2,112(sp)
   10e9c:	07812903          	lw	s2,120(sp)
   10ea0:	0a812583          	lw	a1,168(sp)
   10ea4:	00141413          	slli	s0,s0,0x1
   10ea8:	412c8cb3          	sub	s9,s9,s2
   10eac:	00412903          	lw	s2,4(sp)
   10eb0:	0088c433          	xor	s0,a7,s0
   10eb4:	01412883          	lw	a7,20(sp)
   10eb8:	00191913          	slli	s2,s2,0x1
   10ebc:	07212a23          	sw	s2,116(sp)
   10ec0:	00c12903          	lw	s2,12(sp)
   10ec4:	06912623          	sw	s1,108(sp)
   10ec8:	01012483          	lw	s1,16(sp)
   10ecc:	41258933          	sub	s2,a1,s2
   10ed0:	0ac12583          	lw	a1,172(sp)
   10ed4:	011b48b3          	xor	a7,s6,a7
   10ed8:	0b412e03          	lw	t3,180(sp)
   10edc:	409585b3          	sub	a1,a1,s1
   10ee0:	01112023          	sw	a7,0(sp)
   10ee4:	0b012483          	lw	s1,176(sp)
   10ee8:	02412883          	lw	a7,36(sp)
   10eec:	001c1c13          	slli	s8,s8,0x1
   10ef0:	409e04b3          	sub	s1,t3,s1
   10ef4:	018dcc33          	xor	s8,s11,s8
   10ef8:	011b4db3          	xor	s11,s6,a7
   10efc:	08c12803          	lw	a6,140(sp)
   10f00:	07212c23          	sw	s2,120(sp)
   10f04:	08b12223          	sw	a1,132(sp)
   10f08:	09812903          	lw	s2,152(sp)
   10f0c:	06012583          	lw	a1,96(sp)
   10f10:	01b12223          	sw	s11,4(sp)
   10f14:	06912023          	sw	s1,96(sp)
   10f18:	09c12483          	lw	s1,156(sp)
   10f1c:	07c12e03          	lw	t3,124(sp)
   10f20:	03812883          	lw	a7,56(sp)
   10f24:	00161613          	slli	a2,a2,0x1
   10f28:	01cbcbb3          	xor	s7,s7,t3
   10f2c:	011b4db3          	xor	s11,s6,a7
   10f30:	08012e03          	lw	t3,128(sp)
   10f34:	04c12883          	lw	a7,76(sp)
   10f38:	01b12423          	sw	s11,8(sp)
   10f3c:	01ceceb3          	xor	t4,t4,t3
   10f40:	011b4b33          	xor	s6,s6,a7
   10f44:	05812e03          	lw	t3,88(sp)
   10f48:	01812883          	lw	a7,24(sp)
   10f4c:	00cfc633          	xor	a2,t6,a2
   10f50:	01c3c3b3          	xor	t2,t2,t3
   10f54:	0116cdb3          	xor	s11,a3,a7
   10f58:	05412e03          	lw	t3,84(sp)
   10f5c:	02812883          	lw	a7,40(sp)
   10f60:	00181813          	slli	a6,a6,0x1
   10f64:	01cf4f33          	xor	t5,t5,t3
   10f68:	0116cfb3          	xor	t6,a3,a7
   10f6c:	06412e03          	lw	t3,100(sp)
   10f70:	03c12883          	lw	a7,60(sp)
   10f74:	01b12623          	sw	s11,12(sp)
   10f78:	010e4833          	xor	a6,t3,a6
   10f7c:	0116cdb3          	xor	s11,a3,a7
   10f80:	05c12e03          	lw	t3,92(sp)
   10f84:	04012883          	lw	a7,64(sp)
   10f88:	01e12a23          	sw	t5,20(sp)
   10f8c:	01cd4d33          	xor	s10,s10,t3
   10f90:	01c12f03          	lw	t5,28(sp)
   10f94:	06812e03          	lw	t3,104(sp)
   10f98:	0116c6b3          	xor	a3,a3,a7
   10f9c:	02c12883          	lw	a7,44(sp)
   10fa0:	01cacab3          	xor	s5,s5,t3
   10fa4:	01f12823          	sw	t6,16(sp)
   10fa8:	06c12e03          	lw	t3,108(sp)
   10fac:	01e74fb3          	xor	t6,a4,t5
   10fb0:	01174f33          	xor	t5,a4,a7
   10fb4:	03012883          	lw	a7,48(sp)
   10fb8:	01c54533          	xor	a0,a0,t3
   10fbc:	00159593          	slli	a1,a1,0x1
   10fc0:	01174e33          	xor	t3,a4,a7
   10fc4:	04412883          	lw	a7,68(sp)
   10fc8:	01c12c23          	sw	t3,24(sp)
   10fcc:	07012e03          	lw	t3,112(sp)
   10fd0:	01174733          	xor	a4,a4,a7
   10fd4:	00e12e23          	sw	a4,28(sp)
   10fd8:	08412703          	lw	a4,132(sp)
   10fdc:	01c9c9b3          	xor	s3,s3,t3
   10fe0:	07812883          	lw	a7,120(sp)
   10fe4:	00b745b3          	xor	a1,a4,a1
   10fe8:	03412703          	lw	a4,52(sp)
   10fec:	07412e03          	lw	t3,116(sp)
   10ff0:	00191913          	slli	s2,s2,0x1
   10ff4:	00e7c733          	xor	a4,a5,a4
   10ff8:	01ccccb3          	xor	s9,s9,t3
   10ffc:	0128c933          	xor	s2,a7,s2
   11000:	05012e03          	lw	t3,80(sp)
   11004:	02012883          	lw	a7,32(sp)
   11008:	02e12023          	sw	a4,32(sp)
   1100c:	06012703          	lw	a4,96(sp)
   11010:	00149493          	slli	s1,s1,0x1
   11014:	01c7ce33          	xor	t3,a5,t3
   11018:	009744b3          	xor	s1,a4,s1
   1101c:	04812703          	lw	a4,72(sp)
   11020:	0117c8b3          	xor	a7,a5,a7
   11024:	00d846b3          	xor	a3,a6,a3
   11028:	00e7c7b3          	xor	a5,a5,a4
   1102c:	00012703          	lw	a4,0(sp)
   11030:	02012803          	lw	a6,32(sp)
   11034:	00f4c7b3          	xor	a5,s1,a5
   11038:	00e44433          	xor	s0,s0,a4
   1103c:	00412703          	lw	a4,4(sp)
   11040:	016ecb33          	xor	s6,t4,s6
   11044:	01fd4fb3          	xor	t6,s10,t6
   11048:	00ec4c33          	xor	s8,s8,a4
   1104c:	00812703          	lw	a4,8(sp)
   11050:	01eacf33          	xor	t5,s5,t5
   11054:	01ccce33          	xor	t3,s9,t3
   11058:	00ebcbb3          	xor	s7,s7,a4
   1105c:	00c12703          	lw	a4,12(sp)
   11060:	011948b3          	xor	a7,s2,a7
   11064:	0105c5b3          	xor	a1,a1,a6
   11068:	00e3c3b3          	xor	t2,t2,a4
   1106c:	01012703          	lw	a4,16(sp)
   11070:	0ffb7b13          	andi	s6,s6,255
   11074:	0ff6f813          	andi	a6,a3,255
   11078:	00e64633          	xor	a2,a2,a4
   1107c:	01412703          	lw	a4,20(sp)
   11080:	0ff67613          	andi	a2,a2,255
   11084:	0ff8f913          	andi	s2,a7,255
   11088:	01b74db3          	xor	s11,a4,s11
   1108c:	01812703          	lw	a4,24(sp)
   11090:	0ff47413          	andi	s0,s0,255
   11094:	0ffc7c13          	andi	s8,s8,255
   11098:	00e54533          	xor	a0,a0,a4
   1109c:	01c12703          	lw	a4,28(sp)
   110a0:	0ff57e93          	andi	t4,a0,255
   110a4:	0ffbfb93          	andi	s7,s7,255
   110a8:	00e9c733          	xor	a4,s3,a4
   110ac:	0ff7f513          	andi	a0,a5,255
   110b0:	0ff3f393          	andi	t2,t2,255
   110b4:	0ffdfd93          	andi	s11,s11,255
   110b8:	0fffff93          	andi	t6,t6,255
   110bc:	0fff7f13          	andi	t5,t5,255
   110c0:	0ff77713          	andi	a4,a4,255
   110c4:	0ffe7e13          	andi	t3,t3,255
   110c8:	0ff5f593          	andi	a1,a1,255
   110cc:	00830023          	sb	s0,0(t1)
   110d0:	018300a3          	sb	s8,1(t1)
   110d4:	01730123          	sb	s7,2(t1)
   110d8:	016301a3          	sb	s6,3(t1)
   110dc:	00c302a3          	sb	a2,5(t1)
   110e0:	01f30423          	sb	t6,8(t1)
   110e4:	01e304a3          	sb	t5,9(t1)
   110e8:	01d30523          	sb	t4,10(t1)
   110ec:	00e305a3          	sb	a4,11(t1)
   110f0:	01c30623          	sb	t3,12(t1)
   110f4:	012306a3          	sb	s2,13(t1)
   110f8:	00b30723          	sb	a1,14(t1)
   110fc:	00730223          	sb	t2,4(t1)
   11100:	01b30323          	sb	s11,6(t1)
   11104:	010303a3          	sb	a6,7(t1)
   11108:	00a307a3          	sb	a0,15(t1)
   1110c:	000a4d03          	lbu	s10,0(s4)
   11110:	010a0a13          	addi	s4,s4,16
   11114:	01a44d33          	xor	s10,s0,s10
   11118:	01a30023          	sb	s10,0(t1)
   1111c:	ff1a4c83          	lbu	s9,-15(s4)
   11120:	019c4cb3          	xor	s9,s8,s9
   11124:	019300a3          	sb	s9,1(t1)
   11128:	ff2a4783          	lbu	a5,-14(s4)
   1112c:	00fbcbb3          	xor	s7,s7,a5
   11130:	01730123          	sb	s7,2(t1)
   11134:	ff3a4683          	lbu	a3,-13(s4)
   11138:	00db46b3          	xor	a3,s6,a3
   1113c:	00d301a3          	sb	a3,3(t1)
   11140:	ff4a4a83          	lbu	s5,-12(s4)
   11144:	0153cab3          	xor	s5,t2,s5
   11148:	01530223          	sb	s5,4(t1)
   1114c:	ff5a4983          	lbu	s3,-11(s4)
   11150:	013649b3          	xor	s3,a2,s3
   11154:	013302a3          	sb	s3,5(t1)
   11158:	ff6a4483          	lbu	s1,-10(s4)
   1115c:	009dc4b3          	xor	s1,s11,s1
   11160:	00930323          	sb	s1,6(t1)
   11164:	ff7a4783          	lbu	a5,-9(s4)
   11168:	00f847b3          	xor	a5,a6,a5
   1116c:	00f303a3          	sb	a5,7(t1)
   11170:	ff8a4603          	lbu	a2,-8(s4)
   11174:	00cfcfb3          	xor	t6,t6,a2
   11178:	01f30423          	sb	t6,8(t1)
   1117c:	ff9a4603          	lbu	a2,-7(s4)
   11180:	00cf4f33          	xor	t5,t5,a2
   11184:	01e304a3          	sb	t5,9(t1)
   11188:	ffaa4603          	lbu	a2,-6(s4)
   1118c:	00ceceb3          	xor	t4,t4,a2
   11190:	01d30523          	sb	t4,10(t1)
   11194:	ffba4603          	lbu	a2,-5(s4)
   11198:	00c74733          	xor	a4,a4,a2
   1119c:	00e305a3          	sb	a4,11(t1)
   111a0:	ffca4883          	lbu	a7,-4(s4)
   111a4:	011e4e33          	xor	t3,t3,a7
   111a8:	01c30623          	sb	t3,12(t1)
   111ac:	ffda4883          	lbu	a7,-3(s4)
   111b0:	01194933          	xor	s2,s2,a7
   111b4:	012306a3          	sb	s2,13(t1)
   111b8:	ffea4603          	lbu	a2,-2(s4)
   111bc:	00c5c5b3          	xor	a1,a1,a2
   111c0:	00b30723          	sb	a1,14(t1)
   111c4:	fffa4b03          	lbu	s6,-1(s4)
   111c8:	01654b33          	xor	s6,a0,s6
   111cc:	016307a3          	sb	s6,15(t1)
   111d0:	01f28533          	add	a0,t0,t6
   111d4:	01528ab3          	add	s5,t0,s5
   111d8:	01c288b3          	add	a7,t0,t3
   111dc:	013289b3          	add	s3,t0,s3
   111e0:	01e28f33          	add	t5,t0,t5
   111e4:	01228933          	add	s2,t0,s2
   111e8:	01728bb3          	add	s7,t0,s7
   111ec:	009284b3          	add	s1,t0,s1
   111f0:	01d28eb3          	add	t4,t0,t4
   111f4:	00b285b3          	add	a1,t0,a1
   111f8:	00f287b3          	add	a5,t0,a5
   111fc:	01628b33          	add	s6,t0,s6
   11200:	01a28d33          	add	s10,t0,s10
   11204:	01928cb3          	add	s9,t0,s9
   11208:	00d286b3          	add	a3,t0,a3
   1120c:	00e28733          	add	a4,t0,a4
   11210:	0004c403          	lbu	s0,0(s1)
   11214:	000acf83          	lbu	t6,0(s5)
   11218:	00054383          	lbu	t2,0(a0)
   1121c:	0008ce03          	lbu	t3,0(a7)
   11220:	0009c503          	lbu	a0,0(s3)
   11224:	000f4883          	lbu	a7,0(t5)
   11228:	000ec803          	lbu	a6,0(t4)
   1122c:	00094f03          	lbu	t5,0(s2)
   11230:	0005ce83          	lbu	t4,0(a1)
   11234:	000bc903          	lbu	s2,0(s7)
   11238:	0006c683          	lbu	a3,0(a3)
   1123c:	0007c983          	lbu	s3,0(a5)
   11240:	000cca83          	lbu	s5,0(s9)
   11244:	000b4783          	lbu	a5,0(s6)
   11248:	00074b83          	lbu	s7,0(a4)
   1124c:	000d4603          	lbu	a2,0(s10)
   11250:	03e12623          	sw	t5,44(sp)
   11254:	04f12623          	sw	a5,76(sp)
   11258:	00c12a23          	sw	a2,20(sp)
   1125c:	01f12c23          	sw	t6,24(sp)
   11260:	00712e23          	sw	t2,28(sp)
   11264:	05c12823          	sw	t3,80(sp)
   11268:	03512023          	sw	s5,32(sp)
   1126c:	02a12223          	sw	a0,36(sp)
   11270:	03112423          	sw	a7,40(sp)
   11274:	03212823          	sw	s2,48(sp)
   11278:	02812a23          	sw	s0,52(sp)
   1127c:	03012c23          	sw	a6,56(sp)
   11280:	03d12e23          	sw	t4,60(sp)
   11284:	04d12023          	sw	a3,64(sp)
   11288:	05312223          	sw	s3,68(sp)
   1128c:	05712423          	sw	s7,72(sp)
   11290:	00c30023          	sb	a2,0(t1)
   11294:	00078593          	addi	a1,a5,0
   11298:	00f301a3          	sb	a5,3(t1)
   1129c:	0b812783          	lw	a5,184(sp)
   112a0:	01e304a3          	sb	t5,9(t1)
   112a4:	01f30223          	sb	t6,4(t1)
   112a8:	00730423          	sb	t2,8(t1)
   112ac:	01c30623          	sb	t3,12(t1)
   112b0:	00a300a3          	sb	a0,1(t1)
   112b4:	011302a3          	sb	a7,5(t1)
   112b8:	015306a3          	sb	s5,13(t1)
   112bc:	01030123          	sb	a6,2(t1)
   112c0:	01230523          	sb	s2,10(t1)
   112c4:	01d30323          	sb	t4,6(t1)
   112c8:	00830723          	sb	s0,14(t1)
   112cc:	017307a3          	sb	s7,15(t1)
   112d0:	013305a3          	sb	s3,11(t1)
   112d4:	00d303a3          	sb	a3,7(t1)
   112d8:	000f0493          	addi	s1,t5,0
   112dc:	00040b13          	addi	s6,s0,0
   112e0:	00068f13          	addi	t5,a3,0
   112e4:	894796e3          	bne	a5,s4,10b70 <Cipher+0x1a4>
   112e8:	0bc12703          	lw	a4,188(sp)
   112ec:	02812683          	lw	a3,40(sp)
   112f0:	0a074d03          	lbu	s10,160(a4)
   112f4:	01a64d33          	xor	s10,a2,s10
   112f8:	01a30023          	sb	s10,0(t1)
   112fc:	0a174783          	lbu	a5,161(a4)
   11300:	00f547b3          	xor	a5,a0,a5
   11304:	00f300a3          	sb	a5,1(t1)
   11308:	0a274b83          	lbu	s7,162(a4)
   1130c:	03812783          	lw	a5,56(sp)
   11310:	0177cbb3          	xor	s7,a5,s7
   11314:	01730123          	sb	s7,2(t1)
   11318:	0a374603          	lbu	a2,163(a4)
   1131c:	04c12783          	lw	a5,76(sp)
   11320:	00c7c633          	xor	a2,a5,a2
   11324:	00c301a3          	sb	a2,3(t1)
   11328:	0a474a03          	lbu	s4,164(a4)
   1132c:	01812783          	lw	a5,24(sp)
   11330:	0147ca33          	xor	s4,a5,s4
   11334:	01430223          	sb	s4,4(t1)
   11338:	0a574783          	lbu	a5,165(a4)
   1133c:	00f6c7b3          	xor	a5,a3,a5
   11340:	00f302a3          	sb	a5,5(t1)
   11344:	0a674483          	lbu	s1,166(a4)
   11348:	03c12783          	lw	a5,60(sp)
   1134c:	0097c4b3          	xor	s1,a5,s1
   11350:	00930323          	sb	s1,6(t1)
   11354:	0a774683          	lbu	a3,167(a4)
   11358:	04012783          	lw	a5,64(sp)
   1135c:	00d7c6b3          	xor	a3,a5,a3
   11360:	00d303a3          	sb	a3,7(t1)
   11364:	0a874283          	lbu	t0,168(a4)
   11368:	01c12783          	lw	a5,28(sp)
   1136c:	02c12683          	lw	a3,44(sp)
   11370:	0057c2b3          	xor	t0,a5,t0
   11374:	00530423          	sb	t0,8(t1)
   11378:	0a974783          	lbu	a5,169(a4)
   1137c:	00f6c7b3          	xor	a5,a3,a5
   11380:	00f304a3          	sb	a5,9(t1)
   11384:	0aa74e83          	lbu	t4,170(a4)
   11388:	00070793          	addi	a5,a4,0
   1138c:	03012703          	lw	a4,48(sp)
   11390:	01d74eb3          	xor	t4,a4,t4
   11394:	01d30523          	sb	t4,10(t1)
   11398:	0ab7c703          	lbu	a4,171(a5)
   1139c:	04412683          	lw	a3,68(sp)
   113a0:	00e6c733          	xor	a4,a3,a4
   113a4:	00e305a3          	sb	a4,11(t1)
   113a8:	0ac7c883          	lbu	a7,172(a5)
   113ac:	00078713          	addi	a4,a5,0
   113b0:	02012683          	lw	a3,32(sp)
   113b4:	011e48b3          	xor	a7,t3,a7
   113b8:	01130623          	sb	a7,12(t1)
   113bc:	0ad7c783          	lbu	a5,173(a5)
   113c0:	00f6c7b3          	xor	a5,a3,a5
   113c4:	00f306a3          	sb	a5,13(t1)
   113c8:	0ae74583          	lbu	a1,174(a4)
   113cc:	00070793          	addi	a5,a4,0
   113d0:	03412703          	lw	a4,52(sp)
   113d4:	00b745b3          	xor	a1,a4,a1
   113d8:	00b30723          	sb	a1,14(t1)
   113dc:	0af7c783          	lbu	a5,175(a5)
   113e0:	04812703          	lw	a4,72(sp)
   113e4:	00f747b3          	xor	a5,a4,a5
   113e8:	00f307a3          	sb	a5,15(t1)
   113ec:	0ec12403          	lw	s0,236(sp)
   113f0:	0e812483          	lw	s1,232(sp)
   113f4:	0e412903          	lw	s2,228(sp)
   113f8:	0e012983          	lw	s3,224(sp)
   113fc:	0dc12a03          	lw	s4,220(sp)
   11400:	0d812a83          	lw	s5,216(sp)
   11404:	0d412b03          	lw	s6,212(sp)
   11408:	0d012b83          	lw	s7,208(sp)
   1140c:	0cc12c03          	lw	s8,204(sp)
   11410:	0c812c83          	lw	s9,200(sp)
   11414:	0c412d03          	lw	s10,196(sp)
   11418:	0c012d83          	lw	s11,192(sp)
   1141c:	0f010113          	addi	sp,sp,240
   11420:	00008067          	jalr	zero,0(ra)

00011424 <InvCipher>:
   11424:	0a05c703          	lbu	a4,160(a1)
   11428:	00054783          	lbu	a5,0(a0)
   1142c:	00154603          	lbu	a2,1(a0)
   11430:	00254683          	lbu	a3,2(a0)
   11434:	00e7c7b3          	xor	a5,a5,a4
   11438:	00f50023          	sb	a5,0(a0)
   1143c:	0a15c803          	lbu	a6,161(a1)
   11440:	00354703          	lbu	a4,3(a0)
   11444:	00454783          	lbu	a5,4(a0)
   11448:	01064633          	xor	a2,a2,a6
   1144c:	00c500a3          	sb	a2,1(a0)
   11450:	0a25c603          	lbu	a2,162(a1)
   11454:	00554303          	lbu	t1,5(a0)
   11458:	fd010113          	addi	sp,sp,-48
   1145c:	00c6c6b3          	xor	a3,a3,a2
   11460:	00d50123          	sb	a3,2(a0)
   11464:	0a35c683          	lbu	a3,163(a1)
   11468:	02812623          	sw	s0,44(sp)
   1146c:	02912423          	sw	s1,40(sp)
   11470:	00d74733          	xor	a4,a4,a3
   11474:	00e501a3          	sb	a4,3(a0)
   11478:	0a45c883          	lbu	a7,164(a1)
   1147c:	03212223          	sw	s2,36(sp)
   11480:	03312023          	sw	s3,32(sp)
   11484:	0117c7b3          	xor	a5,a5,a7
   11488:	00f50223          	sb	a5,4(a0)
   1148c:	0a55c783          	lbu	a5,165(a1)
   11490:	01412e23          	sw	s4,28(sp)
   11494:	01512c23          	sw	s5,24(sp)
   11498:	0067c7b3          	xor	a5,a5,t1
   1149c:	01612a23          	sw	s6,20(sp)
   114a0:	01712823          	sw	s7,16(sp)
   114a4:	01812623          	sw	s8,12(sp)
   114a8:	01912423          	sw	s9,8(sp)
   114ac:	00754803          	lbu	a6,7(a0)
   114b0:	00854603          	lbu	a2,8(a0)
   114b4:	00954683          	lbu	a3,9(a0)
   114b8:	00a54703          	lbu	a4,10(a0)
   114bc:	00654e83          	lbu	t4,6(a0)
   114c0:	00f502a3          	sb	a5,5(a0)
   114c4:	0a65c783          	lbu	a5,166(a1)
   114c8:	00023337          	lui	t1,0x23
   114cc:	09058893          	addi	a7,a1,144
   114d0:	01d7c7b3          	xor	a5,a5,t4
   114d4:	00f50323          	sb	a5,6(a0)
   114d8:	0a75c783          	lbu	a5,167(a1)
   114dc:	05830313          	addi	t1,t1,88 # 23058 <sbox>
   114e0:	01050e13          	addi	t3,a0,16
   114e4:	0107c7b3          	xor	a5,a5,a6
   114e8:	00f503a3          	sb	a5,7(a0)
   114ec:	0a85c783          	lbu	a5,168(a1)
   114f0:	00c7c7b3          	xor	a5,a5,a2
   114f4:	00f50423          	sb	a5,8(a0)
   114f8:	0a95c783          	lbu	a5,169(a1)
   114fc:	00c54603          	lbu	a2,12(a0)
   11500:	00d7c7b3          	xor	a5,a5,a3
   11504:	00f504a3          	sb	a5,9(a0)
   11508:	0aa5c783          	lbu	a5,170(a1)
   1150c:	00d54683          	lbu	a3,13(a0)
   11510:	00e7c7b3          	xor	a5,a5,a4
   11514:	00f50523          	sb	a5,10(a0)
   11518:	0ab5c783          	lbu	a5,171(a1)
   1151c:	00b54703          	lbu	a4,11(a0)
   11520:	00e7c7b3          	xor	a5,a5,a4
   11524:	00f505a3          	sb	a5,11(a0)
   11528:	0ac5c803          	lbu	a6,172(a1)
   1152c:	00e54703          	lbu	a4,14(a0)
   11530:	00f54783          	lbu	a5,15(a0)
   11534:	01064633          	xor	a2,a2,a6
   11538:	00c50623          	sb	a2,12(a0)
   1153c:	0ad5c603          	lbu	a2,173(a1)
   11540:	00c6c6b3          	xor	a3,a3,a2
   11544:	00d506a3          	sb	a3,13(a0)
   11548:	0ae5c683          	lbu	a3,174(a1)
   1154c:	00d74733          	xor	a4,a4,a3
   11550:	00e50723          	sb	a4,14(a0)
   11554:	0af5c703          	lbu	a4,175(a1)
   11558:	00e7c7b3          	xor	a5,a5,a4
   1155c:	00f507a3          	sb	a5,15(a0)
   11560:	00d54a03          	lbu	s4,13(a0)
   11564:	00954683          	lbu	a3,9(a0)
   11568:	00554f03          	lbu	t5,5(a0)
   1156c:	00154403          	lbu	s0,1(a0)
   11570:	00054a83          	lbu	s5,0(a0)
   11574:	00454483          	lbu	s1,4(a0)
   11578:	00854f83          	lbu	t6,8(a0)
   1157c:	00c54603          	lbu	a2,12(a0)
   11580:	00254e83          	lbu	t4,2(a0)
   11584:	00a54983          	lbu	s3,10(a0)
   11588:	00654703          	lbu	a4,6(a0)
   1158c:	00e54383          	lbu	t2,14(a0)
   11590:	00354783          	lbu	a5,3(a0)
   11594:	00754903          	lbu	s2,7(a0)
   11598:	00b54283          	lbu	t0,11(a0)
   1159c:	00f54803          	lbu	a6,15(a0)
   115a0:	01530ab3          	add	s5,t1,s5
   115a4:	009304b3          	add	s1,t1,s1
   115a8:	01f30fb3          	add	t6,t1,t6
   115ac:	00c30633          	add	a2,t1,a2
   115b0:	01430a33          	add	s4,t1,s4
   115b4:	00830433          	add	s0,t1,s0
   115b8:	01e30f33          	add	t5,t1,t5
   115bc:	00d306b3          	add	a3,t1,a3
   115c0:	10caca83          	lbu	s5,268(s5)
   115c4:	10c4c483          	lbu	s1,268(s1)
   115c8:	10cfcf83          	lbu	t6,268(t6)
   115cc:	10c64603          	lbu	a2,268(a2)
   115d0:	10ca4a03          	lbu	s4,268(s4)
   115d4:	10c44403          	lbu	s0,268(s0)
   115d8:	10cf4f03          	lbu	t5,268(t5)
   115dc:	10c6c683          	lbu	a3,268(a3)
   115e0:	013309b3          	add	s3,t1,s3
   115e4:	007303b3          	add	t2,t1,t2
   115e8:	01d30eb3          	add	t4,t1,t4
   115ec:	00e30733          	add	a4,t1,a4
   115f0:	01230933          	add	s2,t1,s2
   115f4:	005302b3          	add	t0,t1,t0
   115f8:	01030833          	add	a6,t1,a6
   115fc:	00f307b3          	add	a5,t1,a5
   11600:	01550023          	sb	s5,0(a0)
   11604:	00950223          	sb	s1,4(a0)
   11608:	01f50423          	sb	t6,8(a0)
   1160c:	00c50623          	sb	a2,12(a0)
   11610:	014500a3          	sb	s4,1(a0)
   11614:	008502a3          	sb	s0,5(a0)
   11618:	01e504a3          	sb	t5,9(a0)
   1161c:	00d506a3          	sb	a3,13(a0)
   11620:	10c9c983          	lbu	s3,268(s3)
   11624:	10c3c383          	lbu	t2,268(t2)
   11628:	10cece83          	lbu	t4,268(t4)
   1162c:	10c74703          	lbu	a4,268(a4)
   11630:	10c94903          	lbu	s2,268(s2)
   11634:	10c2c283          	lbu	t0,268(t0)
   11638:	10c84803          	lbu	a6,268(a6)
   1163c:	10c7c783          	lbu	a5,268(a5)
   11640:	01350123          	sb	s3,2(a0)
   11644:	00750323          	sb	t2,6(a0)
   11648:	012501a3          	sb	s2,3(a0)
   1164c:	005503a3          	sb	t0,7(a0)
   11650:	01d50523          	sb	t4,10(a0)
   11654:	00e50723          	sb	a4,14(a0)
   11658:	010505a3          	sb	a6,11(a0)
   1165c:	00f507a3          	sb	a5,15(a0)
   11660:	0008cb03          	lbu	s6,0(a7)
   11664:	016acab3          	xor	s5,s5,s6
   11668:	01550023          	sb	s5,0(a0)
   1166c:	0018ca83          	lbu	s5,1(a7)
   11670:	015a4a33          	xor	s4,s4,s5
   11674:	014500a3          	sb	s4,1(a0)
   11678:	0028ca03          	lbu	s4,2(a7)
   1167c:	0149c9b3          	xor	s3,s3,s4
   11680:	01350123          	sb	s3,2(a0)
   11684:	0038c983          	lbu	s3,3(a7)
   11688:	01394933          	xor	s2,s2,s3
   1168c:	012501a3          	sb	s2,3(a0)
   11690:	0048c903          	lbu	s2,4(a7)
   11694:	0124c4b3          	xor	s1,s1,s2
   11698:	00950223          	sb	s1,4(a0)
   1169c:	0058c483          	lbu	s1,5(a7)
   116a0:	00944433          	xor	s0,s0,s1
   116a4:	008502a3          	sb	s0,5(a0)
   116a8:	0068c403          	lbu	s0,6(a7)
   116ac:	0083c3b3          	xor	t2,t2,s0
   116b0:	00750323          	sb	t2,6(a0)
   116b4:	0078c383          	lbu	t2,7(a7)
   116b8:	0072c2b3          	xor	t0,t0,t2
   116bc:	005503a3          	sb	t0,7(a0)
   116c0:	0088c283          	lbu	t0,8(a7)
   116c4:	005fcfb3          	xor	t6,t6,t0
   116c8:	01f50423          	sb	t6,8(a0)
   116cc:	0098cf83          	lbu	t6,9(a7)
   116d0:	01ff4f33          	xor	t5,t5,t6
   116d4:	01e504a3          	sb	t5,9(a0)
   116d8:	00a8cf03          	lbu	t5,10(a7)
   116dc:	01eeceb3          	xor	t4,t4,t5
   116e0:	01d50523          	sb	t4,10(a0)
   116e4:	00b8ce83          	lbu	t4,11(a7)
   116e8:	01d84833          	xor	a6,a6,t4
   116ec:	010505a3          	sb	a6,11(a0)
   116f0:	00c8c803          	lbu	a6,12(a7)
   116f4:	01064633          	xor	a2,a2,a6
   116f8:	00c50623          	sb	a2,12(a0)
   116fc:	00d8c603          	lbu	a2,13(a7)
   11700:	00c6c6b3          	xor	a3,a3,a2
   11704:	00d506a3          	sb	a3,13(a0)
   11708:	00e8c683          	lbu	a3,14(a7)
   1170c:	00d74733          	xor	a4,a4,a3
   11710:	00e50723          	sb	a4,14(a0)
   11714:	00f8c703          	lbu	a4,15(a7)
   11718:	00e7c7b3          	xor	a5,a5,a4
   1171c:	00f507a3          	sb	a5,15(a0)
   11720:	25158a63          	beq	a1,a7,11974 <InvCipher+0x550>
   11724:	00050813          	addi	a6,a0,0
   11728:	00084383          	lbu	t2,0(a6)
   1172c:	00184403          	lbu	s0,1(a6)
   11730:	00284683          	lbu	a3,2(a6)
   11734:	00384a83          	lbu	s5,3(a6)
   11738:	0073d713          	srli	a4,t2,0x7
   1173c:	00745c93          	srli	s9,s0,0x7
   11740:	00371f93          	slli	t6,a4,0x3
   11744:	0076d993          	srli	s3,a3,0x7
   11748:	40ef8fb3          	sub	t6,t6,a4
   1174c:	003c9e93          	slli	t4,s9,0x3
   11750:	007ad793          	srli	a5,s5,0x7
   11754:	419e8eb3          	sub	t4,t4,s9
   11758:	00399613          	slli	a2,s3,0x3
   1175c:	002f9f93          	slli	t6,t6,0x2
   11760:	40ef8fb3          	sub	t6,t6,a4
   11764:	41360633          	sub	a2,a2,s3
   11768:	00139713          	slli	a4,t2,0x1
   1176c:	00379913          	slli	s2,a5,0x3
   11770:	002e9e93          	slli	t4,t4,0x2
   11774:	00efcfb3          	xor	t6,t6,a4
   11778:	419e8eb3          	sub	t4,t4,s9
   1177c:	40f90933          	sub	s2,s2,a5
   11780:	00141c93          	slli	s9,s0,0x1
   11784:	00261613          	slli	a2,a2,0x2
   11788:	0fffff93          	andi	t6,t6,255
   1178c:	019eceb3          	xor	t4,t4,s9
   11790:	41360633          	sub	a2,a2,s3
   11794:	00291913          	slli	s2,s2,0x2
   11798:	00169993          	slli	s3,a3,0x1
   1179c:	007fd293          	srli	t0,t6,0x7
   117a0:	0ffefc93          	andi	s9,t4,255
   117a4:	01364633          	xor	a2,a2,s3
   117a8:	40f90933          	sub	s2,s2,a5
   117ac:	001a9793          	slli	a5,s5,0x1
   117b0:	0ff67993          	andi	s3,a2,255
   117b4:	007cde93          	srli	t4,s9,0x7
   117b8:	00329493          	slli	s1,t0,0x3
   117bc:	00f94933          	xor	s2,s2,a5
   117c0:	0ff97913          	andi	s2,s2,255
   117c4:	0079d713          	srli	a4,s3,0x7
   117c8:	405484b3          	sub	s1,s1,t0
   117cc:	003e9f13          	slli	t5,t4,0x3
   117d0:	00795613          	srli	a2,s2,0x7
   117d4:	41df0f33          	sub	t5,t5,t4
   117d8:	00371793          	slli	a5,a4,0x3
   117dc:	00249493          	slli	s1,s1,0x2
   117e0:	001f9a13          	slli	s4,t6,0x1
   117e4:	405484b3          	sub	s1,s1,t0
   117e8:	40e787b3          	sub	a5,a5,a4
   117ec:	00361293          	slli	t0,a2,0x3
   117f0:	002f1f13          	slli	t5,t5,0x2
   117f4:	0144c4b3          	xor	s1,s1,s4
   117f8:	41df0f33          	sub	t5,t5,t4
   117fc:	40c282b3          	sub	t0,t0,a2
   11800:	001c9e93          	slli	t4,s9,0x1
   11804:	00279793          	slli	a5,a5,0x2
   11808:	0ff4f493          	andi	s1,s1,255
   1180c:	01df4f33          	xor	t5,t5,t4
   11810:	40e787b3          	sub	a5,a5,a4
   11814:	00199e93          	slli	t4,s3,0x1
   11818:	00229293          	slli	t0,t0,0x2
   1181c:	0fff7f13          	andi	t5,t5,255
   11820:	0074d713          	srli	a4,s1,0x7
   11824:	01d7c7b3          	xor	a5,a5,t4
   11828:	40c282b3          	sub	t0,t0,a2
   1182c:	00191613          	slli	a2,s2,0x1
   11830:	007f5c13          	srli	s8,t5,0x7
   11834:	0ff7f793          	andi	a5,a5,255
   11838:	0083cb33          	xor	s6,t2,s0
   1183c:	00d44eb3          	xor	t4,s0,a3
   11840:	00371b93          	slli	s7,a4,0x3
   11844:	00c2c2b3          	xor	t0,t0,a2
   11848:	00d3c633          	xor	a2,t2,a3
   1184c:	0ff2f293          	andi	t0,t0,255
   11850:	0077da13          	srli	s4,a5,0x7
   11854:	40eb8bb3          	sub	s7,s7,a4
   11858:	003c1413          	slli	s0,s8,0x3
   1185c:	01daceb3          	xor	t4,s5,t4
   11860:	00cac633          	xor	a2,s5,a2
   11864:	016acab3          	xor	s5,s5,s6
   11868:	0166cb33          	xor	s6,a3,s6
   1186c:	0072d393          	srli	t2,t0,0x7
   11870:	41840433          	sub	s0,s0,s8
   11874:	01dfceb3          	xor	t4,t6,t4
   11878:	002b9b93          	slli	s7,s7,0x2
   1187c:	016fcfb3          	xor	t6,t6,s6
   11880:	003a1693          	slli	a3,s4,0x3
   11884:	00ccc633          	xor	a2,s9,a2
   11888:	0159cab3          	xor	s5,s3,s5
   1188c:	40eb8bb3          	sub	s7,s7,a4
   11890:	01f94fb3          	xor	t6,s2,t6
   11894:	00149b13          	slli	s6,s1,0x1
   11898:	00241413          	slli	s0,s0,0x2
   1189c:	414686b3          	sub	a3,a3,s4
   118a0:	00339713          	slli	a4,t2,0x3
   118a4:	01dcceb3          	xor	t4,s9,t4
   118a8:	00c9c633          	xor	a2,s3,a2
   118ac:	01594ab3          	xor	s5,s2,s5
   118b0:	41840433          	sub	s0,s0,s8
   118b4:	00cf4633          	xor	a2,t5,a2
   118b8:	001f1c13          	slli	s8,t5,0x1
   118bc:	016bcb33          	xor	s6,s7,s6
   118c0:	01ff4f33          	xor	t5,t5,t6
   118c4:	00269693          	slli	a3,a3,0x2
   118c8:	40770733          	sub	a4,a4,t2
   118cc:	01d4ceb3          	xor	t4,s1,t4
   118d0:	0154cab3          	xor	s5,s1,s5
   118d4:	0ffb7b13          	andi	s6,s6,255
   118d8:	00179f93          	slli	t6,a5,0x1
   118dc:	01d7ceb3          	xor	t4,a5,t4
   118e0:	00c2c633          	xor	a2,t0,a2
   118e4:	01e2cf33          	xor	t5,t0,t5
   118e8:	01844433          	xor	s0,s0,s8
   118ec:	414686b3          	sub	a3,a3,s4
   118f0:	00271713          	slli	a4,a4,0x2
   118f4:	0157c7b3          	xor	a5,a5,s5
   118f8:	0ff47413          	andi	s0,s0,255
   118fc:	01db4eb3          	xor	t4,s6,t4
   11900:	00cb4633          	xor	a2,s6,a2
   11904:	00fb47b3          	xor	a5,s6,a5
   11908:	01f6c6b3          	xor	a3,a3,t6
   1190c:	40770733          	sub	a4,a4,t2
   11910:	00129293          	slli	t0,t0,0x1
   11914:	01eb4b33          	xor	s6,s6,t5
   11918:	0ff6f693          	andi	a3,a3,255
   1191c:	01d44eb3          	xor	t4,s0,t4
   11920:	00c44633          	xor	a2,s0,a2
   11924:	00f447b3          	xor	a5,s0,a5
   11928:	00574733          	xor	a4,a4,t0
   1192c:	01644433          	xor	s0,s0,s6
   11930:	0ff77713          	andi	a4,a4,255
   11934:	01d6ceb3          	xor	t4,a3,t4
   11938:	00c6c633          	xor	a2,a3,a2
   1193c:	00f6c7b3          	xor	a5,a3,a5
   11940:	0086c6b3          	xor	a3,a3,s0
   11944:	01d74eb3          	xor	t4,a4,t4
   11948:	00c74633          	xor	a2,a4,a2
   1194c:	00f747b3          	xor	a5,a4,a5
   11950:	00d74733          	xor	a4,a4,a3
   11954:	01d80023          	sb	t4,0(a6)
   11958:	00c800a3          	sb	a2,1(a6)
   1195c:	00f80123          	sb	a5,2(a6)
   11960:	00e801a3          	sb	a4,3(a6)
   11964:	00480813          	addi	a6,a6,4
   11968:	ddc810e3          	bne	a6,t3,11728 <InvCipher+0x304>
   1196c:	ff088893          	addi	a7,a7,-16
   11970:	bf1ff06f          	jal	zero,11560 <InvCipher+0x13c>
   11974:	02c12403          	lw	s0,44(sp)
   11978:	02812483          	lw	s1,40(sp)
   1197c:	02412903          	lw	s2,36(sp)
   11980:	02012983          	lw	s3,32(sp)
   11984:	01c12a03          	lw	s4,28(sp)
   11988:	01812a83          	lw	s5,24(sp)
   1198c:	01412b03          	lw	s6,20(sp)
   11990:	01012b83          	lw	s7,16(sp)
   11994:	00c12c03          	lw	s8,12(sp)
   11998:	00812c83          	lw	s9,8(sp)
   1199c:	03010113          	addi	sp,sp,48
   119a0:	00008067          	jalr	zero,0(ra)

000119a4 <AES_init_ctx>:
   119a4:	dd5fe06f          	jal	zero,10778 <KeyExpansion>

000119a8 <AES_init_ctx_iv>:
   119a8:	ff010113          	addi	sp,sp,-16
   119ac:	00812423          	sw	s0,8(sp)
   119b0:	00912223          	sw	s1,4(sp)
   119b4:	00112623          	sw	ra,12(sp)
   119b8:	00060493          	addi	s1,a2,0
   119bc:	00050413          	addi	s0,a0,0
   119c0:	db9fe0ef          	jal	ra,10778 <KeyExpansion>
   119c4:	0b040513          	addi	a0,s0,176
   119c8:	00812403          	lw	s0,8(sp)
   119cc:	00c12083          	lw	ra,12(sp)
   119d0:	00048593          	addi	a1,s1,0
   119d4:	00412483          	lw	s1,4(sp)
   119d8:	01000613          	addi	a2,zero,16
   119dc:	01010113          	addi	sp,sp,16
   119e0:	28d0006f          	jal	zero,1246c <memcpy>

000119e4 <AES_ctx_set_iv>:
   119e4:	01000613          	addi	a2,zero,16
   119e8:	0b050513          	addi	a0,a0,176
   119ec:	2810006f          	jal	zero,1246c <memcpy>

000119f0 <AES_ECB_encrypt>:
   119f0:	00058793          	addi	a5,a1,0
   119f4:	00050593          	addi	a1,a0,0
   119f8:	00078513          	addi	a0,a5,0
   119fc:	fd1fe06f          	jal	zero,109cc <Cipher>

00011a00 <AES_ECB_decrypt>:
   11a00:	00058793          	addi	a5,a1,0
   11a04:	00050593          	addi	a1,a0,0
   11a08:	00078513          	addi	a0,a5,0
   11a0c:	a19ff06f          	jal	zero,11424 <InvCipher>

00011a10 <AES_CBC_encrypt_buffer>:
   11a10:	fe010113          	addi	sp,sp,-32
   11a14:	01312623          	sw	s3,12(sp)
   11a18:	00112e23          	sw	ra,28(sp)
   11a1c:	00812c23          	sw	s0,24(sp)
   11a20:	00912a23          	sw	s1,20(sp)
   11a24:	01212823          	sw	s2,16(sp)
   11a28:	01412423          	sw	s4,8(sp)
   11a2c:	0b050993          	addi	s3,a0,176
   11a30:	16060463          	beq	a2,zero,11b98 <AES_CBC_encrypt_buffer+0x188>
   11a34:	00050493          	addi	s1,a0,0
   11a38:	00060913          	addi	s2,a2,0
   11a3c:	00058413          	addi	s0,a1,0
   11a40:	00098793          	addi	a5,s3,0
   11a44:	00000a13          	addi	s4,zero,0
   11a48:	0080006f          	jal	zero,11a50 <AES_CBC_encrypt_buffer+0x40>
   11a4c:	00070413          	addi	s0,a4,0
   11a50:	0007c583          	lbu	a1,0(a5)
   11a54:	00044703          	lbu	a4,0(s0)
   11a58:	00144603          	lbu	a2,1(s0)
   11a5c:	00244683          	lbu	a3,2(s0)
   11a60:	00b74733          	xor	a4,a4,a1
   11a64:	00e40023          	sb	a4,0(s0)
   11a68:	0017c503          	lbu	a0,1(a5)
   11a6c:	00344703          	lbu	a4,3(s0)
   11a70:	00444583          	lbu	a1,4(s0)
   11a74:	00a64633          	xor	a2,a2,a0
   11a78:	00c400a3          	sb	a2,1(s0)
   11a7c:	0027c603          	lbu	a2,2(a5)
   11a80:	00544303          	lbu	t1,5(s0)
   11a84:	00644883          	lbu	a7,6(s0)
   11a88:	00c6c6b3          	xor	a3,a3,a2
   11a8c:	00d40123          	sb	a3,2(s0)
   11a90:	0037c683          	lbu	a3,3(a5)
   11a94:	00744803          	lbu	a6,7(s0)
   11a98:	00844603          	lbu	a2,8(s0)
   11a9c:	00d74733          	xor	a4,a4,a3
   11aa0:	00e401a3          	sb	a4,3(s0)
   11aa4:	0047c503          	lbu	a0,4(a5)
   11aa8:	00944683          	lbu	a3,9(s0)
   11aac:	00a44703          	lbu	a4,10(s0)
   11ab0:	00a5c5b3          	xor	a1,a1,a0
   11ab4:	00b40223          	sb	a1,4(s0)
   11ab8:	0057ce03          	lbu	t3,5(a5)
   11abc:	00040513          	addi	a0,s0,0
   11ac0:	00048593          	addi	a1,s1,0
   11ac4:	01c34333          	xor	t1,t1,t3
   11ac8:	006402a3          	sb	t1,5(s0)
   11acc:	0067c303          	lbu	t1,6(a5)
   11ad0:	010a0a13          	addi	s4,s4,16
   11ad4:	0068c8b3          	xor	a7,a7,t1
   11ad8:	01140323          	sb	a7,6(s0)
   11adc:	0077c883          	lbu	a7,7(a5)
   11ae0:	01184833          	xor	a6,a6,a7
   11ae4:	010403a3          	sb	a6,7(s0)
   11ae8:	0087c803          	lbu	a6,8(a5)
   11aec:	01064633          	xor	a2,a2,a6
   11af0:	00c40423          	sb	a2,8(s0)
   11af4:	0097c603          	lbu	a2,9(a5)
   11af8:	00c6c6b3          	xor	a3,a3,a2
   11afc:	00d404a3          	sb	a3,9(s0)
   11b00:	00a7c683          	lbu	a3,10(a5)
   11b04:	00d74733          	xor	a4,a4,a3
   11b08:	00e40523          	sb	a4,10(s0)
   11b0c:	00b7c683          	lbu	a3,11(a5)
   11b10:	00b44703          	lbu	a4,11(s0)
   11b14:	00c44803          	lbu	a6,12(s0)
   11b18:	00d44603          	lbu	a2,13(s0)
   11b1c:	00d74733          	xor	a4,a4,a3
   11b20:	00e405a3          	sb	a4,11(s0)
   11b24:	00c7c883          	lbu	a7,12(a5)
   11b28:	00e44683          	lbu	a3,14(s0)
   11b2c:	00f44703          	lbu	a4,15(s0)
   11b30:	01184833          	xor	a6,a6,a7
   11b34:	01040623          	sb	a6,12(s0)
   11b38:	00d7c803          	lbu	a6,13(a5)
   11b3c:	01064633          	xor	a2,a2,a6
   11b40:	00c406a3          	sb	a2,13(s0)
   11b44:	00e7c603          	lbu	a2,14(a5)
   11b48:	00c6c6b3          	xor	a3,a3,a2
   11b4c:	00d40723          	sb	a3,14(s0)
   11b50:	00f7c783          	lbu	a5,15(a5)
   11b54:	00f747b3          	xor	a5,a4,a5
   11b58:	00f407a3          	sb	a5,15(s0)
   11b5c:	e71fe0ef          	jal	ra,109cc <Cipher>
   11b60:	01040713          	addi	a4,s0,16
   11b64:	00040793          	addi	a5,s0,0
   11b68:	ef2a62e3          	bltu	s4,s2,11a4c <AES_CBC_encrypt_buffer+0x3c>
   11b6c:	00040593          	addi	a1,s0,0
   11b70:	01812403          	lw	s0,24(sp)
   11b74:	01c12083          	lw	ra,28(sp)
   11b78:	01412483          	lw	s1,20(sp)
   11b7c:	01012903          	lw	s2,16(sp)
   11b80:	00812a03          	lw	s4,8(sp)
   11b84:	00098513          	addi	a0,s3,0
   11b88:	00c12983          	lw	s3,12(sp)
   11b8c:	01000613          	addi	a2,zero,16
   11b90:	02010113          	addi	sp,sp,32
   11b94:	0d90006f          	jal	zero,1246c <memcpy>
   11b98:	00098413          	addi	s0,s3,0
   11b9c:	fd1ff06f          	jal	zero,11b6c <AES_CBC_encrypt_buffer+0x15c>

00011ba0 <AES_CBC_decrypt_buffer>:
   11ba0:	18060663          	beq	a2,zero,11d2c <AES_CBC_decrypt_buffer+0x18c>
   11ba4:	fd010113          	addi	sp,sp,-48
   11ba8:	02812423          	sw	s0,40(sp)
   11bac:	02912223          	sw	s1,36(sp)
   11bb0:	03212023          	sw	s2,32(sp)
   11bb4:	01312e23          	sw	s3,28(sp)
   11bb8:	01412c23          	sw	s4,24(sp)
   11bbc:	02112623          	sw	ra,44(sp)
   11bc0:	00050493          	addi	s1,a0,0
   11bc4:	00060993          	addi	s3,a2,0
   11bc8:	00058413          	addi	s0,a1,0
   11bcc:	00000913          	addi	s2,zero,0
   11bd0:	0b050a13          	addi	s4,a0,176
   11bd4:	00040593          	addi	a1,s0,0
   11bd8:	01000613          	addi	a2,zero,16
   11bdc:	00010513          	addi	a0,sp,0
   11be0:	08d000ef          	jal	ra,1246c <memcpy>
   11be4:	00040513          	addi	a0,s0,0
   11be8:	00048593          	addi	a1,s1,0
   11bec:	839ff0ef          	jal	ra,11424 <InvCipher>
   11bf0:	00044783          	lbu	a5,0(s0)
   11bf4:	0b04c603          	lbu	a2,176(s1)
   11bf8:	00144683          	lbu	a3,1(s0)
   11bfc:	00244703          	lbu	a4,2(s0)
   11c00:	00c7c7b3          	xor	a5,a5,a2
   11c04:	00f40023          	sb	a5,0(s0)
   11c08:	0b14c583          	lbu	a1,177(s1)
   11c0c:	00344783          	lbu	a5,3(s0)
   11c10:	00444603          	lbu	a2,4(s0)
   11c14:	00b6c6b3          	xor	a3,a3,a1
   11c18:	00d400a3          	sb	a3,1(s0)
   11c1c:	0b24c683          	lbu	a3,178(s1)
   11c20:	00544503          	lbu	a0,5(s0)
   11c24:	00644883          	lbu	a7,6(s0)
   11c28:	00d74733          	xor	a4,a4,a3
   11c2c:	00e40123          	sb	a4,2(s0)
   11c30:	0b34c703          	lbu	a4,179(s1)
   11c34:	00744803          	lbu	a6,7(s0)
   11c38:	00844683          	lbu	a3,8(s0)
   11c3c:	00e7c7b3          	xor	a5,a5,a4
   11c40:	00f401a3          	sb	a5,3(s0)
   11c44:	0b44c583          	lbu	a1,180(s1)
   11c48:	00944703          	lbu	a4,9(s0)
   11c4c:	00a44783          	lbu	a5,10(s0)
   11c50:	00b64633          	xor	a2,a2,a1
   11c54:	00c40223          	sb	a2,4(s0)
   11c58:	0b54c303          	lbu	t1,181(s1)
   11c5c:	01040413          	addi	s0,s0,16
   11c60:	01090913          	addi	s2,s2,16
   11c64:	00654533          	xor	a0,a0,t1
   11c68:	fea40aa3          	sb	a0,-11(s0)
   11c6c:	0b64c303          	lbu	t1,182(s1)
   11c70:	01000613          	addi	a2,zero,16
   11c74:	00010593          	addi	a1,sp,0
   11c78:	0068c8b3          	xor	a7,a7,t1
   11c7c:	ff140b23          	sb	a7,-10(s0)
   11c80:	0b74c883          	lbu	a7,183(s1)
   11c84:	000a0513          	addi	a0,s4,0
   11c88:	01184833          	xor	a6,a6,a7
   11c8c:	ff040ba3          	sb	a6,-9(s0)
   11c90:	0b84c803          	lbu	a6,184(s1)
   11c94:	0106c6b3          	xor	a3,a3,a6
   11c98:	fed40c23          	sb	a3,-8(s0)
   11c9c:	0b94c683          	lbu	a3,185(s1)
   11ca0:	00d74733          	xor	a4,a4,a3
   11ca4:	fee40ca3          	sb	a4,-7(s0)
   11ca8:	0ba4c703          	lbu	a4,186(s1)
   11cac:	00e7c7b3          	xor	a5,a5,a4
   11cb0:	fef40d23          	sb	a5,-6(s0)
   11cb4:	0bb4c703          	lbu	a4,187(s1)
   11cb8:	ffb44783          	lbu	a5,-5(s0)
   11cbc:	ffc44803          	lbu	a6,-4(s0)
   11cc0:	ffd44683          	lbu	a3,-3(s0)
   11cc4:	00e7c7b3          	xor	a5,a5,a4
   11cc8:	fef40da3          	sb	a5,-5(s0)
   11ccc:	0bc4c883          	lbu	a7,188(s1)
   11cd0:	ffe44703          	lbu	a4,-2(s0)
   11cd4:	fff44783          	lbu	a5,-1(s0)
   11cd8:	01184833          	xor	a6,a6,a7
   11cdc:	ff040e23          	sb	a6,-4(s0)
   11ce0:	0bd4c803          	lbu	a6,189(s1)
   11ce4:	0106c6b3          	xor	a3,a3,a6
   11ce8:	fed40ea3          	sb	a3,-3(s0)
   11cec:	0be4c683          	lbu	a3,190(s1)
   11cf0:	00d74733          	xor	a4,a4,a3
   11cf4:	fee40f23          	sb	a4,-2(s0)
   11cf8:	0bf4c703          	lbu	a4,191(s1)
   11cfc:	00e7c7b3          	xor	a5,a5,a4
   11d00:	fef40fa3          	sb	a5,-1(s0)
   11d04:	768000ef          	jal	ra,1246c <memcpy>
   11d08:	ed3966e3          	bltu	s2,s3,11bd4 <AES_CBC_decrypt_buffer+0x34>
   11d0c:	02c12083          	lw	ra,44(sp)
   11d10:	02812403          	lw	s0,40(sp)
   11d14:	02412483          	lw	s1,36(sp)
   11d18:	02012903          	lw	s2,32(sp)
   11d1c:	01c12983          	lw	s3,28(sp)
   11d20:	01812a03          	lw	s4,24(sp)
   11d24:	03010113          	addi	sp,sp,48
   11d28:	00008067          	jalr	zero,0(ra)
   11d2c:	00008067          	jalr	zero,0(ra)

00011d30 <AES_CTR_xcrypt_buffer>:
   11d30:	fd010113          	addi	sp,sp,-48
   11d34:	02912223          	sw	s1,36(sp)
   11d38:	02112623          	sw	ra,44(sp)
   11d3c:	02812423          	sw	s0,40(sp)
   11d40:	03212023          	sw	s2,32(sp)
   11d44:	01312e23          	sw	s3,28(sp)
   11d48:	01412c23          	sw	s4,24(sp)
   11d4c:	01512a23          	sw	s5,20(sp)
   11d50:	00c584b3          	add	s1,a1,a2
   11d54:	04060463          	beq	a2,zero,11d9c <AES_CTR_xcrypt_buffer+0x6c>
   11d58:	00058413          	addi	s0,a1,0
   11d5c:	00050993          	addi	s3,a0,0
   11d60:	01000693          	addi	a3,zero,16
   11d64:	01000913          	addi	s2,zero,16
   11d68:	0b050a93          	addi	s5,a0,176
   11d6c:	0ff00a13          	addi	s4,zero,255
   11d70:	05268863          	beq	a3,s2,11dc0 <AES_CTR_xcrypt_buffer+0x90>
   11d74:	00068713          	addi	a4,a3,0
   11d78:	00168693          	addi	a3,a3,1
   11d7c:	01010793          	addi	a5,sp,16
   11d80:	00e78733          	add	a4,a5,a4
   11d84:	ff074703          	lbu	a4,-16(a4)
   11d88:	00044783          	lbu	a5,0(s0)
   11d8c:	00140413          	addi	s0,s0,1
   11d90:	00e7c7b3          	xor	a5,a5,a4
   11d94:	fef40fa3          	sb	a5,-1(s0)
   11d98:	fc849ce3          	bne	s1,s0,11d70 <AES_CTR_xcrypt_buffer+0x40>
   11d9c:	02c12083          	lw	ra,44(sp)
   11da0:	02812403          	lw	s0,40(sp)
   11da4:	02412483          	lw	s1,36(sp)
   11da8:	02012903          	lw	s2,32(sp)
   11dac:	01c12983          	lw	s3,28(sp)
   11db0:	01812a03          	lw	s4,24(sp)
   11db4:	01412a83          	lw	s5,20(sp)
   11db8:	03010113          	addi	sp,sp,48
   11dbc:	00008067          	jalr	zero,0(ra)
   11dc0:	01000613          	addi	a2,zero,16
   11dc4:	000a8593          	addi	a1,s5,0
   11dc8:	00010513          	addi	a0,sp,0
   11dcc:	6a0000ef          	jal	ra,1246c <memcpy>
   11dd0:	00098593          	addi	a1,s3,0
   11dd4:	00010513          	addi	a0,sp,0
   11dd8:	bf5fe0ef          	jal	ra,109cc <Cipher>
   11ddc:	0bf9c783          	lbu	a5,191(s3)
   11de0:	00f00713          	addi	a4,zero,15
   11de4:	01478e63          	beq	a5,s4,11e00 <AES_CTR_xcrypt_buffer+0xd0>
   11de8:	00e98733          	add	a4,s3,a4
   11dec:	00178793          	addi	a5,a5,1
   11df0:	0af70823          	sb	a5,176(a4)
   11df4:	00100693          	addi	a3,zero,1
   11df8:	00000713          	addi	a4,zero,0
   11dfc:	f81ff06f          	jal	zero,11d7c <AES_CTR_xcrypt_buffer+0x4c>
   11e00:	0be9c783          	lbu	a5,190(s3)
   11e04:	0a098fa3          	sb	zero,191(s3)
   11e08:	00e00713          	addi	a4,zero,14
   11e0c:	fd479ee3          	bne	a5,s4,11de8 <AES_CTR_xcrypt_buffer+0xb8>
   11e10:	0bd9c783          	lbu	a5,189(s3)
   11e14:	0a098f23          	sb	zero,190(s3)
   11e18:	00d00713          	addi	a4,zero,13
   11e1c:	fd4796e3          	bne	a5,s4,11de8 <AES_CTR_xcrypt_buffer+0xb8>
   11e20:	0bc9c783          	lbu	a5,188(s3)
   11e24:	0a098ea3          	sb	zero,189(s3)
   11e28:	00c00713          	addi	a4,zero,12
   11e2c:	fb479ee3          	bne	a5,s4,11de8 <AES_CTR_xcrypt_buffer+0xb8>
   11e30:	0bb9c783          	lbu	a5,187(s3)
   11e34:	0a098e23          	sb	zero,188(s3)
   11e38:	00b00713          	addi	a4,zero,11
   11e3c:	fb4796e3          	bne	a5,s4,11de8 <AES_CTR_xcrypt_buffer+0xb8>
   11e40:	0ba9c783          	lbu	a5,186(s3)
   11e44:	0a098da3          	sb	zero,187(s3)
   11e48:	00a00713          	addi	a4,zero,10
   11e4c:	f9479ee3          	bne	a5,s4,11de8 <AES_CTR_xcrypt_buffer+0xb8>
   11e50:	0b99c783          	lbu	a5,185(s3)
   11e54:	0a098d23          	sb	zero,186(s3)
   11e58:	00900713          	addi	a4,zero,9
   11e5c:	f94796e3          	bne	a5,s4,11de8 <AES_CTR_xcrypt_buffer+0xb8>
   11e60:	0b89c783          	lbu	a5,184(s3)
   11e64:	0a098ca3          	sb	zero,185(s3)
   11e68:	00800713          	addi	a4,zero,8
   11e6c:	f7479ee3          	bne	a5,s4,11de8 <AES_CTR_xcrypt_buffer+0xb8>
   11e70:	0b79c783          	lbu	a5,183(s3)
   11e74:	0a098c23          	sb	zero,184(s3)
   11e78:	00700713          	addi	a4,zero,7
   11e7c:	f74796e3          	bne	a5,s4,11de8 <AES_CTR_xcrypt_buffer+0xb8>
   11e80:	0b69c783          	lbu	a5,182(s3)
   11e84:	0a098ba3          	sb	zero,183(s3)
   11e88:	00600713          	addi	a4,zero,6
   11e8c:	f5479ee3          	bne	a5,s4,11de8 <AES_CTR_xcrypt_buffer+0xb8>
   11e90:	0b59c783          	lbu	a5,181(s3)
   11e94:	0a098b23          	sb	zero,182(s3)
   11e98:	00500713          	addi	a4,zero,5
   11e9c:	f54796e3          	bne	a5,s4,11de8 <AES_CTR_xcrypt_buffer+0xb8>
   11ea0:	0b49c783          	lbu	a5,180(s3)
   11ea4:	0a098aa3          	sb	zero,181(s3)
   11ea8:	00400713          	addi	a4,zero,4
   11eac:	f3479ee3          	bne	a5,s4,11de8 <AES_CTR_xcrypt_buffer+0xb8>
   11eb0:	0b39c783          	lbu	a5,179(s3)
   11eb4:	0a098a23          	sb	zero,180(s3)
   11eb8:	00300713          	addi	a4,zero,3
   11ebc:	f34796e3          	bne	a5,s4,11de8 <AES_CTR_xcrypt_buffer+0xb8>
   11ec0:	0b29c783          	lbu	a5,178(s3)
   11ec4:	0a0989a3          	sb	zero,179(s3)
   11ec8:	00200713          	addi	a4,zero,2
   11ecc:	f1479ee3          	bne	a5,s4,11de8 <AES_CTR_xcrypt_buffer+0xb8>
   11ed0:	0b19c783          	lbu	a5,177(s3)
   11ed4:	0a098923          	sb	zero,178(s3)
   11ed8:	00100713          	addi	a4,zero,1
   11edc:	f14796e3          	bne	a5,s4,11de8 <AES_CTR_xcrypt_buffer+0xb8>
   11ee0:	0b09c783          	lbu	a5,176(s3)
   11ee4:	0a0988a3          	sb	zero,177(s3)
   11ee8:	00000713          	addi	a4,zero,0
   11eec:	ef479ee3          	bne	a5,s4,11de8 <AES_CTR_xcrypt_buffer+0xb8>
   11ef0:	0a098823          	sb	zero,176(s3)
   11ef4:	00100693          	addi	a3,zero,1
   11ef8:	e85ff06f          	jal	zero,11d7c <AES_CTR_xcrypt_buffer+0x4c>

00011efc <test_encrypt_cbc>:
   11efc:	000237b7          	lui	a5,0x23
   11f00:	26478793          	addi	a5,a5,612 # 23264 <rsbox+0x100>
   11f04:	0047a603          	lw	a2,4(a5)
   11f08:	0087a683          	lw	a3,8(a5)
   11f0c:	00c7a703          	lw	a4,12(a5)
   11f10:	0007a583          	lw	a1,0(a5)
   11f14:	e9010113          	addi	sp,sp,-368
   11f18:	00c12223          	sw	a2,4(sp)
   11f1c:	00d12423          	sw	a3,8(sp)
   11f20:	00e12623          	sw	a4,12(sp)
   11f24:	16112623          	sw	ra,364(sp)
   11f28:	16812423          	sw	s0,360(sp)
   11f2c:	00b12023          	sw	a1,0(sp)
   11f30:	01078713          	addi	a4,a5,16
   11f34:	02010693          	addi	a3,sp,32
   11f38:	05078613          	addi	a2,a5,80
   11f3c:	00072883          	lw	a7,0(a4)
   11f40:	00472803          	lw	a6,4(a4)
   11f44:	00872503          	lw	a0,8(a4)
   11f48:	00c72583          	lw	a1,12(a4)
   11f4c:	0116a023          	sw	a7,0(a3)
   11f50:	0106a223          	sw	a6,4(a3)
   11f54:	00a6a423          	sw	a0,8(a3)
   11f58:	00b6a623          	sw	a1,12(a3)
   11f5c:	01070713          	addi	a4,a4,16
   11f60:	01068693          	addi	a3,a3,16
   11f64:	fcc71ce3          	bne	a4,a2,11f3c <test_encrypt_cbc+0x40>
   11f68:	0587a683          	lw	a3,88(a5)
   11f6c:	05c7a703          	lw	a4,92(a5)
   11f70:	0507a583          	lw	a1,80(a5)
   11f74:	0547a603          	lw	a2,84(a5)
   11f78:	00d12c23          	sw	a3,24(sp)
   11f7c:	00e12e23          	sw	a4,28(sp)
   11f80:	00b12823          	sw	a1,16(sp)
   11f84:	06078713          	addi	a4,a5,96
   11f88:	00c12a23          	sw	a2,20(sp)
   11f8c:	06010693          	addi	a3,sp,96
   11f90:	0a078793          	addi	a5,a5,160
   11f94:	00072803          	lw	a6,0(a4)
   11f98:	00472503          	lw	a0,4(a4)
   11f9c:	00872583          	lw	a1,8(a4)
   11fa0:	00c72603          	lw	a2,12(a4)
   11fa4:	0106a023          	sw	a6,0(a3)
   11fa8:	00a6a223          	sw	a0,4(a3)
   11fac:	00b6a423          	sw	a1,8(a3)
   11fb0:	00c6a623          	sw	a2,12(a3)
   11fb4:	01070713          	addi	a4,a4,16
   11fb8:	01068693          	addi	a3,a3,16
   11fbc:	fcf71ce3          	bne	a4,a5,11f94 <test_encrypt_cbc+0x98>
   11fc0:	01010613          	addi	a2,sp,16
   11fc4:	00010593          	addi	a1,sp,0
   11fc8:	0a010513          	addi	a0,sp,160
   11fcc:	9ddff0ef          	jal	ra,119a8 <AES_init_ctx_iv>
   11fd0:	04000613          	addi	a2,zero,64
   11fd4:	06010593          	addi	a1,sp,96
   11fd8:	0a010513          	addi	a0,sp,160
   11fdc:	a35ff0ef          	jal	ra,11a10 <AES_CBC_encrypt_buffer>
   11fe0:	00023537          	lui	a0,0x23
   11fe4:	37450513          	addi	a0,a0,884 # 23374 <rsbox+0x210>
   11fe8:	59c000ef          	jal	ra,12584 <printf>
   11fec:	04000613          	addi	a2,zero,64
   11ff0:	06010593          	addi	a1,sp,96
   11ff4:	02010513          	addi	a0,sp,32
   11ff8:	444000ef          	jal	ra,1243c <memcmp>
   11ffc:	00050413          	addi	s0,a0,0
   12000:	02051263          	bne	a0,zero,12024 <test_encrypt_cbc+0x128>
   12004:	00023537          	lui	a0,0x23
   12008:	38450513          	addi	a0,a0,900 # 23384 <rsbox+0x220>
   1200c:	744000ef          	jal	ra,12750 <puts>
   12010:	00040513          	addi	a0,s0,0
   12014:	16c12083          	lw	ra,364(sp)
   12018:	16812403          	lw	s0,360(sp)
   1201c:	17010113          	addi	sp,sp,368
   12020:	00008067          	jalr	zero,0(ra)
   12024:	00023537          	lui	a0,0x23
   12028:	39050513          	addi	a0,a0,912 # 23390 <rsbox+0x22c>
   1202c:	724000ef          	jal	ra,12750 <puts>
   12030:	00100413          	addi	s0,zero,1
   12034:	fddff06f          	jal	zero,12010 <test_encrypt_cbc+0x114>

00012038 <test_decrypt_cbc>:
   12038:	000237b7          	lui	a5,0x23
   1203c:	26478793          	addi	a5,a5,612 # 23264 <rsbox+0x100>
   12040:	0047a603          	lw	a2,4(a5)
   12044:	0087a683          	lw	a3,8(a5)
   12048:	00c7a703          	lw	a4,12(a5)
   1204c:	0007a583          	lw	a1,0(a5)
   12050:	e9010113          	addi	sp,sp,-368
   12054:	00c12223          	sw	a2,4(sp)
   12058:	00d12423          	sw	a3,8(sp)
   1205c:	00e12623          	sw	a4,12(sp)
   12060:	16112623          	sw	ra,364(sp)
   12064:	16812423          	sw	s0,360(sp)
   12068:	00b12023          	sw	a1,0(sp)
   1206c:	01078713          	addi	a4,a5,16
   12070:	02010693          	addi	a3,sp,32
   12074:	05078613          	addi	a2,a5,80
   12078:	00072883          	lw	a7,0(a4)
   1207c:	00472803          	lw	a6,4(a4)
   12080:	00872503          	lw	a0,8(a4)
   12084:	00c72583          	lw	a1,12(a4)
   12088:	0116a023          	sw	a7,0(a3)
   1208c:	0106a223          	sw	a6,4(a3)
   12090:	00a6a423          	sw	a0,8(a3)
   12094:	00b6a623          	sw	a1,12(a3)
   12098:	01070713          	addi	a4,a4,16
   1209c:	01068693          	addi	a3,a3,16
   120a0:	fcc71ce3          	bne	a4,a2,12078 <test_decrypt_cbc+0x40>
   120a4:	0587a683          	lw	a3,88(a5)
   120a8:	05c7a703          	lw	a4,92(a5)
   120ac:	0507a583          	lw	a1,80(a5)
   120b0:	0547a603          	lw	a2,84(a5)
   120b4:	00d12c23          	sw	a3,24(sp)
   120b8:	00e12e23          	sw	a4,28(sp)
   120bc:	00b12823          	sw	a1,16(sp)
   120c0:	06078713          	addi	a4,a5,96
   120c4:	00c12a23          	sw	a2,20(sp)
   120c8:	06010693          	addi	a3,sp,96
   120cc:	0a078793          	addi	a5,a5,160
   120d0:	00072803          	lw	a6,0(a4)
   120d4:	00472503          	lw	a0,4(a4)
   120d8:	00872583          	lw	a1,8(a4)
   120dc:	00c72603          	lw	a2,12(a4)
   120e0:	0106a023          	sw	a6,0(a3)
   120e4:	00a6a223          	sw	a0,4(a3)
   120e8:	00b6a423          	sw	a1,8(a3)
   120ec:	00c6a623          	sw	a2,12(a3)
   120f0:	01070713          	addi	a4,a4,16
   120f4:	01068693          	addi	a3,a3,16
   120f8:	fcf71ce3          	bne	a4,a5,120d0 <test_decrypt_cbc+0x98>
   120fc:	01010613          	addi	a2,sp,16
   12100:	00010593          	addi	a1,sp,0
   12104:	0a010513          	addi	a0,sp,160
   12108:	8a1ff0ef          	jal	ra,119a8 <AES_init_ctx_iv>
   1210c:	04000613          	addi	a2,zero,64
   12110:	02010593          	addi	a1,sp,32
   12114:	0a010513          	addi	a0,sp,160
   12118:	a89ff0ef          	jal	ra,11ba0 <AES_CBC_decrypt_buffer>
   1211c:	00023537          	lui	a0,0x23
   12120:	39c50513          	addi	a0,a0,924 # 2339c <rsbox+0x238>
   12124:	460000ef          	jal	ra,12584 <printf>
   12128:	04000613          	addi	a2,zero,64
   1212c:	02010593          	addi	a1,sp,32
   12130:	06010513          	addi	a0,sp,96
   12134:	308000ef          	jal	ra,1243c <memcmp>
   12138:	00050413          	addi	s0,a0,0
   1213c:	02051263          	bne	a0,zero,12160 <test_decrypt_cbc+0x128>
   12140:	00023537          	lui	a0,0x23
   12144:	38450513          	addi	a0,a0,900 # 23384 <rsbox+0x220>
   12148:	608000ef          	jal	ra,12750 <puts>
   1214c:	00040513          	addi	a0,s0,0
   12150:	16c12083          	lw	ra,364(sp)
   12154:	16812403          	lw	s0,360(sp)
   12158:	17010113          	addi	sp,sp,368
   1215c:	00008067          	jalr	zero,0(ra)
   12160:	00023537          	lui	a0,0x23
   12164:	39050513          	addi	a0,a0,912 # 23390 <rsbox+0x22c>
   12168:	5e8000ef          	jal	ra,12750 <puts>
   1216c:	00100413          	addi	s0,zero,1
   12170:	fddff06f          	jal	zero,1214c <test_decrypt_cbc+0x114>

00012174 <test_xcrypt_ctr>:
   12174:	000237b7          	lui	a5,0x23
   12178:	26478793          	addi	a5,a5,612 # 23264 <rsbox+0x100>
   1217c:	0047a603          	lw	a2,4(a5)
   12180:	0087a683          	lw	a3,8(a5)
   12184:	00c7a703          	lw	a4,12(a5)
   12188:	0007a583          	lw	a1,0(a5)
   1218c:	e9010113          	addi	sp,sp,-368
   12190:	16812423          	sw	s0,360(sp)
   12194:	00c12223          	sw	a2,4(sp)
   12198:	00d12423          	sw	a3,8(sp)
   1219c:	00e12623          	sw	a4,12(sp)
   121a0:	16112623          	sw	ra,364(sp)
   121a4:	00050413          	addi	s0,a0,0
   121a8:	00b12023          	sw	a1,0(sp)
   121ac:	0a078713          	addi	a4,a5,160
   121b0:	02010693          	addi	a3,sp,32
   121b4:	0e078613          	addi	a2,a5,224
   121b8:	00072883          	lw	a7,0(a4)
   121bc:	00472803          	lw	a6,4(a4)
   121c0:	00872503          	lw	a0,8(a4)
   121c4:	00c72583          	lw	a1,12(a4)
   121c8:	0116a023          	sw	a7,0(a3)
   121cc:	0106a223          	sw	a6,4(a3)
   121d0:	00a6a423          	sw	a0,8(a3)
   121d4:	00b6a623          	sw	a1,12(a3)
   121d8:	01070713          	addi	a4,a4,16
   121dc:	01068693          	addi	a3,a3,16
   121e0:	fcc71ce3          	bne	a4,a2,121b8 <test_xcrypt_ctr+0x44>
   121e4:	0e87a683          	lw	a3,232(a5)
   121e8:	0ec7a703          	lw	a4,236(a5)
   121ec:	0e07a583          	lw	a1,224(a5)
   121f0:	0e47a603          	lw	a2,228(a5)
   121f4:	00d12c23          	sw	a3,24(sp)
   121f8:	00e12e23          	sw	a4,28(sp)
   121fc:	00b12823          	sw	a1,16(sp)
   12200:	06078713          	addi	a4,a5,96
   12204:	00c12a23          	sw	a2,20(sp)
   12208:	06010693          	addi	a3,sp,96
   1220c:	0a078793          	addi	a5,a5,160
   12210:	00072803          	lw	a6,0(a4)
   12214:	00472503          	lw	a0,4(a4)
   12218:	00872583          	lw	a1,8(a4)
   1221c:	00c72603          	lw	a2,12(a4)
   12220:	0106a023          	sw	a6,0(a3)
   12224:	00a6a223          	sw	a0,4(a3)
   12228:	00b6a423          	sw	a1,8(a3)
   1222c:	00c6a623          	sw	a2,12(a3)
   12230:	01070713          	addi	a4,a4,16
   12234:	01068693          	addi	a3,a3,16
   12238:	fcf71ce3          	bne	a4,a5,12210 <test_xcrypt_ctr+0x9c>
   1223c:	01010613          	addi	a2,sp,16
   12240:	00010593          	addi	a1,sp,0
   12244:	0a010513          	addi	a0,sp,160
   12248:	f60ff0ef          	jal	ra,119a8 <AES_init_ctx_iv>
   1224c:	04000613          	addi	a2,zero,64
   12250:	0a010513          	addi	a0,sp,160
   12254:	02010593          	addi	a1,sp,32
   12258:	ad9ff0ef          	jal	ra,11d30 <AES_CTR_xcrypt_buffer>
   1225c:	00023537          	lui	a0,0x23
   12260:	00040593          	addi	a1,s0,0
   12264:	3ac50513          	addi	a0,a0,940 # 233ac <rsbox+0x248>
   12268:	31c000ef          	jal	ra,12584 <printf>
   1226c:	04000613          	addi	a2,zero,64
   12270:	02010593          	addi	a1,sp,32
   12274:	06010513          	addi	a0,sp,96
   12278:	1c4000ef          	jal	ra,1243c <memcmp>
   1227c:	00050413          	addi	s0,a0,0
   12280:	02051263          	bne	a0,zero,122a4 <test_xcrypt_ctr+0x130>
   12284:	00023537          	lui	a0,0x23
   12288:	38450513          	addi	a0,a0,900 # 23384 <rsbox+0x220>
   1228c:	4c4000ef          	jal	ra,12750 <puts>
   12290:	00040513          	addi	a0,s0,0
   12294:	16c12083          	lw	ra,364(sp)
   12298:	16812403          	lw	s0,360(sp)
   1229c:	17010113          	addi	sp,sp,368
   122a0:	00008067          	jalr	zero,0(ra)
   122a4:	00023537          	lui	a0,0x23
   122a8:	39050513          	addi	a0,a0,912 # 23390 <rsbox+0x22c>
   122ac:	4a4000ef          	jal	ra,12750 <puts>
   122b0:	00100413          	addi	s0,zero,1
   122b4:	fddff06f          	jal	zero,12290 <test_xcrypt_ctr+0x11c>

000122b8 <test_encrypt_ecb_verbose>:
   122b8:	000236b7          	lui	a3,0x23
   122bc:	26468693          	addi	a3,a3,612 # 23264 <rsbox+0x100>
   122c0:	0086a703          	lw	a4,8(a3)
   122c4:	00c6a783          	lw	a5,12(a3)
   122c8:	0006a583          	lw	a1,0(a3)
   122cc:	0046a603          	lw	a2,4(a3)
   122d0:	ed010113          	addi	sp,sp,-304
   122d4:	11412c23          	sw	s4,280(sp)
   122d8:	01010a13          	addi	s4,sp,16
   122dc:	00e12423          	sw	a4,8(sp)
   122e0:	00f12623          	sw	a5,12(sp)
   122e4:	12112623          	sw	ra,300(sp)
   122e8:	06068793          	addi	a5,a3,96
   122ec:	12812423          	sw	s0,296(sp)
   122f0:	12912223          	sw	s1,292(sp)
   122f4:	13212023          	sw	s2,288(sp)
   122f8:	11312e23          	sw	s3,284(sp)
   122fc:	11512a23          	sw	s5,276(sp)
   12300:	00b12023          	sw	a1,0(sp)
   12304:	00c12223          	sw	a2,4(sp)
   12308:	000a0713          	addi	a4,s4,0
   1230c:	0a068693          	addi	a3,a3,160
   12310:	0007a803          	lw	a6,0(a5)
   12314:	0047a503          	lw	a0,4(a5)
   12318:	0087a583          	lw	a1,8(a5)
   1231c:	00c7a603          	lw	a2,12(a5)
   12320:	01072023          	sw	a6,0(a4)
   12324:	00a72223          	sw	a0,4(a4)
   12328:	00b72423          	sw	a1,8(a4)
   1232c:	00c72623          	sw	a2,12(a4)
   12330:	01078793          	addi	a5,a5,16
   12334:	01070713          	addi	a4,a4,16
   12338:	fcd79ce3          	bne	a5,a3,12310 <test_encrypt_ecb_verbose+0x58>
   1233c:	00023537          	lui	a0,0x23
   12340:	3b850513          	addi	a0,a0,952 # 233b8 <rsbox+0x254>
   12344:	40c000ef          	jal	ra,12750 <puts>
   12348:	00023537          	lui	a0,0x23
   1234c:	3d050513          	addi	a0,a0,976 # 233d0 <rsbox+0x26c>
   12350:	400000ef          	jal	ra,12750 <puts>
   12354:	000a0493          	addi	s1,s4,0
   12358:	05010993          	addi	s3,sp,80
   1235c:	000a0413          	addi	s0,s4,0
   12360:	00023937          	lui	s2,0x23
   12364:	01040a93          	addi	s5,s0,16
   12368:	00044583          	lbu	a1,0(s0)
   1236c:	3dc90513          	addi	a0,s2,988 # 233dc <rsbox+0x278>
   12370:	00140413          	addi	s0,s0,1
   12374:	210000ef          	jal	ra,12584 <printf>
   12378:	ff5418e3          	bne	s0,s5,12368 <test_encrypt_ecb_verbose+0xb0>
   1237c:	00a00513          	addi	a0,zero,10
   12380:	258000ef          	jal	ra,125d8 <putchar>
   12384:	fe8990e3          	bne	s3,s0,12364 <test_encrypt_ecb_verbose+0xac>
   12388:	00a00513          	addi	a0,zero,10
   1238c:	24c000ef          	jal	ra,125d8 <putchar>
   12390:	00023537          	lui	a0,0x23
   12394:	3e450513          	addi	a0,a0,996 # 233e4 <rsbox+0x280>
   12398:	3b8000ef          	jal	ra,12750 <puts>
   1239c:	00010413          	addi	s0,sp,0
   123a0:	00044583          	lbu	a1,0(s0)
   123a4:	3dc90513          	addi	a0,s2,988
   123a8:	00140413          	addi	s0,s0,1
   123ac:	1d8000ef          	jal	ra,12584 <printf>
   123b0:	ff4418e3          	bne	s0,s4,123a0 <test_encrypt_ecb_verbose+0xe8>
   123b4:	00a00513          	addi	a0,zero,10
   123b8:	220000ef          	jal	ra,125d8 <putchar>
   123bc:	00a00513          	addi	a0,zero,10
   123c0:	218000ef          	jal	ra,125d8 <putchar>
   123c4:	00023537          	lui	a0,0x23
   123c8:	3ec50513          	addi	a0,a0,1004 # 233ec <rsbox+0x288>
   123cc:	384000ef          	jal	ra,12750 <puts>
   123d0:	00010593          	addi	a1,sp,0
   123d4:	00098513          	addi	a0,s3,0
   123d8:	dccff0ef          	jal	ra,119a4 <AES_init_ctx>
   123dc:	00048593          	addi	a1,s1,0
   123e0:	00098513          	addi	a0,s3,0
   123e4:	00048413          	addi	s0,s1,0
   123e8:	e08ff0ef          	jal	ra,119f0 <AES_ECB_encrypt>
   123ec:	01048493          	addi	s1,s1,16
   123f0:	00044583          	lbu	a1,0(s0)
   123f4:	3dc90513          	addi	a0,s2,988
   123f8:	00140413          	addi	s0,s0,1
   123fc:	188000ef          	jal	ra,12584 <printf>
   12400:	fe8498e3          	bne	s1,s0,123f0 <test_encrypt_ecb_verbose+0x138>
   12404:	00a00513          	addi	a0,zero,10
   12408:	1d0000ef          	jal	ra,125d8 <putchar>
   1240c:	fc9998e3          	bne	s3,s1,123dc <test_encrypt_ecb_verbose+0x124>
   12410:	00a00513          	addi	a0,zero,10
   12414:	1c4000ef          	jal	ra,125d8 <putchar>
   12418:	12c12083          	lw	ra,300(sp)
   1241c:	12812403          	lw	s0,296(sp)
   12420:	12412483          	lw	s1,292(sp)
   12424:	12012903          	lw	s2,288(sp)
   12428:	11c12983          	lw	s3,284(sp)
   1242c:	11812a03          	lw	s4,280(sp)
   12430:	11412a83          	lw	s5,276(sp)
   12434:	13010113          	addi	sp,sp,304
   12438:	00008067          	jalr	zero,0(ra)

0001243c <memcmp>:
   1243c:	00000713          	addi	a4,zero,0
   12440:	00e61663          	bne	a2,a4,1244c <memcmp+0x10>
   12444:	00000513          	addi	a0,zero,0
   12448:	00008067          	jalr	zero,0(ra)
   1244c:	00e507b3          	add	a5,a0,a4
   12450:	00170713          	addi	a4,a4,1
   12454:	00e586b3          	add	a3,a1,a4
   12458:	0007c783          	lbu	a5,0(a5)
   1245c:	fff6c683          	lbu	a3,-1(a3)
   12460:	fed780e3          	beq	a5,a3,12440 <memcmp+0x4>
   12464:	40d78533          	sub	a0,a5,a3
   12468:	00008067          	jalr	zero,0(ra)

0001246c <memcpy>:
   1246c:	00a5c7b3          	xor	a5,a1,a0
   12470:	0037f793          	andi	a5,a5,3
   12474:	00c50733          	add	a4,a0,a2
   12478:	00079663          	bne	a5,zero,12484 <memcpy+0x18>
   1247c:	00300793          	addi	a5,zero,3
   12480:	02c7e263          	bltu	a5,a2,124a4 <memcpy+0x38>
   12484:	00050793          	addi	a5,a0,0
   12488:	0ae57c63          	bgeu	a0,a4,12540 <memcpy+0xd4>
   1248c:	0005c683          	lbu	a3,0(a1)
   12490:	00178793          	addi	a5,a5,1
   12494:	00158593          	addi	a1,a1,1
   12498:	fed78fa3          	sb	a3,-1(a5)
   1249c:	fee7e8e3          	bltu	a5,a4,1248c <memcpy+0x20>
   124a0:	00008067          	jalr	zero,0(ra)
   124a4:	00357693          	andi	a3,a0,3
   124a8:	00050793          	addi	a5,a0,0
   124ac:	00068e63          	beq	a3,zero,124c8 <memcpy+0x5c>
   124b0:	0005c683          	lbu	a3,0(a1)
   124b4:	00178793          	addi	a5,a5,1
   124b8:	00158593          	addi	a1,a1,1
   124bc:	fed78fa3          	sb	a3,-1(a5)
   124c0:	0037f693          	andi	a3,a5,3
   124c4:	fe9ff06f          	jal	zero,124ac <memcpy+0x40>
   124c8:	ffc77693          	andi	a3,a4,-4
   124cc:	fe068613          	addi	a2,a3,-32
   124d0:	06c7f463          	bgeu	a5,a2,12538 <memcpy+0xcc>
   124d4:	0005a383          	lw	t2,0(a1)
   124d8:	0045a283          	lw	t0,4(a1)
   124dc:	0085af83          	lw	t6,8(a1)
   124e0:	00c5af03          	lw	t5,12(a1)
   124e4:	0105ae83          	lw	t4,16(a1)
   124e8:	0145ae03          	lw	t3,20(a1)
   124ec:	0185a303          	lw	t1,24(a1)
   124f0:	01c5a883          	lw	a7,28(a1)
   124f4:	02458593          	addi	a1,a1,36
   124f8:	0077a023          	sw	t2,0(a5)
   124fc:	ffc5a803          	lw	a6,-4(a1)
   12500:	0057a223          	sw	t0,4(a5)
   12504:	01f7a423          	sw	t6,8(a5)
   12508:	01e7a623          	sw	t5,12(a5)
   1250c:	01d7a823          	sw	t4,16(a5)
   12510:	01c7aa23          	sw	t3,20(a5)
   12514:	0067ac23          	sw	t1,24(a5)
   12518:	0117ae23          	sw	a7,28(a5)
   1251c:	02478793          	addi	a5,a5,36
   12520:	ff07ae23          	sw	a6,-4(a5)
   12524:	fadff06f          	jal	zero,124d0 <memcpy+0x64>
   12528:	0005a603          	lw	a2,0(a1)
   1252c:	00478793          	addi	a5,a5,4
   12530:	00458593          	addi	a1,a1,4
   12534:	fec7ae23          	sw	a2,-4(a5)
   12538:	fed7e8e3          	bltu	a5,a3,12528 <memcpy+0xbc>
   1253c:	f4e7e8e3          	bltu	a5,a4,1248c <memcpy+0x20>
   12540:	00008067          	jalr	zero,0(ra)

00012544 <_printf_r>:
   12544:	fc010113          	addi	sp,sp,-64
   12548:	02c12423          	sw	a2,40(sp)
   1254c:	02d12623          	sw	a3,44(sp)
   12550:	02e12823          	sw	a4,48(sp)
   12554:	02f12a23          	sw	a5,52(sp)
   12558:	03012c23          	sw	a6,56(sp)
   1255c:	03112e23          	sw	a7,60(sp)
   12560:	00058613          	addi	a2,a1,0
   12564:	00852583          	lw	a1,8(a0)
   12568:	02810693          	addi	a3,sp,40
   1256c:	00112e23          	sw	ra,28(sp)
   12570:	00d12623          	sw	a3,12(sp)
   12574:	204000ef          	jal	ra,12778 <_vfprintf_r>
   12578:	01c12083          	lw	ra,28(sp)
   1257c:	04010113          	addi	sp,sp,64
   12580:	00008067          	jalr	zero,0(ra)

00012584 <printf>:
   12584:	fc010113          	addi	sp,sp,-64
   12588:	02f12a23          	sw	a5,52(sp)
   1258c:	1c01a783          	lw	a5,448(gp) # 25b90 <_impure_ptr>
   12590:	02c12423          	sw	a2,40(sp)
   12594:	02d12623          	sw	a3,44(sp)
   12598:	02b12223          	sw	a1,36(sp)
   1259c:	02e12823          	sw	a4,48(sp)
   125a0:	03012c23          	sw	a6,56(sp)
   125a4:	03112e23          	sw	a7,60(sp)
   125a8:	0087a583          	lw	a1,8(a5)
   125ac:	02410693          	addi	a3,sp,36
   125b0:	00050613          	addi	a2,a0,0
   125b4:	00078513          	addi	a0,a5,0
   125b8:	00112e23          	sw	ra,28(sp)
   125bc:	00d12623          	sw	a3,12(sp)
   125c0:	1b8000ef          	jal	ra,12778 <_vfprintf_r>
   125c4:	01c12083          	lw	ra,28(sp)
   125c8:	04010113          	addi	sp,sp,64
   125cc:	00008067          	jalr	zero,0(ra)

000125d0 <_putchar_r>:
   125d0:	00852603          	lw	a2,8(a0)
   125d4:	0180006f          	jal	zero,125ec <_putc_r>

000125d8 <putchar>:
   125d8:	1c01a783          	lw	a5,448(gp) # 25b90 <_impure_ptr>
   125dc:	00050593          	addi	a1,a0,0
   125e0:	0087a603          	lw	a2,8(a5)
   125e4:	00078513          	addi	a0,a5,0
   125e8:	0040006f          	jal	zero,125ec <_putc_r>

000125ec <_putc_r>:
   125ec:	fe010113          	addi	sp,sp,-32
   125f0:	00812c23          	sw	s0,24(sp)
   125f4:	00112e23          	sw	ra,28(sp)
   125f8:	00050413          	addi	s0,a0,0
   125fc:	02050063          	beq	a0,zero,1261c <_putc_r+0x30>
   12600:	03852783          	lw	a5,56(a0)
   12604:	00079c63          	bne	a5,zero,1261c <_putc_r+0x30>
   12608:	00c12623          	sw	a2,12(sp)
   1260c:	00b12423          	sw	a1,8(sp)
   12610:	005020ef          	jal	ra,14e14 <__sinit>
   12614:	00c12603          	lw	a2,12(sp)
   12618:	00812583          	lw	a1,8(sp)
   1261c:	00862783          	lw	a5,8(a2)
   12620:	fff78793          	addi	a5,a5,-1
   12624:	00f62423          	sw	a5,8(a2)
   12628:	0207d663          	bge	a5,zero,12654 <_putc_r+0x68>
   1262c:	01862703          	lw	a4,24(a2)
   12630:	00e7c863          	blt	a5,a4,12640 <_putc_r+0x54>
   12634:	0ff5f793          	andi	a5,a1,255
   12638:	00a00713          	addi	a4,zero,10
   1263c:	00e79c63          	bne	a5,a4,12654 <_putc_r+0x68>
   12640:	00040513          	addi	a0,s0,0
   12644:	01812403          	lw	s0,24(sp)
   12648:	01c12083          	lw	ra,28(sp)
   1264c:	02010113          	addi	sp,sp,32
   12650:	1ac0206f          	jal	zero,147fc <__swbuf_r>
   12654:	00062783          	lw	a5,0(a2)
   12658:	0ff5f513          	andi	a0,a1,255
   1265c:	00178713          	addi	a4,a5,1
   12660:	00e62023          	sw	a4,0(a2)
   12664:	00b78023          	sb	a1,0(a5)
   12668:	01c12083          	lw	ra,28(sp)
   1266c:	01812403          	lw	s0,24(sp)
   12670:	02010113          	addi	sp,sp,32
   12674:	00008067          	jalr	zero,0(ra)

00012678 <putc>:
   12678:	00058613          	addi	a2,a1,0
   1267c:	00050593          	addi	a1,a0,0
   12680:	1c01a503          	lw	a0,448(gp) # 25b90 <_impure_ptr>
   12684:	f69ff06f          	jal	zero,125ec <_putc_r>

00012688 <_puts_r>:
   12688:	fc010113          	addi	sp,sp,-64
   1268c:	02812c23          	sw	s0,56(sp)
   12690:	00050413          	addi	s0,a0,0
   12694:	00058513          	addi	a0,a1,0
   12698:	00b12623          	sw	a1,12(sp)
   1269c:	02112e23          	sw	ra,60(sp)
   126a0:	0bc000ef          	jal	ra,1275c <strlen>
   126a4:	000237b7          	lui	a5,0x23
   126a8:	3cc78793          	addi	a5,a5,972 # 233cc <rsbox+0x268>
   126ac:	02f12423          	sw	a5,40(sp)
   126b0:	00100793          	addi	a5,zero,1
   126b4:	02f12623          	sw	a5,44(sp)
   126b8:	02010793          	addi	a5,sp,32
   126bc:	00c12583          	lw	a1,12(sp)
   126c0:	00f12a23          	sw	a5,20(sp)
   126c4:	00200793          	addi	a5,zero,2
   126c8:	00f12c23          	sw	a5,24(sp)
   126cc:	03842783          	lw	a5,56(s0)
   126d0:	02a12223          	sw	a0,36(sp)
   126d4:	00150513          	addi	a0,a0,1
   126d8:	02b12023          	sw	a1,32(sp)
   126dc:	00a12e23          	sw	a0,28(sp)
   126e0:	00842583          	lw	a1,8(s0)
   126e4:	00079a63          	bne	a5,zero,126f8 <_puts_r+0x70>
   126e8:	00040513          	addi	a0,s0,0
   126ec:	00b12623          	sw	a1,12(sp)
   126f0:	724020ef          	jal	ra,14e14 <__sinit>
   126f4:	00c12583          	lw	a1,12(sp)
   126f8:	00c59783          	lh	a5,12(a1)
   126fc:	01279713          	slli	a4,a5,0x12
   12700:	02074263          	blt	a4,zero,12724 <_puts_r+0x9c>
   12704:	000026b7          	lui	a3,0x2
   12708:	0645a703          	lw	a4,100(a1)
   1270c:	00d7e7b3          	or	a5,a5,a3
   12710:	00f59623          	sh	a5,12(a1)
   12714:	ffffe7b7          	lui	a5,0xffffe
   12718:	fff78793          	addi	a5,a5,-1 # ffffdfff <__BSS_END__+0xfffd8407>
   1271c:	00f777b3          	and	a5,a4,a5
   12720:	06f5a223          	sw	a5,100(a1)
   12724:	01410613          	addi	a2,sp,20
   12728:	00040513          	addi	a0,s0,0
   1272c:	3dd020ef          	jal	ra,15308 <__sfvwrite_r>
   12730:	fff00793          	addi	a5,zero,-1
   12734:	00051463          	bne	a0,zero,1273c <_puts_r+0xb4>
   12738:	00a00793          	addi	a5,zero,10
   1273c:	03c12083          	lw	ra,60(sp)
   12740:	03812403          	lw	s0,56(sp)
   12744:	00078513          	addi	a0,a5,0
   12748:	04010113          	addi	sp,sp,64
   1274c:	00008067          	jalr	zero,0(ra)

00012750 <puts>:
   12750:	00050593          	addi	a1,a0,0
   12754:	1c01a503          	lw	a0,448(gp) # 25b90 <_impure_ptr>
   12758:	f31ff06f          	jal	zero,12688 <_puts_r>

0001275c <strlen>:
   1275c:	00050793          	addi	a5,a0,0
   12760:	00178793          	addi	a5,a5,1
   12764:	fff7c703          	lbu	a4,-1(a5)
   12768:	fe071ce3          	bne	a4,zero,12760 <strlen+0x4>
   1276c:	40a78533          	sub	a0,a5,a0
   12770:	fff50513          	addi	a0,a0,-1
   12774:	00008067          	jalr	zero,0(ra)

00012778 <_vfprintf_r>:
   12778:	e2010113          	addi	sp,sp,-480
   1277c:	1c112e23          	sw	ra,476(sp)
   12780:	1c912a23          	sw	s1,468(sp)
   12784:	1d212823          	sw	s2,464(sp)
   12788:	1d312623          	sw	s3,460(sp)
   1278c:	1d512223          	sw	s5,452(sp)
   12790:	00058913          	addi	s2,a1,0
   12794:	00060493          	addi	s1,a2,0
   12798:	00068a93          	addi	s5,a3,0 # 2000 <main-0xe074>
   1279c:	1c812c23          	sw	s0,472(sp)
   127a0:	1d412423          	sw	s4,456(sp)
   127a4:	1d612023          	sw	s6,448(sp)
   127a8:	1b712e23          	sw	s7,444(sp)
   127ac:	1b812c23          	sw	s8,440(sp)
   127b0:	1b912a23          	sw	s9,436(sp)
   127b4:	1ba12823          	sw	s10,432(sp)
   127b8:	1bb12623          	sw	s11,428(sp)
   127bc:	00050993          	addi	s3,a0,0
   127c0:	0a4050ef          	jal	ra,17864 <_localeconv_r>
   127c4:	00052783          	lw	a5,0(a0)
   127c8:	00078513          	addi	a0,a5,0
   127cc:	02f12a23          	sw	a5,52(sp)
   127d0:	f8dff0ef          	jal	ra,1275c <strlen>
   127d4:	02a12023          	sw	a0,32(sp)
   127d8:	0e012023          	sw	zero,224(sp)
   127dc:	0e012223          	sw	zero,228(sp)
   127e0:	0e012423          	sw	zero,232(sp)
   127e4:	0e012623          	sw	zero,236(sp)
   127e8:	00098a63          	beq	s3,zero,127fc <_vfprintf_r+0x84>
   127ec:	0389a783          	lw	a5,56(s3)
   127f0:	00079663          	bne	a5,zero,127fc <_vfprintf_r+0x84>
   127f4:	00098513          	addi	a0,s3,0
   127f8:	61c020ef          	jal	ra,14e14 <__sinit>
   127fc:	00c91783          	lh	a5,12(s2)
   12800:	01279713          	slli	a4,a5,0x12
   12804:	02074263          	blt	a4,zero,12828 <_vfprintf_r+0xb0>
   12808:	000026b7          	lui	a3,0x2
   1280c:	06492703          	lw	a4,100(s2)
   12810:	00d7e7b3          	or	a5,a5,a3
   12814:	00f91623          	sh	a5,12(s2)
   12818:	ffffe7b7          	lui	a5,0xffffe
   1281c:	fff78793          	addi	a5,a5,-1 # ffffdfff <__BSS_END__+0xfffd8407>
   12820:	00f777b3          	and	a5,a4,a5
   12824:	06f92223          	sw	a5,100(s2)
   12828:	00c95783          	lhu	a5,12(s2)
   1282c:	0087f793          	andi	a5,a5,8
   12830:	04078063          	beq	a5,zero,12870 <_vfprintf_r+0xf8>
   12834:	01092783          	lw	a5,16(s2)
   12838:	02078c63          	beq	a5,zero,12870 <_vfprintf_r+0xf8>
   1283c:	00c95783          	lhu	a5,12(s2)
   12840:	00a00713          	addi	a4,zero,10
   12844:	01a7f793          	andi	a5,a5,26
   12848:	08e79063          	bne	a5,a4,128c8 <_vfprintf_r+0x150>
   1284c:	00e91783          	lh	a5,14(s2)
   12850:	0607cc63          	blt	a5,zero,128c8 <_vfprintf_r+0x150>
   12854:	000a8693          	addi	a3,s5,0
   12858:	00048613          	addi	a2,s1,0
   1285c:	00090593          	addi	a1,s2,0
   12860:	00098513          	addi	a0,s3,0
   12864:	6dd010ef          	jal	ra,14740 <__sbprintf>
   12868:	02a12223          	sw	a0,36(sp)
   1286c:	01c0006f          	jal	zero,12888 <_vfprintf_r+0x110>
   12870:	00090593          	addi	a1,s2,0
   12874:	00098513          	addi	a0,s3,0
   12878:	0c4020ef          	jal	ra,1493c <__swsetup_r>
   1287c:	fc0500e3          	beq	a0,zero,1283c <_vfprintf_r+0xc4>
   12880:	fff00793          	addi	a5,zero,-1
   12884:	02f12223          	sw	a5,36(sp)
   12888:	1dc12083          	lw	ra,476(sp)
   1288c:	1d812403          	lw	s0,472(sp)
   12890:	02412503          	lw	a0,36(sp)
   12894:	1d412483          	lw	s1,468(sp)
   12898:	1d012903          	lw	s2,464(sp)
   1289c:	1cc12983          	lw	s3,460(sp)
   128a0:	1c812a03          	lw	s4,456(sp)
   128a4:	1c412a83          	lw	s5,452(sp)
   128a8:	1c012b03          	lw	s6,448(sp)
   128ac:	1bc12b83          	lw	s7,444(sp)
   128b0:	1b812c03          	lw	s8,440(sp)
   128b4:	1b412c83          	lw	s9,436(sp)
   128b8:	1b012d03          	lw	s10,432(sp)
   128bc:	1ac12d83          	lw	s11,428(sp)
   128c0:	1e010113          	addi	sp,sp,480
   128c4:	00008067          	jalr	zero,0(ra)
   128c8:	000237b7          	lui	a5,0x23
   128cc:	43c78793          	addi	a5,a5,1084 # 2343c <rsbox+0x2d8>
   128d0:	04f12623          	sw	a5,76(sp)
   128d4:	000237b7          	lui	a5,0x23
   128d8:	0fc10893          	addi	a7,sp,252
   128dc:	5b878793          	addi	a5,a5,1464 # 235b8 <zeroes.4514>
   128e0:	0d112a23          	sw	a7,212(sp)
   128e4:	0c012e23          	sw	zero,220(sp)
   128e8:	0c012c23          	sw	zero,216(sp)
   128ec:	00000a13          	addi	s4,zero,0
   128f0:	00088b93          	addi	s7,a7,0
   128f4:	04012023          	sw	zero,64(sp)
   128f8:	02012e23          	sw	zero,60(sp)
   128fc:	00012823          	sw	zero,16(sp)
   12900:	02012823          	sw	zero,48(sp)
   12904:	02012c23          	sw	zero,56(sp)
   12908:	02012223          	sw	zero,36(sp)
   1290c:	00f12a23          	sw	a5,20(sp)
   12910:	00048413          	addi	s0,s1,0
   12914:	02500713          	addi	a4,zero,37
   12918:	00044783          	lbu	a5,0(s0)
   1291c:	00078463          	beq	a5,zero,12924 <_vfprintf_r+0x1ac>
   12920:	0ae79a63          	bne	a5,a4,129d4 <_vfprintf_r+0x25c>
   12924:	40940b33          	sub	s6,s0,s1
   12928:	040b0a63          	beq	s6,zero,1297c <_vfprintf_r+0x204>
   1292c:	0dc12783          	lw	a5,220(sp)
   12930:	009ba023          	sw	s1,0(s7)
   12934:	016ba223          	sw	s6,4(s7)
   12938:	016787b3          	add	a5,a5,s6
   1293c:	0cf12e23          	sw	a5,220(sp)
   12940:	0d812783          	lw	a5,216(sp)
   12944:	00700713          	addi	a4,zero,7
   12948:	008b8b93          	addi	s7,s7,8
   1294c:	00178793          	addi	a5,a5,1
   12950:	0cf12c23          	sw	a5,216(sp)
   12954:	00f75e63          	bge	a4,a5,12970 <_vfprintf_r+0x1f8>
   12958:	0d410613          	addi	a2,sp,212
   1295c:	00090593          	addi	a1,s2,0
   12960:	00098513          	addi	a0,s3,0
   12964:	178090ef          	jal	ra,1badc <__sprint_r>
   12968:	72051a63          	bne	a0,zero,1309c <_vfprintf_r+0x924>
   1296c:	0fc10b93          	addi	s7,sp,252
   12970:	02412783          	lw	a5,36(sp)
   12974:	016787b3          	add	a5,a5,s6
   12978:	02f12223          	sw	a5,36(sp)
   1297c:	00044783          	lbu	a5,0(s0)
   12980:	00079463          	bne	a5,zero,12988 <_vfprintf_r+0x210>
   12984:	5650106f          	jal	zero,146e8 <_vfprintf_r+0x1f70>
   12988:	00140793          	addi	a5,s0,1
   1298c:	0a010ba3          	sb	zero,183(sp)
   12990:	fff00d13          	addi	s10,zero,-1
   12994:	02012423          	sw	zero,40(sp)
   12998:	00000413          	addi	s0,zero,0
   1299c:	05a00c13          	addi	s8,zero,90
   129a0:	00900d93          	addi	s11,zero,9
   129a4:	02a00c93          	addi	s9,zero,42
   129a8:	0007cb03          	lbu	s6,0(a5)
   129ac:	00178713          	addi	a4,a5,1
   129b0:	00e12e23          	sw	a4,28(sp)
   129b4:	fe0b0793          	addi	a5,s6,-32
   129b8:	00fc7463          	bgeu	s8,a5,129c0 <_vfprintf_r+0x248>
   129bc:	2440106f          	jal	zero,13c00 <_vfprintf_r+0x1488>
   129c0:	04c12703          	lw	a4,76(sp)
   129c4:	00279793          	slli	a5,a5,0x2
   129c8:	00e787b3          	add	a5,a5,a4
   129cc:	0007a783          	lw	a5,0(a5)
   129d0:	00078067          	jalr	zero,0(a5)
   129d4:	00140413          	addi	s0,s0,1
   129d8:	f41ff06f          	jal	zero,12918 <_vfprintf_r+0x1a0>
   129dc:	00098513          	addi	a0,s3,0
   129e0:	685040ef          	jal	ra,17864 <_localeconv_r>
   129e4:	00452783          	lw	a5,4(a0)
   129e8:	00078513          	addi	a0,a5,0
   129ec:	02f12c23          	sw	a5,56(sp)
   129f0:	d6dff0ef          	jal	ra,1275c <strlen>
   129f4:	02a12823          	sw	a0,48(sp)
   129f8:	00098513          	addi	a0,s3,0
   129fc:	669040ef          	jal	ra,17864 <_localeconv_r>
   12a00:	00852783          	lw	a5,8(a0)
   12a04:	00f12823          	sw	a5,16(sp)
   12a08:	03012783          	lw	a5,48(sp)
   12a0c:	00078c63          	beq	a5,zero,12a24 <_vfprintf_r+0x2ac>
   12a10:	01012783          	lw	a5,16(sp)
   12a14:	00078863          	beq	a5,zero,12a24 <_vfprintf_r+0x2ac>
   12a18:	0007c783          	lbu	a5,0(a5)
   12a1c:	00078463          	beq	a5,zero,12a24 <_vfprintf_r+0x2ac>
   12a20:	40046413          	ori	s0,s0,1024
   12a24:	01c12783          	lw	a5,28(sp)
   12a28:	f81ff06f          	jal	zero,129a8 <_vfprintf_r+0x230>
   12a2c:	0b714783          	lbu	a5,183(sp)
   12a30:	fe079ae3          	bne	a5,zero,12a24 <_vfprintf_r+0x2ac>
   12a34:	02000793          	addi	a5,zero,32
   12a38:	0af10ba3          	sb	a5,183(sp)
   12a3c:	fe9ff06f          	jal	zero,12a24 <_vfprintf_r+0x2ac>
   12a40:	00146413          	ori	s0,s0,1
   12a44:	fe1ff06f          	jal	zero,12a24 <_vfprintf_r+0x2ac>
   12a48:	000aa783          	lw	a5,0(s5)
   12a4c:	004a8a93          	addi	s5,s5,4
   12a50:	02f12423          	sw	a5,40(sp)
   12a54:	fc07d8e3          	bge	a5,zero,12a24 <_vfprintf_r+0x2ac>
   12a58:	40f007b3          	sub	a5,zero,a5
   12a5c:	02f12423          	sw	a5,40(sp)
   12a60:	00446413          	ori	s0,s0,4
   12a64:	fc1ff06f          	jal	zero,12a24 <_vfprintf_r+0x2ac>
   12a68:	02b00793          	addi	a5,zero,43
   12a6c:	fcdff06f          	jal	zero,12a38 <_vfprintf_r+0x2c0>
   12a70:	01c12703          	lw	a4,28(sp)
   12a74:	01c12783          	lw	a5,28(sp)
   12a78:	00074b03          	lbu	s6,0(a4)
   12a7c:	00178793          	addi	a5,a5,1
   12a80:	059b1463          	bne	s6,s9,12ac8 <_vfprintf_r+0x350>
   12a84:	000aad03          	lw	s10,0(s5)
   12a88:	004a8713          	addi	a4,s5,4
   12a8c:	000d5463          	bge	s10,zero,12a94 <_vfprintf_r+0x31c>
   12a90:	fff00d13          	addi	s10,zero,-1
   12a94:	00070a93          	addi	s5,a4,0
   12a98:	00f12e23          	sw	a5,28(sp)
   12a9c:	f89ff06f          	jal	zero,12a24 <_vfprintf_r+0x2ac>
   12aa0:	002d1713          	slli	a4,s10,0x2
   12aa4:	00178793          	addi	a5,a5,1
   12aa8:	01a70333          	add	t1,a4,s10
   12aac:	fff7cb03          	lbu	s6,-1(a5)
   12ab0:	00131313          	slli	t1,t1,0x1
   12ab4:	00d30d33          	add	s10,t1,a3
   12ab8:	fd0b0693          	addi	a3,s6,-48
   12abc:	feddf2e3          	bgeu	s11,a3,12aa0 <_vfprintf_r+0x328>
   12ac0:	00f12e23          	sw	a5,28(sp)
   12ac4:	ef1ff06f          	jal	zero,129b4 <_vfprintf_r+0x23c>
   12ac8:	00000d13          	addi	s10,zero,0
   12acc:	fedff06f          	jal	zero,12ab8 <_vfprintf_r+0x340>
   12ad0:	08046413          	ori	s0,s0,128
   12ad4:	f51ff06f          	jal	zero,12a24 <_vfprintf_r+0x2ac>
   12ad8:	01c12783          	lw	a5,28(sp)
   12adc:	02012423          	sw	zero,40(sp)
   12ae0:	02812703          	lw	a4,40(sp)
   12ae4:	02812683          	lw	a3,40(sp)
   12ae8:	fd0b0b13          	addi	s6,s6,-48
   12aec:	00271713          	slli	a4,a4,0x2
   12af0:	00d70733          	add	a4,a4,a3
   12af4:	00171713          	slli	a4,a4,0x1
   12af8:	00178793          	addi	a5,a5,1
   12afc:	00eb0733          	add	a4,s6,a4
   12b00:	fff7cb03          	lbu	s6,-1(a5)
   12b04:	02e12423          	sw	a4,40(sp)
   12b08:	fd0b0713          	addi	a4,s6,-48
   12b0c:	fcedfae3          	bgeu	s11,a4,12ae0 <_vfprintf_r+0x368>
   12b10:	fb1ff06f          	jal	zero,12ac0 <_vfprintf_r+0x348>
   12b14:	00846413          	ori	s0,s0,8
   12b18:	f0dff06f          	jal	zero,12a24 <_vfprintf_r+0x2ac>
   12b1c:	01c12783          	lw	a5,28(sp)
   12b20:	0007c703          	lbu	a4,0(a5)
   12b24:	06800793          	addi	a5,zero,104
   12b28:	00f71c63          	bne	a4,a5,12b40 <_vfprintf_r+0x3c8>
   12b2c:	01c12783          	lw	a5,28(sp)
   12b30:	20046413          	ori	s0,s0,512
   12b34:	00178793          	addi	a5,a5,1
   12b38:	00f12e23          	sw	a5,28(sp)
   12b3c:	ee9ff06f          	jal	zero,12a24 <_vfprintf_r+0x2ac>
   12b40:	04046413          	ori	s0,s0,64
   12b44:	ee1ff06f          	jal	zero,12a24 <_vfprintf_r+0x2ac>
   12b48:	01c12783          	lw	a5,28(sp)
   12b4c:	0007c703          	lbu	a4,0(a5)
   12b50:	06c00793          	addi	a5,zero,108
   12b54:	00f71c63          	bne	a4,a5,12b6c <_vfprintf_r+0x3f4>
   12b58:	01c12783          	lw	a5,28(sp)
   12b5c:	00178793          	addi	a5,a5,1
   12b60:	00f12e23          	sw	a5,28(sp)
   12b64:	02046413          	ori	s0,s0,32
   12b68:	ebdff06f          	jal	zero,12a24 <_vfprintf_r+0x2ac>
   12b6c:	01046413          	ori	s0,s0,16
   12b70:	eb5ff06f          	jal	zero,12a24 <_vfprintf_r+0x2ac>
   12b74:	004a8793          	addi	a5,s5,4
   12b78:	00f12c23          	sw	a5,24(sp)
   12b7c:	000aa783          	lw	a5,0(s5)
   12b80:	0a010ba3          	sb	zero,183(sp)
   12b84:	12f10e23          	sb	a5,316(sp)
   12b88:	00012623          	sw	zero,12(sp)
   12b8c:	00100d13          	addi	s10,zero,1
   12b90:	00000713          	addi	a4,zero,0
   12b94:	00000c93          	addi	s9,zero,0
   12b98:	00000c13          	addi	s8,zero,0
   12b9c:	00000d93          	addi	s11,zero,0
   12ba0:	13c10493          	addi	s1,sp,316
   12ba4:	02e12623          	sw	a4,44(sp)
   12ba8:	01a75463          	bge	a4,s10,12bb0 <_vfprintf_r+0x438>
   12bac:	03a12623          	sw	s10,44(sp)
   12bb0:	0b714683          	lbu	a3,183(sp)
   12bb4:	00068863          	beq	a3,zero,12bc4 <_vfprintf_r+0x44c>
   12bb8:	02c12783          	lw	a5,44(sp)
   12bbc:	00178793          	addi	a5,a5,1
   12bc0:	02f12623          	sw	a5,44(sp)
   12bc4:	00247a93          	andi	s5,s0,2
   12bc8:	000a8863          	beq	s5,zero,12bd8 <_vfprintf_r+0x460>
   12bcc:	02c12783          	lw	a5,44(sp)
   12bd0:	00278793          	addi	a5,a5,2
   12bd4:	02f12623          	sw	a5,44(sp)
   12bd8:	08447793          	andi	a5,s0,132
   12bdc:	04f12223          	sw	a5,68(sp)
   12be0:	08079063          	bne	a5,zero,12c60 <_vfprintf_r+0x4e8>
   12be4:	02812783          	lw	a5,40(sp)
   12be8:	02c12683          	lw	a3,44(sp)
   12bec:	40d786b3          	sub	a3,a5,a3
   12bf0:	06d05863          	bge	zero,a3,12c60 <_vfprintf_r+0x4e8>
   12bf4:	000237b7          	lui	a5,0x23
   12bf8:	01000e13          	addi	t3,zero,16
   12bfc:	5a878813          	addi	a6,a5,1448 # 235a8 <blanks.4513>
   12c00:	00700e93          	addi	t4,zero,7
   12c04:	0d812603          	lw	a2,216(sp)
   12c08:	010ba023          	sw	a6,0(s7)
   12c0c:	0dc12583          	lw	a1,220(sp)
   12c10:	00160613          	addi	a2,a2,1
   12c14:	008b8513          	addi	a0,s7,8
   12c18:	00de5463          	bge	t3,a3,12c20 <_vfprintf_r+0x4a8>
   12c1c:	7f90006f          	jal	zero,13c14 <_vfprintf_r+0x149c>
   12c20:	00dba223          	sw	a3,4(s7)
   12c24:	00b686b3          	add	a3,a3,a1
   12c28:	0cd12e23          	sw	a3,220(sp)
   12c2c:	0cc12c23          	sw	a2,216(sp)
   12c30:	00700693          	addi	a3,zero,7
   12c34:	00050b93          	addi	s7,a0,0
   12c38:	02c6d463          	bge	a3,a2,12c60 <_vfprintf_r+0x4e8>
   12c3c:	0d410613          	addi	a2,sp,212
   12c40:	00090593          	addi	a1,s2,0
   12c44:	00098513          	addi	a0,s3,0
   12c48:	04e12423          	sw	a4,72(sp)
   12c4c:	691080ef          	jal	ra,1badc <__sprint_r>
   12c50:	00050463          	beq	a0,zero,12c58 <_vfprintf_r+0x4e0>
   12c54:	2310106f          	jal	zero,14684 <_vfprintf_r+0x1f0c>
   12c58:	04812703          	lw	a4,72(sp)
   12c5c:	0fc10b93          	addi	s7,sp,252
   12c60:	0b714683          	lbu	a3,183(sp)
   12c64:	04068e63          	beq	a3,zero,12cc0 <_vfprintf_r+0x548>
   12c68:	0b710693          	addi	a3,sp,183
   12c6c:	00dba023          	sw	a3,0(s7)
   12c70:	00100693          	addi	a3,zero,1
   12c74:	00dba223          	sw	a3,4(s7)
   12c78:	0dc12683          	lw	a3,220(sp)
   12c7c:	00700613          	addi	a2,zero,7
   12c80:	008b8b93          	addi	s7,s7,8
   12c84:	00168693          	addi	a3,a3,1 # 2001 <main-0xe073>
   12c88:	0cd12e23          	sw	a3,220(sp)
   12c8c:	0d812683          	lw	a3,216(sp)
   12c90:	00168693          	addi	a3,a3,1
   12c94:	0cd12c23          	sw	a3,216(sp)
   12c98:	02d65463          	bge	a2,a3,12cc0 <_vfprintf_r+0x548>
   12c9c:	0d410613          	addi	a2,sp,212
   12ca0:	00090593          	addi	a1,s2,0
   12ca4:	00098513          	addi	a0,s3,0
   12ca8:	04e12423          	sw	a4,72(sp)
   12cac:	631080ef          	jal	ra,1badc <__sprint_r>
   12cb0:	00050463          	beq	a0,zero,12cb8 <_vfprintf_r+0x540>
   12cb4:	1d10106f          	jal	zero,14684 <_vfprintf_r+0x1f0c>
   12cb8:	04812703          	lw	a4,72(sp)
   12cbc:	0fc10b93          	addi	s7,sp,252
   12cc0:	040a8e63          	beq	s5,zero,12d1c <_vfprintf_r+0x5a4>
   12cc4:	0b810693          	addi	a3,sp,184
   12cc8:	00dba023          	sw	a3,0(s7)
   12ccc:	00200693          	addi	a3,zero,2
   12cd0:	00dba223          	sw	a3,4(s7)
   12cd4:	0dc12683          	lw	a3,220(sp)
   12cd8:	00700613          	addi	a2,zero,7
   12cdc:	008b8b93          	addi	s7,s7,8
   12ce0:	00268693          	addi	a3,a3,2
   12ce4:	0cd12e23          	sw	a3,220(sp)
   12ce8:	0d812683          	lw	a3,216(sp)
   12cec:	00168693          	addi	a3,a3,1
   12cf0:	0cd12c23          	sw	a3,216(sp)
   12cf4:	02d65463          	bge	a2,a3,12d1c <_vfprintf_r+0x5a4>
   12cf8:	0d410613          	addi	a2,sp,212
   12cfc:	00090593          	addi	a1,s2,0
   12d00:	00098513          	addi	a0,s3,0
   12d04:	04e12423          	sw	a4,72(sp)
   12d08:	5d5080ef          	jal	ra,1badc <__sprint_r>
   12d0c:	00050463          	beq	a0,zero,12d14 <_vfprintf_r+0x59c>
   12d10:	1750106f          	jal	zero,14684 <_vfprintf_r+0x1f0c>
   12d14:	04812703          	lw	a4,72(sp)
   12d18:	0fc10b93          	addi	s7,sp,252
   12d1c:	04412783          	lw	a5,68(sp)
   12d20:	08000693          	addi	a3,zero,128
   12d24:	06d79c63          	bne	a5,a3,12d9c <_vfprintf_r+0x624>
   12d28:	02812783          	lw	a5,40(sp)
   12d2c:	02c12683          	lw	a3,44(sp)
   12d30:	40d78ab3          	sub	s5,a5,a3
   12d34:	07505463          	bge	zero,s5,12d9c <_vfprintf_r+0x624>
   12d38:	01000813          	addi	a6,zero,16
   12d3c:	00700e13          	addi	t3,zero,7
   12d40:	01412783          	lw	a5,20(sp)
   12d44:	0d812683          	lw	a3,216(sp)
   12d48:	0dc12603          	lw	a2,220(sp)
   12d4c:	00fba023          	sw	a5,0(s7)
   12d50:	00168693          	addi	a3,a3,1
   12d54:	008b8593          	addi	a1,s7,8
   12d58:	71584ae3          	blt	a6,s5,13c6c <_vfprintf_r+0x14f4>
   12d5c:	015ba223          	sw	s5,4(s7)
   12d60:	00ca8ab3          	add	s5,s5,a2
   12d64:	0d512e23          	sw	s5,220(sp)
   12d68:	0cd12c23          	sw	a3,216(sp)
   12d6c:	00700613          	addi	a2,zero,7
   12d70:	00058b93          	addi	s7,a1,0
   12d74:	02d65463          	bge	a2,a3,12d9c <_vfprintf_r+0x624>
   12d78:	0d410613          	addi	a2,sp,212
   12d7c:	00090593          	addi	a1,s2,0
   12d80:	00098513          	addi	a0,s3,0
   12d84:	04e12223          	sw	a4,68(sp)
   12d88:	555080ef          	jal	ra,1badc <__sprint_r>
   12d8c:	00050463          	beq	a0,zero,12d94 <_vfprintf_r+0x61c>
   12d90:	0f50106f          	jal	zero,14684 <_vfprintf_r+0x1f0c>
   12d94:	04412703          	lw	a4,68(sp)
   12d98:	0fc10b93          	addi	s7,sp,252
   12d9c:	41a70ab3          	sub	s5,a4,s10
   12da0:	07505063          	bge	zero,s5,12e00 <_vfprintf_r+0x688>
   12da4:	01000813          	addi	a6,zero,16
   12da8:	00700e13          	addi	t3,zero,7
   12dac:	01412783          	lw	a5,20(sp)
   12db0:	0d812683          	lw	a3,216(sp)
   12db4:	0dc12703          	lw	a4,220(sp)
   12db8:	00fba023          	sw	a5,0(s7)
   12dbc:	00168693          	addi	a3,a3,1
   12dc0:	008b8613          	addi	a2,s7,8
   12dc4:	6f5848e3          	blt	a6,s5,13cb4 <_vfprintf_r+0x153c>
   12dc8:	00ea8733          	add	a4,s5,a4
   12dcc:	015ba223          	sw	s5,4(s7)
   12dd0:	0ce12e23          	sw	a4,220(sp)
   12dd4:	0cd12c23          	sw	a3,216(sp)
   12dd8:	00700713          	addi	a4,zero,7
   12ddc:	00060b93          	addi	s7,a2,0
   12de0:	02d75063          	bge	a4,a3,12e00 <_vfprintf_r+0x688>
   12de4:	0d410613          	addi	a2,sp,212
   12de8:	00090593          	addi	a1,s2,0
   12dec:	00098513          	addi	a0,s3,0
   12df0:	4ed080ef          	jal	ra,1badc <__sprint_r>
   12df4:	00050463          	beq	a0,zero,12dfc <_vfprintf_r+0x684>
   12df8:	08d0106f          	jal	zero,14684 <_vfprintf_r+0x1f0c>
   12dfc:	0fc10b93          	addi	s7,sp,252
   12e00:	10047693          	andi	a3,s0,256
   12e04:	0dc12703          	lw	a4,220(sp)
   12e08:	6e0696e3          	bne	a3,zero,13cf4 <_vfprintf_r+0x157c>
   12e0c:	0d812783          	lw	a5,216(sp)
   12e10:	00ed0333          	add	t1,s10,a4
   12e14:	009ba023          	sw	s1,0(s7)
   12e18:	00178793          	addi	a5,a5,1
   12e1c:	01aba223          	sw	s10,4(s7)
   12e20:	0c612e23          	sw	t1,220(sp)
   12e24:	0cf12c23          	sw	a5,216(sp)
   12e28:	00700713          	addi	a4,zero,7
   12e2c:	008b8b93          	addi	s7,s7,8
   12e30:	00f74463          	blt	a4,a5,12e38 <_vfprintf_r+0x6c0>
   12e34:	1880106f          	jal	zero,13fbc <_vfprintf_r+0x1844>
   12e38:	0d410613          	addi	a2,sp,212
   12e3c:	00090593          	addi	a1,s2,0
   12e40:	00098513          	addi	a0,s3,0
   12e44:	499080ef          	jal	ra,1badc <__sprint_r>
   12e48:	00050463          	beq	a0,zero,12e50 <_vfprintf_r+0x6d8>
   12e4c:	0390106f          	jal	zero,14684 <_vfprintf_r+0x1f0c>
   12e50:	0fc10b93          	addi	s7,sp,252
   12e54:	1680106f          	jal	zero,13fbc <_vfprintf_r+0x1844>
   12e58:	01046413          	ori	s0,s0,16
   12e5c:	02047793          	andi	a5,s0,32
   12e60:	06078463          	beq	a5,zero,12ec8 <_vfprintf_r+0x750>
   12e64:	007a8a93          	addi	s5,s5,7
   12e68:	ff8afa93          	andi	s5,s5,-8
   12e6c:	000aac83          	lw	s9,0(s5)
   12e70:	004aad83          	lw	s11,4(s5)
   12e74:	008a8793          	addi	a5,s5,8
   12e78:	00f12c23          	sw	a5,24(sp)
   12e7c:	000dc463          	blt	s11,zero,12e84 <_vfprintf_r+0x70c>
   12e80:	0890106f          	jal	zero,14708 <_vfprintf_r+0x1f90>
   12e84:	41900cb3          	sub	s9,zero,s9
   12e88:	019037b3          	sltu	a5,zero,s9
   12e8c:	41b00db3          	sub	s11,zero,s11
   12e90:	40fd8db3          	sub	s11,s11,a5
   12e94:	02d00793          	addi	a5,zero,45
   12e98:	0af10ba3          	sb	a5,183(sp)
   12e9c:	00100793          	addi	a5,zero,1
   12ea0:	fff00713          	addi	a4,zero,-1
   12ea4:	3ced04e3          	beq	s10,a4,13a6c <_vfprintf_r+0x12f4>
   12ea8:	00040713          	addi	a4,s0,0
   12eac:	01bce6b3          	or	a3,s9,s11
   12eb0:	f7f47413          	andi	s0,s0,-129
   12eb4:	3a069ce3          	bne	a3,zero,13a6c <_vfprintf_r+0x12f4>
   12eb8:	520d06e3          	beq	s10,zero,13be4 <_vfprintf_r+0x146c>
   12ebc:	00100713          	addi	a4,zero,1
   12ec0:	3ae79ae3          	bne	a5,a4,13a74 <_vfprintf_r+0x12fc>
   12ec4:	0590106f          	jal	zero,1471c <_vfprintf_r+0x1fa4>
   12ec8:	004a8793          	addi	a5,s5,4
   12ecc:	00f12c23          	sw	a5,24(sp)
   12ed0:	01047793          	andi	a5,s0,16
   12ed4:	00078863          	beq	a5,zero,12ee4 <_vfprintf_r+0x76c>
   12ed8:	000aac83          	lw	s9,0(s5)
   12edc:	41fcdd93          	srai	s11,s9,0x1f
   12ee0:	f9dff06f          	jal	zero,12e7c <_vfprintf_r+0x704>
   12ee4:	04047793          	andi	a5,s0,64
   12ee8:	000aac83          	lw	s9,0(s5)
   12eec:	00078863          	beq	a5,zero,12efc <_vfprintf_r+0x784>
   12ef0:	010c9c93          	slli	s9,s9,0x10
   12ef4:	410cdc93          	srai	s9,s9,0x10
   12ef8:	fe5ff06f          	jal	zero,12edc <_vfprintf_r+0x764>
   12efc:	20047793          	andi	a5,s0,512
   12f00:	fc078ee3          	beq	a5,zero,12edc <_vfprintf_r+0x764>
   12f04:	018c9c93          	slli	s9,s9,0x18
   12f08:	418cdc93          	srai	s9,s9,0x18
   12f0c:	fd1ff06f          	jal	zero,12edc <_vfprintf_r+0x764>
   12f10:	00847793          	andi	a5,s0,8
   12f14:	0a078863          	beq	a5,zero,12fc4 <_vfprintf_r+0x84c>
   12f18:	004a8793          	addi	a5,s5,4
   12f1c:	00f12c23          	sw	a5,24(sp)
   12f20:	000aa783          	lw	a5,0(s5)
   12f24:	0007a603          	lw	a2,0(a5)
   12f28:	0047a683          	lw	a3,4(a5)
   12f2c:	0087a703          	lw	a4,8(a5)
   12f30:	00c7a783          	lw	a5,12(a5)
   12f34:	0ec12023          	sw	a2,224(sp)
   12f38:	0ed12223          	sw	a3,228(sp)
   12f3c:	0ee12423          	sw	a4,232(sp)
   12f40:	0e010513          	addi	a0,sp,224
   12f44:	0ef12623          	sw	a5,236(sp)
   12f48:	0b1040ef          	jal	ra,177f8 <_ldcheck>
   12f4c:	0aa12e23          	sw	a0,188(sp)
   12f50:	00200793          	addi	a5,zero,2
   12f54:	0af51e63          	bne	a0,a5,13010 <_vfprintf_r+0x898>
   12f58:	0e012783          	lw	a5,224(sp)
   12f5c:	09010593          	addi	a1,sp,144
   12f60:	0a010513          	addi	a0,sp,160
   12f64:	0af12023          	sw	a5,160(sp)
   12f68:	0e412783          	lw	a5,228(sp)
   12f6c:	08012823          	sw	zero,144(sp)
   12f70:	08012a23          	sw	zero,148(sp)
   12f74:	0af12223          	sw	a5,164(sp)
   12f78:	0e812783          	lw	a5,232(sp)
   12f7c:	08012c23          	sw	zero,152(sp)
   12f80:	08012e23          	sw	zero,156(sp)
   12f84:	0af12423          	sw	a5,168(sp)
   12f88:	0ec12783          	lw	a5,236(sp)
   12f8c:	0af12623          	sw	a5,172(sp)
   12f90:	5450c0ef          	jal	ra,1fcd4 <__letf2>
   12f94:	00055663          	bge	a0,zero,12fa0 <_vfprintf_r+0x828>
   12f98:	02d00793          	addi	a5,zero,45
   12f9c:	0af10ba3          	sb	a5,183(sp)
   12fa0:	04700793          	addi	a5,zero,71
   12fa4:	0767d063          	bge	a5,s6,13004 <_vfprintf_r+0x88c>
   12fa8:	000234b7          	lui	s1,0x23
   12fac:	5cc48493          	addi	s1,s1,1484 # 235cc <zeroes.4514+0x14>
   12fb0:	f7f47413          	andi	s0,s0,-129
   12fb4:	00012623          	sw	zero,12(sp)
   12fb8:	00300d13          	addi	s10,zero,3
   12fbc:	00000713          	addi	a4,zero,0
   12fc0:	3110006f          	jal	zero,13ad0 <_vfprintf_r+0x1358>
   12fc4:	007a8a93          	addi	s5,s5,7
   12fc8:	ff8afa93          	andi	s5,s5,-8
   12fcc:	000aa583          	lw	a1,0(s5)
   12fd0:	004aa603          	lw	a2,4(s5)
   12fd4:	008a8793          	addi	a5,s5,8
   12fd8:	0a010513          	addi	a0,sp,160
   12fdc:	00f12c23          	sw	a5,24(sp)
   12fe0:	2190f0ef          	jal	ra,229f8 <__extenddftf2>
   12fe4:	0a012783          	lw	a5,160(sp)
   12fe8:	0ef12023          	sw	a5,224(sp)
   12fec:	0a412783          	lw	a5,164(sp)
   12ff0:	0ef12223          	sw	a5,228(sp)
   12ff4:	0a812783          	lw	a5,168(sp)
   12ff8:	0ef12423          	sw	a5,232(sp)
   12ffc:	0ac12783          	lw	a5,172(sp)
   13000:	f41ff06f          	jal	zero,12f40 <_vfprintf_r+0x7c8>
   13004:	000234b7          	lui	s1,0x23
   13008:	5c848493          	addi	s1,s1,1480 # 235c8 <zeroes.4514+0x10>
   1300c:	fa5ff06f          	jal	zero,12fb0 <_vfprintf_r+0x838>
   13010:	00100793          	addi	a5,zero,1
   13014:	02f51a63          	bne	a0,a5,13048 <_vfprintf_r+0x8d0>
   13018:	0ec12783          	lw	a5,236(sp)
   1301c:	0007d663          	bge	a5,zero,13028 <_vfprintf_r+0x8b0>
   13020:	02d00793          	addi	a5,zero,45
   13024:	0af10ba3          	sb	a5,183(sp)
   13028:	04700793          	addi	a5,zero,71
   1302c:	0167d863          	bge	a5,s6,1303c <_vfprintf_r+0x8c4>
   13030:	000234b7          	lui	s1,0x23
   13034:	5d448493          	addi	s1,s1,1492 # 235d4 <zeroes.4514+0x1c>
   13038:	f79ff06f          	jal	zero,12fb0 <_vfprintf_r+0x838>
   1303c:	000234b7          	lui	s1,0x23
   13040:	5d048493          	addi	s1,s1,1488 # 235d0 <zeroes.4514+0x18>
   13044:	f6dff06f          	jal	zero,12fb0 <_vfprintf_r+0x838>
   13048:	fdfb7c13          	andi	s8,s6,-33
   1304c:	04100793          	addi	a5,zero,65
   13050:	04fc1e63          	bne	s8,a5,130ac <_vfprintf_r+0x934>
   13054:	03000793          	addi	a5,zero,48
   13058:	0af10c23          	sb	a5,184(sp)
   1305c:	06100713          	addi	a4,zero,97
   13060:	07800793          	addi	a5,zero,120
   13064:	00eb0463          	beq	s6,a4,1306c <_vfprintf_r+0x8f4>
   13068:	05800793          	addi	a5,zero,88
   1306c:	0af10ca3          	sb	a5,185(sp)
   13070:	06300793          	addi	a5,zero,99
   13074:	00246413          	ori	s0,s0,2
   13078:	4ba7d463          	bge	a5,s10,13520 <_vfprintf_r+0xda8>
   1307c:	001d0593          	addi	a1,s10,1
   13080:	00098513          	addi	a0,s3,0
   13084:	259040ef          	jal	ra,17adc <_malloc_r>
   13088:	00050493          	addi	s1,a0,0
   1308c:	4a051063          	bne	a0,zero,1352c <_vfprintf_r+0xdb4>
   13090:	00c95783          	lhu	a5,12(s2)
   13094:	0407e793          	ori	a5,a5,64
   13098:	00f91623          	sh	a5,12(s2)
   1309c:	00c95783          	lhu	a5,12(s2)
   130a0:	0407f793          	andi	a5,a5,64
   130a4:	fe078263          	beq	a5,zero,12888 <_vfprintf_r+0x110>
   130a8:	fd8ff06f          	jal	zero,12880 <_vfprintf_r+0x108>
   130ac:	fff00793          	addi	a5,zero,-1
   130b0:	48fd0263          	beq	s10,a5,13534 <_vfprintf_r+0xdbc>
   130b4:	04700793          	addi	a5,zero,71
   130b8:	00012623          	sw	zero,12(sp)
   130bc:	00fc1863          	bne	s8,a5,130cc <_vfprintf_r+0x954>
   130c0:	000d1663          	bne	s10,zero,130cc <_vfprintf_r+0x954>
   130c4:	01a12623          	sw	s10,12(sp)
   130c8:	00100d13          	addi	s10,zero,1
   130cc:	0ec12a03          	lw	s4,236(sp)
   130d0:	10046793          	ori	a5,s0,256
   130d4:	02f12623          	sw	a5,44(sp)
   130d8:	04012223          	sw	zero,68(sp)
   130dc:	0e012e83          	lw	t4,224(sp)
   130e0:	0e412e03          	lw	t3,228(sp)
   130e4:	0e812d83          	lw	s11,232(sp)
   130e8:	000a5a63          	bge	s4,zero,130fc <_vfprintf_r+0x984>
   130ec:	800007b7          	lui	a5,0x80000
   130f0:	0147ca33          	xor	s4,a5,s4
   130f4:	02d00793          	addi	a5,zero,45
   130f8:	04f12223          	sw	a5,68(sp)
   130fc:	04100793          	addi	a5,zero,65
   13100:	48fc1463          	bne	s8,a5,13588 <_vfprintf_r+0xe10>
   13104:	0a010513          	addi	a0,sp,160
   13108:	0bd12023          	sw	t4,160(sp)
   1310c:	0bc12223          	sw	t3,164(sp)
   13110:	0bb12423          	sw	s11,168(sp)
   13114:	0b412623          	sw	s4,172(sp)
   13118:	2e90f0ef          	jal	ra,22c00 <__trunctfdf2>
   1311c:	0bc10613          	addi	a2,sp,188
   13120:	5d4060ef          	jal	ra,196f4 <frexp>
   13124:	00058613          	addi	a2,a1,0
   13128:	00050593          	addi	a1,a0,0
   1312c:	0a010513          	addi	a0,sp,160
   13130:	0c90f0ef          	jal	ra,229f8 <__extenddftf2>
   13134:	0a012783          	lw	a5,160(sp)
   13138:	07010613          	addi	a2,sp,112
   1313c:	08010593          	addi	a1,sp,128
   13140:	08f12023          	sw	a5,128(sp)
   13144:	0a412783          	lw	a5,164(sp)
   13148:	09010513          	addi	a0,sp,144
   1314c:	06012823          	sw	zero,112(sp)
   13150:	08f12223          	sw	a5,132(sp)
   13154:	0a812783          	lw	a5,168(sp)
   13158:	06012a23          	sw	zero,116(sp)
   1315c:	06012c23          	sw	zero,120(sp)
   13160:	08f12423          	sw	a5,136(sp)
   13164:	0ac12783          	lw	a5,172(sp)
   13168:	08f12623          	sw	a5,140(sp)
   1316c:	3ffc07b7          	lui	a5,0x3ffc0
   13170:	06f12e23          	sw	a5,124(sp)
   13174:	4a90c0ef          	jal	ra,1fe1c <__multf3>
   13178:	09012803          	lw	a6,144(sp)
   1317c:	09412603          	lw	a2,148(sp)
   13180:	09812683          	lw	a3,152(sp)
   13184:	09c12d83          	lw	s11,156(sp)
   13188:	09010593          	addi	a1,sp,144
   1318c:	0a010513          	addi	a0,sp,160
   13190:	0b012023          	sw	a6,160(sp)
   13194:	05012a23          	sw	a6,84(sp)
   13198:	0ac12223          	sw	a2,164(sp)
   1319c:	04c12823          	sw	a2,80(sp)
   131a0:	0ad12423          	sw	a3,168(sp)
   131a4:	04d12423          	sw	a3,72(sp)
   131a8:	0bb12623          	sw	s11,172(sp)
   131ac:	08012823          	sw	zero,144(sp)
   131b0:	08012a23          	sw	zero,148(sp)
   131b4:	08012c23          	sw	zero,152(sp)
   131b8:	08012e23          	sw	zero,156(sp)
   131bc:	1050c0ef          	jal	ra,1fac0 <__eqtf2>
   131c0:	04812683          	lw	a3,72(sp)
   131c4:	05012603          	lw	a2,80(sp)
   131c8:	05412803          	lw	a6,84(sp)
   131cc:	00051663          	bne	a0,zero,131d8 <_vfprintf_r+0xa60>
   131d0:	00100793          	addi	a5,zero,1
   131d4:	0af12e23          	sw	a5,188(sp)
   131d8:	06100793          	addi	a5,zero,97
   131dc:	36fb0263          	beq	s6,a5,13540 <_vfprintf_r+0xdc8>
   131e0:	00023a37          	lui	s4,0x23
   131e4:	5eca0a13          	addi	s4,s4,1516 # 235ec <zeroes.4514+0x34>
   131e8:	fffd0e13          	addi	t3,s10,-1
   131ec:	00048c93          	addi	s9,s1,0
   131f0:	400307b7          	lui	a5,0x40030
   131f4:	09010593          	addi	a1,sp,144
   131f8:	08c12a23          	sw	a2,148(sp)
   131fc:	0a010513          	addi	a0,sp,160
   13200:	08010613          	addi	a2,sp,128
   13204:	05c12c23          	sw	t3,88(sp)
   13208:	08f12623          	sw	a5,140(sp)
   1320c:	09012823          	sw	a6,144(sp)
   13210:	08d12c23          	sw	a3,152(sp)
   13214:	09b12e23          	sw	s11,156(sp)
   13218:	08012023          	sw	zero,128(sp)
   1321c:	08012223          	sw	zero,132(sp)
   13220:	08012423          	sw	zero,136(sp)
   13224:	3f90c0ef          	jal	ra,1fe1c <__multf3>
   13228:	0a012603          	lw	a2,160(sp)
   1322c:	0a412683          	lw	a3,164(sp)
   13230:	0a812703          	lw	a4,168(sp)
   13234:	0a010513          	addi	a0,sp,160
   13238:	04c12a23          	sw	a2,84(sp)
   1323c:	04d12823          	sw	a3,80(sp)
   13240:	04e12423          	sw	a4,72(sp)
   13244:	4d80f0ef          	jal	ra,2271c <__fixtfsi>
   13248:	00050593          	addi	a1,a0,0
   1324c:	00050a93          	addi	s5,a0,0
   13250:	0a010513          	addi	a0,sp,160
   13254:	0ac12d83          	lw	s11,172(sp)
   13258:	6140f0ef          	jal	ra,2286c <__floatsitf>
   1325c:	04812703          	lw	a4,72(sp)
   13260:	05412603          	lw	a2,84(sp)
   13264:	05012683          	lw	a3,80(sp)
   13268:	08e12423          	sw	a4,136(sp)
   1326c:	0a012703          	lw	a4,160(sp)
   13270:	08c12023          	sw	a2,128(sp)
   13274:	08010593          	addi	a1,sp,128
   13278:	06e12823          	sw	a4,112(sp)
   1327c:	0a412703          	lw	a4,164(sp)
   13280:	07010613          	addi	a2,sp,112
   13284:	09010513          	addi	a0,sp,144
   13288:	06e12a23          	sw	a4,116(sp)
   1328c:	0a812703          	lw	a4,168(sp)
   13290:	09b12623          	sw	s11,140(sp)
   13294:	08d12223          	sw	a3,132(sp)
   13298:	06e12c23          	sw	a4,120(sp)
   1329c:	0ac12703          	lw	a4,172(sp)
   132a0:	001c8c93          	addi	s9,s9,1
   132a4:	06e12e23          	sw	a4,124(sp)
   132a8:	6dd0d0ef          	jal	ra,21184 <__subtf3>
   132ac:	015a05b3          	add	a1,s4,s5
   132b0:	0005c583          	lbu	a1,0(a1)
   132b4:	05812e03          	lw	t3,88(sp)
   132b8:	09c12e83          	lw	t4,156(sp)
   132bc:	09012283          	lw	t0,144(sp)
   132c0:	09412f83          	lw	t6,148(sp)
   132c4:	09812f03          	lw	t5,152(sp)
   132c8:	05c12423          	sw	t3,72(sp)
   132cc:	febc8fa3          	sb	a1,-1(s9)
   132d0:	fff00793          	addi	a5,zero,-1
   132d4:	000e8d93          	addi	s11,t4,0
   132d8:	06fe0c63          	beq	t3,a5,13350 <_vfprintf_r+0xbd8>
   132dc:	fffe0e13          	addi	t3,t3,-1
   132e0:	09010593          	addi	a1,sp,144
   132e4:	0a010513          	addi	a0,sp,160
   132e8:	07d12623          	sw	t4,108(sp)
   132ec:	07e12423          	sw	t5,104(sp)
   132f0:	07f12223          	sw	t6,100(sp)
   132f4:	06512023          	sw	t0,96(sp)
   132f8:	05c12e23          	sw	t3,92(sp)
   132fc:	0a512023          	sw	t0,160(sp)
   13300:	04512c23          	sw	t0,88(sp)
   13304:	0bf12223          	sw	t6,164(sp)
   13308:	05f12a23          	sw	t6,84(sp)
   1330c:	0be12423          	sw	t5,168(sp)
   13310:	05e12823          	sw	t5,80(sp)
   13314:	0bd12623          	sw	t4,172(sp)
   13318:	08012823          	sw	zero,144(sp)
   1331c:	08012a23          	sw	zero,148(sp)
   13320:	08012c23          	sw	zero,152(sp)
   13324:	08012e23          	sw	zero,156(sp)
   13328:	7980c0ef          	jal	ra,1fac0 <__eqtf2>
   1332c:	05012683          	lw	a3,80(sp)
   13330:	05412603          	lw	a2,84(sp)
   13334:	05812803          	lw	a6,88(sp)
   13338:	05c12e03          	lw	t3,92(sp)
   1333c:	06012283          	lw	t0,96(sp)
   13340:	06412f83          	lw	t6,100(sp)
   13344:	06812f03          	lw	t5,104(sp)
   13348:	06c12e83          	lw	t4,108(sp)
   1334c:	ea0512e3          	bne	a0,zero,131f0 <_vfprintf_r+0xa78>
   13350:	3ffe0db7          	lui	s11,0x3ffe0
   13354:	09010593          	addi	a1,sp,144
   13358:	0a010513          	addi	a0,sp,160
   1335c:	0a512023          	sw	t0,160(sp)
   13360:	04512e23          	sw	t0,92(sp)
   13364:	0bf12223          	sw	t6,164(sp)
   13368:	05f12c23          	sw	t6,88(sp)
   1336c:	0be12423          	sw	t5,168(sp)
   13370:	05e12a23          	sw	t5,84(sp)
   13374:	0bd12623          	sw	t4,172(sp)
   13378:	05d12823          	sw	t4,80(sp)
   1337c:	08012823          	sw	zero,144(sp)
   13380:	08012a23          	sw	zero,148(sp)
   13384:	08012c23          	sw	zero,152(sp)
   13388:	09b12e23          	sw	s11,156(sp)
   1338c:	0010c0ef          	jal	ra,1fb8c <__getf2>
   13390:	04a04663          	blt	zero,a0,133dc <_vfprintf_r+0xc64>
   13394:	05c12283          	lw	t0,92(sp)
   13398:	05812f83          	lw	t6,88(sp)
   1339c:	05412f03          	lw	t5,84(sp)
   133a0:	05012e83          	lw	t4,80(sp)
   133a4:	09010593          	addi	a1,sp,144
   133a8:	0a010513          	addi	a0,sp,160
   133ac:	0a512023          	sw	t0,160(sp)
   133b0:	0bf12223          	sw	t6,164(sp)
   133b4:	0be12423          	sw	t5,168(sp)
   133b8:	0bd12623          	sw	t4,172(sp)
   133bc:	08012823          	sw	zero,144(sp)
   133c0:	08012a23          	sw	zero,148(sp)
   133c4:	08012c23          	sw	zero,152(sp)
   133c8:	09b12e23          	sw	s11,156(sp)
   133cc:	6f40c0ef          	jal	ra,1fac0 <__eqtf2>
   133d0:	1a051263          	bne	a0,zero,13574 <_vfprintf_r+0xdfc>
   133d4:	001afa93          	andi	s5,s5,1
   133d8:	180a8e63          	beq	s5,zero,13574 <_vfprintf_r+0xdfc>
   133dc:	00fa4603          	lbu	a2,15(s4)
   133e0:	0d912623          	sw	s9,204(sp)
   133e4:	03000593          	addi	a1,zero,48
   133e8:	0cc12683          	lw	a3,204(sp)
   133ec:	fff68713          	addi	a4,a3,-1
   133f0:	0ce12623          	sw	a4,204(sp)
   133f4:	fff6c703          	lbu	a4,-1(a3)
   133f8:	14c70a63          	beq	a4,a2,1354c <_vfprintf_r+0xdd4>
   133fc:	03900613          	addi	a2,zero,57
   13400:	14c71a63          	bne	a4,a2,13554 <_vfprintf_r+0xddc>
   13404:	00aa4703          	lbu	a4,10(s4)
   13408:	fee68fa3          	sb	a4,-1(a3)
   1340c:	000c8a13          	addi	s4,s9,0
   13410:	04700713          	addi	a4,zero,71
   13414:	409a0a33          	sub	s4,s4,s1
   13418:	0bc12d83          	lw	s11,188(sp)
   1341c:	2aec1663          	bne	s8,a4,136c8 <_vfprintf_r+0xf50>
   13420:	ffd00713          	addi	a4,zero,-3
   13424:	00edc463          	blt	s11,a4,1342c <_vfprintf_r+0xcb4>
   13428:	33bd5063          	bge	s10,s11,13748 <_vfprintf_r+0xfd0>
   1342c:	ffeb0b13          	addi	s6,s6,-2
   13430:	fffd8a93          	addi	s5,s11,-1 # 3ffdffff <__BSS_END__+0x3ffba407>
   13434:	0b512e23          	sw	s5,188(sp)
   13438:	fdfb7693          	andi	a3,s6,-33
   1343c:	04100593          	addi	a1,zero,65
   13440:	0ffb7713          	andi	a4,s6,255
   13444:	00000613          	addi	a2,zero,0
   13448:	00b69863          	bne	a3,a1,13458 <_vfprintf_r+0xce0>
   1344c:	00f70713          	addi	a4,a4,15
   13450:	0ff77713          	andi	a4,a4,255
   13454:	00100613          	addi	a2,zero,1
   13458:	0ce10223          	sb	a4,196(sp)
   1345c:	02b00793          	addi	a5,zero,43
   13460:	000ad863          	bge	s5,zero,13470 <_vfprintf_r+0xcf8>
   13464:	00100a93          	addi	s5,zero,1
   13468:	41ba8ab3          	sub	s5,s5,s11
   1346c:	02d00793          	addi	a5,zero,45
   13470:	0cf102a3          	sb	a5,197(sp)
   13474:	00900793          	addi	a5,zero,9
   13478:	2957de63          	bge	a5,s5,13714 <_vfprintf_r+0xf9c>
   1347c:	0d310c13          	addi	s8,sp,211
   13480:	000c0d93          	addi	s11,s8,0
   13484:	06300d13          	addi	s10,zero,99
   13488:	00a00593          	addi	a1,zero,10
   1348c:	000a8513          	addi	a0,s5,0
   13490:	34d0f0ef          	jal	ra,22fdc <__modsi3>
   13494:	03050513          	addi	a0,a0,48
   13498:	feac0fa3          	sb	a0,-1(s8)
   1349c:	00a00593          	addi	a1,zero,10
   134a0:	000a8513          	addi	a0,s5,0
   134a4:	fffc0c93          	addi	s9,s8,-1
   134a8:	2b10f0ef          	jal	ra,22f58 <__divsi3>
   134ac:	255d4463          	blt	s10,s5,136f4 <_vfprintf_r+0xf7c>
   134b0:	03050513          	addi	a0,a0,48
   134b4:	ffec0c13          	addi	s8,s8,-2
   134b8:	feac8fa3          	sb	a0,-1(s9)
   134bc:	0c610793          	addi	a5,sp,198
   134c0:	25bc6063          	bltu	s8,s11,13700 <_vfprintf_r+0xf88>
   134c4:	0c410713          	addi	a4,sp,196
   134c8:	40e787b3          	sub	a5,a5,a4
   134cc:	02f12e23          	sw	a5,60(sp)
   134d0:	01478d33          	add	s10,a5,s4
   134d4:	00100793          	addi	a5,zero,1
   134d8:	0147c663          	blt	a5,s4,134e4 <_vfprintf_r+0xd6c>
   134dc:	00147793          	andi	a5,s0,1
   134e0:	00078663          	beq	a5,zero,134ec <_vfprintf_r+0xd74>
   134e4:	02012783          	lw	a5,32(sp)
   134e8:	00fd0d33          	add	s10,s10,a5
   134ec:	bff47413          	andi	s0,s0,-1025
   134f0:	10046793          	ori	a5,s0,256
   134f4:	02f12623          	sw	a5,44(sp)
   134f8:	00000c93          	addi	s9,zero,0
   134fc:	00000c13          	addi	s8,zero,0
   13500:	00000d93          	addi	s11,zero,0
   13504:	04412783          	lw	a5,68(sp)
   13508:	00078663          	beq	a5,zero,13514 <_vfprintf_r+0xd9c>
   1350c:	02d00713          	addi	a4,zero,45
   13510:	0ae10ba3          	sb	a4,183(sp)
   13514:	02c12403          	lw	s0,44(sp)
   13518:	00000713          	addi	a4,zero,0
   1351c:	e88ff06f          	jal	zero,12ba4 <_vfprintf_r+0x42c>
   13520:	00012623          	sw	zero,12(sp)
   13524:	13c10493          	addi	s1,sp,316
   13528:	ba5ff06f          	jal	zero,130cc <_vfprintf_r+0x954>
   1352c:	00a12623          	sw	a0,12(sp)
   13530:	b9dff06f          	jal	zero,130cc <_vfprintf_r+0x954>
   13534:	00012623          	sw	zero,12(sp)
   13538:	00600d13          	addi	s10,zero,6
   1353c:	b91ff06f          	jal	zero,130cc <_vfprintf_r+0x954>
   13540:	00023a37          	lui	s4,0x23
   13544:	5d8a0a13          	addi	s4,s4,1496 # 235d8 <zeroes.4514+0x20>
   13548:	ca1ff06f          	jal	zero,131e8 <_vfprintf_r+0xa70>
   1354c:	feb68fa3          	sb	a1,-1(a3)
   13550:	e99ff06f          	jal	zero,133e8 <_vfprintf_r+0xc70>
   13554:	00170713          	addi	a4,a4,1
   13558:	0ff77713          	andi	a4,a4,255
   1355c:	eadff06f          	jal	zero,13408 <_vfprintf_r+0xc90>
   13560:	001a0a13          	addi	s4,s4,1
   13564:	feea0fa3          	sb	a4,-1(s4)
   13568:	414c87b3          	sub	a5,s9,s4
   1356c:	fe07dae3          	bge	a5,zero,13560 <_vfprintf_r+0xde8>
   13570:	ea1ff06f          	jal	zero,13410 <_vfprintf_r+0xc98>
   13574:	04812783          	lw	a5,72(sp)
   13578:	000c8a13          	addi	s4,s9,0
   1357c:	03000713          	addi	a4,zero,48
   13580:	00fc8cb3          	add	s9,s9,a5
   13584:	fe5ff06f          	jal	zero,13568 <_vfprintf_r+0xdf0>
   13588:	04600793          	addi	a5,zero,70
   1358c:	00fc0e63          	beq	s8,a5,135a8 <_vfprintf_r+0xe30>
   13590:	04500793          	addi	a5,zero,69
   13594:	001d0a93          	addi	s5,s10,1
   13598:	00fc0463          	beq	s8,a5,135a0 <_vfprintf_r+0xe28>
   1359c:	000d0a93          	addi	s5,s10,0
   135a0:	00200613          	addi	a2,zero,2
   135a4:	00c0006f          	jal	zero,135b0 <_vfprintf_r+0xe38>
   135a8:	000d0a93          	addi	s5,s10,0
   135ac:	00300613          	addi	a2,zero,3
   135b0:	0c010793          	addi	a5,sp,192
   135b4:	0cc10813          	addi	a6,sp,204
   135b8:	0bc10713          	addi	a4,sp,188
   135bc:	000a8693          	addi	a3,s5,0
   135c0:	0a010593          	addi	a1,sp,160
   135c4:	00098513          	addi	a0,s3,0
   135c8:	0bd12023          	sw	t4,160(sp)
   135cc:	05d12823          	sw	t4,80(sp)
   135d0:	0bc12223          	sw	t3,164(sp)
   135d4:	05c12423          	sw	t3,72(sp)
   135d8:	0bb12423          	sw	s11,168(sp)
   135dc:	0b412623          	sw	s4,172(sp)
   135e0:	628030ef          	jal	ra,16c08 <_ldtoa_r>
   135e4:	04700793          	addi	a5,zero,71
   135e8:	00050493          	addi	s1,a0,0
   135ec:	04812e03          	lw	t3,72(sp)
   135f0:	05012e83          	lw	t4,80(sp)
   135f4:	00fc1a63          	bne	s8,a5,13608 <_vfprintf_r+0xe90>
   135f8:	00147793          	andi	a5,s0,1
   135fc:	00079663          	bne	a5,zero,13608 <_vfprintf_r+0xe90>
   13600:	0cc12a03          	lw	s4,204(sp)
   13604:	e0dff06f          	jal	zero,13410 <_vfprintf_r+0xc98>
   13608:	04600793          	addi	a5,zero,70
   1360c:	01548cb3          	add	s9,s1,s5
   13610:	06fc1263          	bne	s8,a5,13674 <_vfprintf_r+0xefc>
   13614:	0004c703          	lbu	a4,0(s1)
   13618:	03000793          	addi	a5,zero,48
   1361c:	04f71863          	bne	a4,a5,1366c <_vfprintf_r+0xef4>
   13620:	09010593          	addi	a1,sp,144
   13624:	0a010513          	addi	a0,sp,160
   13628:	0bd12023          	sw	t4,160(sp)
   1362c:	05d12823          	sw	t4,80(sp)
   13630:	0bc12223          	sw	t3,164(sp)
   13634:	05c12423          	sw	t3,72(sp)
   13638:	0bb12423          	sw	s11,168(sp)
   1363c:	0b412623          	sw	s4,172(sp)
   13640:	08012823          	sw	zero,144(sp)
   13644:	08012a23          	sw	zero,148(sp)
   13648:	08012c23          	sw	zero,152(sp)
   1364c:	08012e23          	sw	zero,156(sp)
   13650:	4700c0ef          	jal	ra,1fac0 <__eqtf2>
   13654:	04812e03          	lw	t3,72(sp)
   13658:	05012e83          	lw	t4,80(sp)
   1365c:	00050863          	beq	a0,zero,1366c <_vfprintf_r+0xef4>
   13660:	00100793          	addi	a5,zero,1
   13664:	41578ab3          	sub	s5,a5,s5
   13668:	0b512e23          	sw	s5,188(sp)
   1366c:	0bc12783          	lw	a5,188(sp)
   13670:	00fc8cb3          	add	s9,s9,a5
   13674:	09010593          	addi	a1,sp,144
   13678:	0a010513          	addi	a0,sp,160
   1367c:	0bd12023          	sw	t4,160(sp)
   13680:	0bc12223          	sw	t3,164(sp)
   13684:	0bb12423          	sw	s11,168(sp)
   13688:	0b412623          	sw	s4,172(sp)
   1368c:	08012823          	sw	zero,144(sp)
   13690:	08012a23          	sw	zero,148(sp)
   13694:	08012c23          	sw	zero,152(sp)
   13698:	08012e23          	sw	zero,156(sp)
   1369c:	4240c0ef          	jal	ra,1fac0 <__eqtf2>
   136a0:	00051463          	bne	a0,zero,136a8 <_vfprintf_r+0xf30>
   136a4:	0d912623          	sw	s9,204(sp)
   136a8:	03000713          	addi	a4,zero,48
   136ac:	0100006f          	jal	zero,136bc <_vfprintf_r+0xf44>
   136b0:	00178693          	addi	a3,a5,1 # 40030001 <__BSS_END__+0x4000a409>
   136b4:	0cd12623          	sw	a3,204(sp)
   136b8:	00e78023          	sb	a4,0(a5)
   136bc:	0cc12783          	lw	a5,204(sp)
   136c0:	ff97e8e3          	bltu	a5,s9,136b0 <_vfprintf_r+0xf38>
   136c4:	f3dff06f          	jal	zero,13600 <_vfprintf_r+0xe88>
   136c8:	04600713          	addi	a4,zero,70
   136cc:	d6ec12e3          	bne	s8,a4,13430 <_vfprintf_r+0xcb8>
   136d0:	00147713          	andi	a4,s0,1
   136d4:	01a76733          	or	a4,a4,s10
   136d8:	07b05063          	bge	zero,s11,13738 <_vfprintf_r+0xfc0>
   136dc:	0c070063          	beq	a4,zero,1379c <_vfprintf_r+0x1024>
   136e0:	02012783          	lw	a5,32(sp)
   136e4:	00fd8733          	add	a4,s11,a5
   136e8:	00ed0d33          	add	s10,s10,a4
   136ec:	06600b13          	addi	s6,zero,102
   136f0:	0900006f          	jal	zero,13780 <_vfprintf_r+0x1008>
   136f4:	000c8c13          	addi	s8,s9,0
   136f8:	00050a93          	addi	s5,a0,0
   136fc:	d8dff06f          	jal	zero,13488 <_vfprintf_r+0xd10>
   13700:	001c0c13          	addi	s8,s8,1
   13704:	fffc4703          	lbu	a4,-1(s8)
   13708:	00178793          	addi	a5,a5,1
   1370c:	fee78fa3          	sb	a4,-1(a5)
   13710:	db1ff06f          	jal	zero,134c0 <_vfprintf_r+0xd48>
   13714:	0c610713          	addi	a4,sp,198
   13718:	00061863          	bne	a2,zero,13728 <_vfprintf_r+0xfb0>
   1371c:	03000793          	addi	a5,zero,48
   13720:	0cf10323          	sb	a5,198(sp)
   13724:	0c710713          	addi	a4,sp,199
   13728:	030a8a93          	addi	s5,s5,48
   1372c:	00170793          	addi	a5,a4,1
   13730:	01570023          	sb	s5,0(a4)
   13734:	d91ff06f          	jal	zero,134c4 <_vfprintf_r+0xd4c>
   13738:	06070663          	beq	a4,zero,137a4 <_vfprintf_r+0x102c>
   1373c:	02012783          	lw	a5,32(sp)
   13740:	00178713          	addi	a4,a5,1
   13744:	fa5ff06f          	jal	zero,136e8 <_vfprintf_r+0xf70>
   13748:	034dc063          	blt	s11,s4,13768 <_vfprintf_r+0xff0>
   1374c:	00147713          	andi	a4,s0,1
   13750:	000d8d13          	addi	s10,s11,0
   13754:	00070663          	beq	a4,zero,13760 <_vfprintf_r+0xfe8>
   13758:	02012783          	lw	a5,32(sp)
   1375c:	00fd8d33          	add	s10,s11,a5
   13760:	06700b13          	addi	s6,zero,103
   13764:	01c0006f          	jal	zero,13780 <_vfprintf_r+0x1008>
   13768:	02012783          	lw	a5,32(sp)
   1376c:	06700b13          	addi	s6,zero,103
   13770:	00fa0d33          	add	s10,s4,a5
   13774:	01b04663          	blt	zero,s11,13780 <_vfprintf_r+0x1008>
   13778:	41bd0333          	sub	t1,s10,s11
   1377c:	00130d13          	addi	s10,t1,1
   13780:	40047c13          	andi	s8,s0,1024
   13784:	00000c93          	addi	s9,zero,0
   13788:	d60c0ee3          	beq	s8,zero,13504 <_vfprintf_r+0xd8c>
   1378c:	00000c13          	addi	s8,zero,0
   13790:	d7b05ae3          	bge	zero,s11,13504 <_vfprintf_r+0xd8c>
   13794:	0ff00693          	addi	a3,zero,255
   13798:	0380006f          	jal	zero,137d0 <_vfprintf_r+0x1058>
   1379c:	000d8d13          	addi	s10,s11,0
   137a0:	f4dff06f          	jal	zero,136ec <_vfprintf_r+0xf74>
   137a4:	06600b13          	addi	s6,zero,102
   137a8:	00100d13          	addi	s10,zero,1
   137ac:	fd5ff06f          	jal	zero,13780 <_vfprintf_r+0x1008>
   137b0:	03b75663          	bge	a4,s11,137dc <_vfprintf_r+0x1064>
   137b4:	01012783          	lw	a5,16(sp)
   137b8:	40ed8db3          	sub	s11,s11,a4
   137bc:	0017c703          	lbu	a4,1(a5)
   137c0:	02070863          	beq	a4,zero,137f0 <_vfprintf_r+0x1078>
   137c4:	00178793          	addi	a5,a5,1
   137c8:	001c0c13          	addi	s8,s8,1
   137cc:	00f12823          	sw	a5,16(sp)
   137d0:	01012783          	lw	a5,16(sp)
   137d4:	0007c703          	lbu	a4,0(a5)
   137d8:	fcd71ce3          	bne	a4,a3,137b0 <_vfprintf_r+0x1038>
   137dc:	03012583          	lw	a1,48(sp)
   137e0:	019c0533          	add	a0,s8,s9
   137e4:	7500f0ef          	jal	ra,22f34 <__mulsi3>
   137e8:	01a50d33          	add	s10,a0,s10
   137ec:	d19ff06f          	jal	zero,13504 <_vfprintf_r+0xd8c>
   137f0:	001c8c93          	addi	s9,s9,1
   137f4:	fddff06f          	jal	zero,137d0 <_vfprintf_r+0x1058>
   137f8:	004a8713          	addi	a4,s5,4
   137fc:	00e12c23          	sw	a4,24(sp)
   13800:	02047713          	andi	a4,s0,32
   13804:	000aa783          	lw	a5,0(s5)
   13808:	02070063          	beq	a4,zero,13828 <_vfprintf_r+0x10b0>
   1380c:	02412703          	lw	a4,36(sp)
   13810:	00e7a023          	sw	a4,0(a5)
   13814:	41f75713          	srai	a4,a4,0x1f
   13818:	00e7a223          	sw	a4,4(a5)
   1381c:	01812a83          	lw	s5,24(sp)
   13820:	01c12483          	lw	s1,28(sp)
   13824:	8ecff06f          	jal	zero,12910 <_vfprintf_r+0x198>
   13828:	01047713          	andi	a4,s0,16
   1382c:	00070863          	beq	a4,zero,1383c <_vfprintf_r+0x10c4>
   13830:	02412703          	lw	a4,36(sp)
   13834:	00e7a023          	sw	a4,0(a5)
   13838:	fe5ff06f          	jal	zero,1381c <_vfprintf_r+0x10a4>
   1383c:	04047713          	andi	a4,s0,64
   13840:	00070863          	beq	a4,zero,13850 <_vfprintf_r+0x10d8>
   13844:	02412703          	lw	a4,36(sp)
   13848:	00e79023          	sh	a4,0(a5)
   1384c:	fd1ff06f          	jal	zero,1381c <_vfprintf_r+0x10a4>
   13850:	20047413          	andi	s0,s0,512
   13854:	fc040ee3          	beq	s0,zero,13830 <_vfprintf_r+0x10b8>
   13858:	02412703          	lw	a4,36(sp)
   1385c:	00e78023          	sb	a4,0(a5)
   13860:	fbdff06f          	jal	zero,1381c <_vfprintf_r+0x10a4>
   13864:	01046413          	ori	s0,s0,16
   13868:	02047793          	andi	a5,s0,32
   1386c:	02078663          	beq	a5,zero,13898 <_vfprintf_r+0x1120>
   13870:	007a8a93          	addi	s5,s5,7
   13874:	ff8afa93          	andi	s5,s5,-8
   13878:	000aac83          	lw	s9,0(s5)
   1387c:	004aad83          	lw	s11,4(s5)
   13880:	008a8793          	addi	a5,s5,8
   13884:	00f12c23          	sw	a5,24(sp)
   13888:	bff47413          	andi	s0,s0,-1025
   1388c:	00000793          	addi	a5,zero,0
   13890:	0a010ba3          	sb	zero,183(sp)
   13894:	e0cff06f          	jal	zero,12ea0 <_vfprintf_r+0x728>
   13898:	004a8793          	addi	a5,s5,4
   1389c:	00f12c23          	sw	a5,24(sp)
   138a0:	01047793          	andi	a5,s0,16
   138a4:	00078663          	beq	a5,zero,138b0 <_vfprintf_r+0x1138>
   138a8:	000aac83          	lw	s9,0(s5)
   138ac:	0100006f          	jal	zero,138bc <_vfprintf_r+0x1144>
   138b0:	04047793          	andi	a5,s0,64
   138b4:	00078863          	beq	a5,zero,138c4 <_vfprintf_r+0x114c>
   138b8:	000adc83          	lhu	s9,0(s5)
   138bc:	00000d93          	addi	s11,zero,0
   138c0:	fc9ff06f          	jal	zero,13888 <_vfprintf_r+0x1110>
   138c4:	20047793          	andi	a5,s0,512
   138c8:	fe0780e3          	beq	a5,zero,138a8 <_vfprintf_r+0x1130>
   138cc:	000acc83          	lbu	s9,0(s5)
   138d0:	fedff06f          	jal	zero,138bc <_vfprintf_r+0x1144>
   138d4:	004a8793          	addi	a5,s5,4
   138d8:	00f12c23          	sw	a5,24(sp)
   138dc:	ffff87b7          	lui	a5,0xffff8
   138e0:	8307c793          	xori	a5,a5,-2000
   138e4:	0af11c23          	sh	a5,184(sp)
   138e8:	000237b7          	lui	a5,0x23
   138ec:	5d878793          	addi	a5,a5,1496 # 235d8 <zeroes.4514+0x20>
   138f0:	04f12023          	sw	a5,64(sp)
   138f4:	000aac83          	lw	s9,0(s5)
   138f8:	00000d93          	addi	s11,zero,0
   138fc:	00246413          	ori	s0,s0,2
   13900:	00200793          	addi	a5,zero,2
   13904:	07800b13          	addi	s6,zero,120
   13908:	f89ff06f          	jal	zero,13890 <_vfprintf_r+0x1118>
   1390c:	004a8793          	addi	a5,s5,4
   13910:	00f12c23          	sw	a5,24(sp)
   13914:	0a010ba3          	sb	zero,183(sp)
   13918:	fff00793          	addi	a5,zero,-1
   1391c:	000aa483          	lw	s1,0(s5)
   13920:	02fd0463          	beq	s10,a5,13948 <_vfprintf_r+0x11d0>
   13924:	000d0613          	addi	a2,s10,0
   13928:	00000593          	addi	a1,zero,0
   1392c:	00048513          	addi	a0,s1,0
   13930:	079040ef          	jal	ra,181a8 <memchr>
   13934:	00a12623          	sw	a0,12(sp)
   13938:	e8050263          	beq	a0,zero,12fbc <_vfprintf_r+0x844>
   1393c:	40950d33          	sub	s10,a0,s1
   13940:	00012623          	sw	zero,12(sp)
   13944:	e78ff06f          	jal	zero,12fbc <_vfprintf_r+0x844>
   13948:	00048513          	addi	a0,s1,0
   1394c:	e11fe0ef          	jal	ra,1275c <strlen>
   13950:	00050d13          	addi	s10,a0,0
   13954:	fedff06f          	jal	zero,13940 <_vfprintf_r+0x11c8>
   13958:	01046413          	ori	s0,s0,16
   1395c:	02047793          	andi	a5,s0,32
   13960:	02078263          	beq	a5,zero,13984 <_vfprintf_r+0x120c>
   13964:	007a8a93          	addi	s5,s5,7
   13968:	ff8afa93          	andi	s5,s5,-8
   1396c:	000aac83          	lw	s9,0(s5)
   13970:	004aad83          	lw	s11,4(s5)
   13974:	008a8793          	addi	a5,s5,8
   13978:	00f12c23          	sw	a5,24(sp)
   1397c:	00100793          	addi	a5,zero,1
   13980:	f11ff06f          	jal	zero,13890 <_vfprintf_r+0x1118>
   13984:	004a8793          	addi	a5,s5,4
   13988:	00f12c23          	sw	a5,24(sp)
   1398c:	01047793          	andi	a5,s0,16
   13990:	00078663          	beq	a5,zero,1399c <_vfprintf_r+0x1224>
   13994:	000aac83          	lw	s9,0(s5)
   13998:	0100006f          	jal	zero,139a8 <_vfprintf_r+0x1230>
   1399c:	04047793          	andi	a5,s0,64
   139a0:	00078863          	beq	a5,zero,139b0 <_vfprintf_r+0x1238>
   139a4:	000adc83          	lhu	s9,0(s5)
   139a8:	00000d93          	addi	s11,zero,0
   139ac:	fd1ff06f          	jal	zero,1397c <_vfprintf_r+0x1204>
   139b0:	20047793          	andi	a5,s0,512
   139b4:	fe0780e3          	beq	a5,zero,13994 <_vfprintf_r+0x121c>
   139b8:	000acc83          	lbu	s9,0(s5)
   139bc:	fedff06f          	jal	zero,139a8 <_vfprintf_r+0x1230>
   139c0:	000237b7          	lui	a5,0x23
   139c4:	5ec78793          	addi	a5,a5,1516 # 235ec <zeroes.4514+0x34>
   139c8:	04f12023          	sw	a5,64(sp)
   139cc:	02047793          	andi	a5,s0,32
   139d0:	04078a63          	beq	a5,zero,13a24 <_vfprintf_r+0x12ac>
   139d4:	007a8a93          	addi	s5,s5,7
   139d8:	ff8afa93          	andi	s5,s5,-8
   139dc:	000aac83          	lw	s9,0(s5)
   139e0:	004aad83          	lw	s11,4(s5)
   139e4:	008a8793          	addi	a5,s5,8
   139e8:	00f12c23          	sw	a5,24(sp)
   139ec:	00147793          	andi	a5,s0,1
   139f0:	00078e63          	beq	a5,zero,13a0c <_vfprintf_r+0x1294>
   139f4:	01bce7b3          	or	a5,s9,s11
   139f8:	00078a63          	beq	a5,zero,13a0c <_vfprintf_r+0x1294>
   139fc:	03000793          	addi	a5,zero,48
   13a00:	0af10c23          	sb	a5,184(sp)
   13a04:	0b610ca3          	sb	s6,185(sp)
   13a08:	00246413          	ori	s0,s0,2
   13a0c:	bff47413          	andi	s0,s0,-1025
   13a10:	00200793          	addi	a5,zero,2
   13a14:	e7dff06f          	jal	zero,13890 <_vfprintf_r+0x1118>
   13a18:	000237b7          	lui	a5,0x23
   13a1c:	5d878793          	addi	a5,a5,1496 # 235d8 <zeroes.4514+0x20>
   13a20:	fa9ff06f          	jal	zero,139c8 <_vfprintf_r+0x1250>
   13a24:	004a8793          	addi	a5,s5,4
   13a28:	00f12c23          	sw	a5,24(sp)
   13a2c:	01047793          	andi	a5,s0,16
   13a30:	00078663          	beq	a5,zero,13a3c <_vfprintf_r+0x12c4>
   13a34:	000aac83          	lw	s9,0(s5)
   13a38:	0100006f          	jal	zero,13a48 <_vfprintf_r+0x12d0>
   13a3c:	04047793          	andi	a5,s0,64
   13a40:	00078863          	beq	a5,zero,13a50 <_vfprintf_r+0x12d8>
   13a44:	000adc83          	lhu	s9,0(s5)
   13a48:	00000d93          	addi	s11,zero,0
   13a4c:	fa1ff06f          	jal	zero,139ec <_vfprintf_r+0x1274>
   13a50:	20047793          	andi	a5,s0,512
   13a54:	fe0780e3          	beq	a5,zero,13a34 <_vfprintf_r+0x12bc>
   13a58:	000acc83          	lbu	s9,0(s5)
   13a5c:	fedff06f          	jal	zero,13a48 <_vfprintf_r+0x12d0>
   13a60:	00040713          	addi	a4,s0,0
   13a64:	00100793          	addi	a5,zero,1
   13a68:	c44ff06f          	jal	zero,12eac <_vfprintf_r+0x734>
   13a6c:	00100713          	addi	a4,zero,1
   13a70:	4ae780e3          	beq	a5,a4,14710 <_vfprintf_r+0x1f98>
   13a74:	00200713          	addi	a4,zero,2
   13a78:	12e78a63          	beq	a5,a4,13bac <_vfprintf_r+0x1434>
   13a7c:	1a010793          	addi	a5,sp,416
   13a80:	01dd9693          	slli	a3,s11,0x1d
   13a84:	007cf713          	andi	a4,s9,7
   13a88:	003cdc93          	srli	s9,s9,0x3
   13a8c:	03070713          	addi	a4,a4,48
   13a90:	0196ecb3          	or	s9,a3,s9
   13a94:	003ddd93          	srli	s11,s11,0x3
   13a98:	fee78fa3          	sb	a4,-1(a5)
   13a9c:	01bce6b3          	or	a3,s9,s11
   13aa0:	fff78493          	addi	s1,a5,-1
   13aa4:	02069e63          	bne	a3,zero,13ae0 <_vfprintf_r+0x1368>
   13aa8:	00147693          	andi	a3,s0,1
   13aac:	00068a63          	beq	a3,zero,13ac0 <_vfprintf_r+0x1348>
   13ab0:	03000693          	addi	a3,zero,48
   13ab4:	00d70663          	beq	a4,a3,13ac0 <_vfprintf_r+0x1348>
   13ab8:	fed48fa3          	sb	a3,-1(s1)
   13abc:	ffe78493          	addi	s1,a5,-2
   13ac0:	1a010793          	addi	a5,sp,416
   13ac4:	000d0713          	addi	a4,s10,0
   13ac8:	00012623          	sw	zero,12(sp)
   13acc:	40978d33          	sub	s10,a5,s1
   13ad0:	00000c93          	addi	s9,zero,0
   13ad4:	00000c13          	addi	s8,zero,0
   13ad8:	00000d93          	addi	s11,zero,0
   13adc:	8c8ff06f          	jal	zero,12ba4 <_vfprintf_r+0x42c>
   13ae0:	00048793          	addi	a5,s1,0
   13ae4:	f9dff06f          	jal	zero,13a80 <_vfprintf_r+0x1308>
   13ae8:	40047713          	andi	a4,s0,1024
   13aec:	00000a13          	addi	s4,zero,0
   13af0:	1a010793          	addi	a5,sp,416
   13af4:	00e12623          	sw	a4,12(sp)
   13af8:	0ff00c13          	addi	s8,zero,255
   13afc:	00900a93          	addi	s5,zero,9
   13b00:	00a00613          	addi	a2,zero,10
   13b04:	00000693          	addi	a3,zero,0
   13b08:	000c8513          	addi	a0,s9,0
   13b0c:	000d8593          	addi	a1,s11,0
   13b10:	fff78493          	addi	s1,a5,-1
   13b14:	02f12623          	sw	a5,44(sp)
   13b18:	4750a0ef          	jal	ra,1e78c <__umoddi3>
   13b1c:	02c12783          	lw	a5,44(sp)
   13b20:	03050513          	addi	a0,a0,48
   13b24:	001a0a13          	addi	s4,s4,1
   13b28:	fea78fa3          	sb	a0,-1(a5)
   13b2c:	00c12783          	lw	a5,12(sp)
   13b30:	04078863          	beq	a5,zero,13b80 <_vfprintf_r+0x1408>
   13b34:	01012783          	lw	a5,16(sp)
   13b38:	0007c783          	lbu	a5,0(a5)
   13b3c:	04fa1263          	bne	s4,a5,13b80 <_vfprintf_r+0x1408>
   13b40:	058a0063          	beq	s4,s8,13b80 <_vfprintf_r+0x1408>
   13b44:	000d9463          	bne	s11,zero,13b4c <_vfprintf_r+0x13d4>
   13b48:	039afc63          	bgeu	s5,s9,13b80 <_vfprintf_r+0x1408>
   13b4c:	03012783          	lw	a5,48(sp)
   13b50:	03812583          	lw	a1,56(sp)
   13b54:	00000a13          	addi	s4,zero,0
   13b58:	40f484b3          	sub	s1,s1,a5
   13b5c:	00078613          	addi	a2,a5,0
   13b60:	00048513          	addi	a0,s1,0
   13b64:	7e9050ef          	jal	ra,19b4c <strncpy>
   13b68:	01012783          	lw	a5,16(sp)
   13b6c:	0017c783          	lbu	a5,1(a5)
   13b70:	00078863          	beq	a5,zero,13b80 <_vfprintf_r+0x1408>
   13b74:	01012783          	lw	a5,16(sp)
   13b78:	00178793          	addi	a5,a5,1
   13b7c:	00f12823          	sw	a5,16(sp)
   13b80:	00a00613          	addi	a2,zero,10
   13b84:	00000693          	addi	a3,zero,0
   13b88:	000c8513          	addi	a0,s9,0
   13b8c:	000d8593          	addi	a1,s11,0
   13b90:	6280a0ef          	jal	ra,1e1b8 <__udivdi3>
   13b94:	000d9463          	bne	s11,zero,13b9c <_vfprintf_r+0x1424>
   13b98:	f39af4e3          	bgeu	s5,s9,13ac0 <_vfprintf_r+0x1348>
   13b9c:	00050c93          	addi	s9,a0,0
   13ba0:	00058d93          	addi	s11,a1,0
   13ba4:	00048793          	addi	a5,s1,0
   13ba8:	f59ff06f          	jal	zero,13b00 <_vfprintf_r+0x1388>
   13bac:	1a010493          	addi	s1,sp,416
   13bb0:	04012703          	lw	a4,64(sp)
   13bb4:	00fcf793          	andi	a5,s9,15
   13bb8:	fff48493          	addi	s1,s1,-1
   13bbc:	00f707b3          	add	a5,a4,a5
   13bc0:	0007c783          	lbu	a5,0(a5)
   13bc4:	004cdc93          	srli	s9,s9,0x4
   13bc8:	00f48023          	sb	a5,0(s1)
   13bcc:	01cd9793          	slli	a5,s11,0x1c
   13bd0:	0197ecb3          	or	s9,a5,s9
   13bd4:	004ddd93          	srli	s11,s11,0x4
   13bd8:	01bce7b3          	or	a5,s9,s11
   13bdc:	fc079ae3          	bne	a5,zero,13bb0 <_vfprintf_r+0x1438>
   13be0:	ee1ff06f          	jal	zero,13ac0 <_vfprintf_r+0x1348>
   13be4:	1a010493          	addi	s1,sp,416
   13be8:	ec079ce3          	bne	a5,zero,13ac0 <_vfprintf_r+0x1348>
   13bec:	00177713          	andi	a4,a4,1
   13bf0:	ec0708e3          	beq	a4,zero,13ac0 <_vfprintf_r+0x1348>
   13bf4:	03000793          	addi	a5,zero,48
   13bf8:	18f10fa3          	sb	a5,415(sp)
   13bfc:	3290006f          	jal	zero,14724 <_vfprintf_r+0x1fac>
   13c00:	2e0b04e3          	beq	s6,zero,146e8 <_vfprintf_r+0x1f70>
   13c04:	13610e23          	sb	s6,316(sp)
   13c08:	0a010ba3          	sb	zero,183(sp)
   13c0c:	01512c23          	sw	s5,24(sp)
   13c10:	f79fe06f          	jal	zero,12b88 <_vfprintf_r+0x410>
   13c14:	01058593          	addi	a1,a1,16
   13c18:	01cba223          	sw	t3,4(s7)
   13c1c:	0cb12e23          	sw	a1,220(sp)
   13c20:	0cc12c23          	sw	a2,216(sp)
   13c24:	02cede63          	bge	t4,a2,13c60 <_vfprintf_r+0x14e8>
   13c28:	0d410613          	addi	a2,sp,212
   13c2c:	00090593          	addi	a1,s2,0
   13c30:	00098513          	addi	a0,s3,0
   13c34:	04e12823          	sw	a4,80(sp)
   13c38:	04d12423          	sw	a3,72(sp)
   13c3c:	6a1070ef          	jal	ra,1badc <__sprint_r>
   13c40:	240512e3          	bne	a0,zero,14684 <_vfprintf_r+0x1f0c>
   13c44:	05012703          	lw	a4,80(sp)
   13c48:	04812683          	lw	a3,72(sp)
   13c4c:	000237b7          	lui	a5,0x23
   13c50:	0fc10513          	addi	a0,sp,252
   13c54:	00700e93          	addi	t4,zero,7
   13c58:	5a878813          	addi	a6,a5,1448 # 235a8 <blanks.4513>
   13c5c:	01000e13          	addi	t3,zero,16
   13c60:	ff068693          	addi	a3,a3,-16
   13c64:	00050b93          	addi	s7,a0,0
   13c68:	f9dfe06f          	jal	zero,12c04 <_vfprintf_r+0x48c>
   13c6c:	01060613          	addi	a2,a2,16
   13c70:	010ba223          	sw	a6,4(s7)
   13c74:	0cc12e23          	sw	a2,220(sp)
   13c78:	0cd12c23          	sw	a3,216(sp)
   13c7c:	02de5663          	bge	t3,a3,13ca8 <_vfprintf_r+0x1530>
   13c80:	0d410613          	addi	a2,sp,212
   13c84:	00090593          	addi	a1,s2,0
   13c88:	00098513          	addi	a0,s3,0
   13c8c:	04e12223          	sw	a4,68(sp)
   13c90:	64d070ef          	jal	ra,1badc <__sprint_r>
   13c94:	1e0518e3          	bne	a0,zero,14684 <_vfprintf_r+0x1f0c>
   13c98:	04412703          	lw	a4,68(sp)
   13c9c:	0fc10593          	addi	a1,sp,252
   13ca0:	00700e13          	addi	t3,zero,7
   13ca4:	01000813          	addi	a6,zero,16
   13ca8:	ff0a8a93          	addi	s5,s5,-16
   13cac:	00058b93          	addi	s7,a1,0
   13cb0:	890ff06f          	jal	zero,12d40 <_vfprintf_r+0x5c8>
   13cb4:	01070713          	addi	a4,a4,16
   13cb8:	010ba223          	sw	a6,4(s7)
   13cbc:	0ce12e23          	sw	a4,220(sp)
   13cc0:	0cd12c23          	sw	a3,216(sp)
   13cc4:	02de5263          	bge	t3,a3,13ce8 <_vfprintf_r+0x1570>
   13cc8:	0d410613          	addi	a2,sp,212
   13ccc:	00090593          	addi	a1,s2,0
   13cd0:	00098513          	addi	a0,s3,0
   13cd4:	609070ef          	jal	ra,1badc <__sprint_r>
   13cd8:	1a0516e3          	bne	a0,zero,14684 <_vfprintf_r+0x1f0c>
   13cdc:	0fc10613          	addi	a2,sp,252
   13ce0:	00700e13          	addi	t3,zero,7
   13ce4:	01000813          	addi	a6,zero,16
   13ce8:	ff0a8a93          	addi	s5,s5,-16
   13cec:	00060b93          	addi	s7,a2,0
   13cf0:	8bcff06f          	jal	zero,12dac <_vfprintf_r+0x634>
   13cf4:	06500693          	addi	a3,zero,101
   13cf8:	7366d463          	bge	a3,s6,14420 <_vfprintf_r+0x1ca8>
   13cfc:	0e012683          	lw	a3,224(sp)
   13d00:	09010593          	addi	a1,sp,144
   13d04:	0a010513          	addi	a0,sp,160
   13d08:	0ad12023          	sw	a3,160(sp)
   13d0c:	0e412683          	lw	a3,228(sp)
   13d10:	04e12223          	sw	a4,68(sp)
   13d14:	08012823          	sw	zero,144(sp)
   13d18:	0ad12223          	sw	a3,164(sp)
   13d1c:	0e812683          	lw	a3,232(sp)
   13d20:	08012a23          	sw	zero,148(sp)
   13d24:	08012c23          	sw	zero,152(sp)
   13d28:	0ad12423          	sw	a3,168(sp)
   13d2c:	0ec12683          	lw	a3,236(sp)
   13d30:	08012e23          	sw	zero,156(sp)
   13d34:	0ad12623          	sw	a3,172(sp)
   13d38:	5890b0ef          	jal	ra,1fac0 <__eqtf2>
   13d3c:	04412703          	lw	a4,68(sp)
   13d40:	12051a63          	bne	a0,zero,13e74 <_vfprintf_r+0x16fc>
   13d44:	000237b7          	lui	a5,0x23
   13d48:	60078793          	addi	a5,a5,1536 # 23600 <zeroes.4514+0x48>
   13d4c:	00fba023          	sw	a5,0(s7)
   13d50:	00100793          	addi	a5,zero,1
   13d54:	00fba223          	sw	a5,4(s7)
   13d58:	0d812783          	lw	a5,216(sp)
   13d5c:	00170713          	addi	a4,a4,1
   13d60:	0ce12e23          	sw	a4,220(sp)
   13d64:	00178793          	addi	a5,a5,1
   13d68:	0cf12c23          	sw	a5,216(sp)
   13d6c:	00700713          	addi	a4,zero,7
   13d70:	008b8b93          	addi	s7,s7,8
   13d74:	00f75e63          	bge	a4,a5,13d90 <_vfprintf_r+0x1618>
   13d78:	0d410613          	addi	a2,sp,212
   13d7c:	00090593          	addi	a1,s2,0
   13d80:	00098513          	addi	a0,s3,0
   13d84:	559070ef          	jal	ra,1badc <__sprint_r>
   13d88:	0e051ee3          	bne	a0,zero,14684 <_vfprintf_r+0x1f0c>
   13d8c:	0fc10b93          	addi	s7,sp,252
   13d90:	0bc12783          	lw	a5,188(sp)
   13d94:	0147c663          	blt	a5,s4,13da0 <_vfprintf_r+0x1628>
   13d98:	00147793          	andi	a5,s0,1
   13d9c:	22078063          	beq	a5,zero,13fbc <_vfprintf_r+0x1844>
   13da0:	03412783          	lw	a5,52(sp)
   13da4:	02012703          	lw	a4,32(sp)
   13da8:	008b8b93          	addi	s7,s7,8
   13dac:	fefbac23          	sw	a5,-8(s7)
   13db0:	02012783          	lw	a5,32(sp)
   13db4:	fefbae23          	sw	a5,-4(s7)
   13db8:	0dc12783          	lw	a5,220(sp)
   13dbc:	00e787b3          	add	a5,a5,a4
   13dc0:	0cf12e23          	sw	a5,220(sp)
   13dc4:	0d812783          	lw	a5,216(sp)
   13dc8:	00700713          	addi	a4,zero,7
   13dcc:	00178793          	addi	a5,a5,1
   13dd0:	0cf12c23          	sw	a5,216(sp)
   13dd4:	00f75e63          	bge	a4,a5,13df0 <_vfprintf_r+0x1678>
   13dd8:	0d410613          	addi	a2,sp,212
   13ddc:	00090593          	addi	a1,s2,0
   13de0:	00098513          	addi	a0,s3,0
   13de4:	4f9070ef          	jal	ra,1badc <__sprint_r>
   13de8:	08051ee3          	bne	a0,zero,14684 <_vfprintf_r+0x1f0c>
   13dec:	0fc10b93          	addi	s7,sp,252
   13df0:	fffa0493          	addi	s1,s4,-1
   13df4:	1c905463          	bge	zero,s1,13fbc <_vfprintf_r+0x1844>
   13df8:	01000a93          	addi	s5,zero,16
   13dfc:	00700b13          	addi	s6,zero,7
   13e00:	01412603          	lw	a2,20(sp)
   13e04:	0d812783          	lw	a5,216(sp)
   13e08:	0dc12703          	lw	a4,220(sp)
   13e0c:	00cba023          	sw	a2,0(s7)
   13e10:	00178793          	addi	a5,a5,1
   13e14:	008b8693          	addi	a3,s7,8
   13e18:	029ac263          	blt	s5,s1,13e3c <_vfprintf_r+0x16c4>
   13e1c:	009ba223          	sw	s1,4(s7)
   13e20:	00e484b3          	add	s1,s1,a4
   13e24:	0c912e23          	sw	s1,220(sp)
   13e28:	0cf12c23          	sw	a5,216(sp)
   13e2c:	00700713          	addi	a4,zero,7
   13e30:	00068b93          	addi	s7,a3,0
   13e34:	18f75463          	bge	a4,a5,13fbc <_vfprintf_r+0x1844>
   13e38:	800ff06f          	jal	zero,12e38 <_vfprintf_r+0x6c0>
   13e3c:	01070713          	addi	a4,a4,16
   13e40:	015ba223          	sw	s5,4(s7)
   13e44:	0ce12e23          	sw	a4,220(sp)
   13e48:	0cf12c23          	sw	a5,216(sp)
   13e4c:	00fb5e63          	bge	s6,a5,13e68 <_vfprintf_r+0x16f0>
   13e50:	0d410613          	addi	a2,sp,212
   13e54:	00090593          	addi	a1,s2,0
   13e58:	00098513          	addi	a0,s3,0
   13e5c:	481070ef          	jal	ra,1badc <__sprint_r>
   13e60:	020512e3          	bne	a0,zero,14684 <_vfprintf_r+0x1f0c>
   13e64:	0fc10693          	addi	a3,sp,252
   13e68:	ff048493          	addi	s1,s1,-16
   13e6c:	00068b93          	addi	s7,a3,0
   13e70:	f91ff06f          	jal	zero,13e00 <_vfprintf_r+0x1688>
   13e74:	0bc12683          	lw	a3,188(sp)
   13e78:	1cd04863          	blt	zero,a3,14048 <_vfprintf_r+0x18d0>
   13e7c:	000237b7          	lui	a5,0x23
   13e80:	60078793          	addi	a5,a5,1536 # 23600 <zeroes.4514+0x48>
   13e84:	00fba023          	sw	a5,0(s7)
   13e88:	00100793          	addi	a5,zero,1
   13e8c:	00fba223          	sw	a5,4(s7)
   13e90:	0d812783          	lw	a5,216(sp)
   13e94:	00170713          	addi	a4,a4,1
   13e98:	0ce12e23          	sw	a4,220(sp)
   13e9c:	00178793          	addi	a5,a5,1
   13ea0:	0cf12c23          	sw	a5,216(sp)
   13ea4:	00700713          	addi	a4,zero,7
   13ea8:	008b8b93          	addi	s7,s7,8
   13eac:	00f75e63          	bge	a4,a5,13ec8 <_vfprintf_r+0x1750>
   13eb0:	0d410613          	addi	a2,sp,212
   13eb4:	00090593          	addi	a1,s2,0
   13eb8:	00098513          	addi	a0,s3,0
   13ebc:	421070ef          	jal	ra,1badc <__sprint_r>
   13ec0:	7c051263          	bne	a0,zero,14684 <_vfprintf_r+0x1f0c>
   13ec4:	0fc10b93          	addi	s7,sp,252
   13ec8:	0bc12783          	lw	a5,188(sp)
   13ecc:	00147693          	andi	a3,s0,1
   13ed0:	0dc12703          	lw	a4,220(sp)
   13ed4:	00fa67b3          	or	a5,s4,a5
   13ed8:	00d7e7b3          	or	a5,a5,a3
   13edc:	0e078063          	beq	a5,zero,13fbc <_vfprintf_r+0x1844>
   13ee0:	03412783          	lw	a5,52(sp)
   13ee4:	008b8893          	addi	a7,s7,8
   13ee8:	00fba023          	sw	a5,0(s7)
   13eec:	02012783          	lw	a5,32(sp)
   13ef0:	00fba223          	sw	a5,4(s7)
   13ef4:	00e787b3          	add	a5,a5,a4
   13ef8:	0cf12e23          	sw	a5,220(sp)
   13efc:	0d812783          	lw	a5,216(sp)
   13f00:	00700713          	addi	a4,zero,7
   13f04:	00178793          	addi	a5,a5,1
   13f08:	0cf12c23          	sw	a5,216(sp)
   13f0c:	00f75e63          	bge	a4,a5,13f28 <_vfprintf_r+0x17b0>
   13f10:	0d410613          	addi	a2,sp,212
   13f14:	00090593          	addi	a1,s2,0
   13f18:	00098513          	addi	a0,s3,0
   13f1c:	3c1070ef          	jal	ra,1badc <__sprint_r>
   13f20:	76051263          	bne	a0,zero,14684 <_vfprintf_r+0x1f0c>
   13f24:	0fc10893          	addi	a7,sp,252
   13f28:	0bc12a83          	lw	s5,188(sp)
   13f2c:	060ad063          	bge	s5,zero,13f8c <_vfprintf_r+0x1814>
   13f30:	41500ab3          	sub	s5,zero,s5
   13f34:	00088713          	addi	a4,a7,0
   13f38:	01000b13          	addi	s6,zero,16
   13f3c:	00700c13          	addi	s8,zero,7
   13f40:	01412603          	lw	a2,20(sp)
   13f44:	0d812783          	lw	a5,216(sp)
   13f48:	0dc12683          	lw	a3,220(sp)
   13f4c:	00c72023          	sw	a2,0(a4)
   13f50:	00178793          	addi	a5,a5,1
   13f54:	00888893          	addi	a7,a7,8
   13f58:	0b5b4c63          	blt	s6,s5,14010 <_vfprintf_r+0x1898>
   13f5c:	01572223          	sw	s5,4(a4)
   13f60:	00da8ab3          	add	s5,s5,a3
   13f64:	0d512e23          	sw	s5,220(sp)
   13f68:	0cf12c23          	sw	a5,216(sp)
   13f6c:	00700713          	addi	a4,zero,7
   13f70:	00f75e63          	bge	a4,a5,13f8c <_vfprintf_r+0x1814>
   13f74:	0d410613          	addi	a2,sp,212
   13f78:	00090593          	addi	a1,s2,0
   13f7c:	00098513          	addi	a0,s3,0
   13f80:	35d070ef          	jal	ra,1badc <__sprint_r>
   13f84:	70051063          	bne	a0,zero,14684 <_vfprintf_r+0x1f0c>
   13f88:	0fc10893          	addi	a7,sp,252
   13f8c:	0dc12783          	lw	a5,220(sp)
   13f90:	0098a023          	sw	s1,0(a7)
   13f94:	0148a223          	sw	s4,4(a7)
   13f98:	014787b3          	add	a5,a5,s4
   13f9c:	0cf12e23          	sw	a5,220(sp)
   13fa0:	0d812783          	lw	a5,216(sp)
   13fa4:	00700713          	addi	a4,zero,7
   13fa8:	00888b93          	addi	s7,a7,8
   13fac:	00178793          	addi	a5,a5,1
   13fb0:	0cf12c23          	sw	a5,216(sp)
   13fb4:	00f75463          	bge	a4,a5,13fbc <_vfprintf_r+0x1844>
   13fb8:	e81fe06f          	jal	zero,12e38 <_vfprintf_r+0x6c0>
   13fbc:	00447413          	andi	s0,s0,4
   13fc0:	66041263          	bne	s0,zero,14624 <_vfprintf_r+0x1eac>
   13fc4:	02812b03          	lw	s6,40(sp)
   13fc8:	02c12783          	lw	a5,44(sp)
   13fcc:	00fb5463          	bge	s6,a5,13fd4 <_vfprintf_r+0x185c>
   13fd0:	00078b13          	addi	s6,a5,0
   13fd4:	02412783          	lw	a5,36(sp)
   13fd8:	016787b3          	add	a5,a5,s6
   13fdc:	02f12223          	sw	a5,36(sp)
   13fe0:	0dc12783          	lw	a5,220(sp)
   13fe4:	00078c63          	beq	a5,zero,13ffc <_vfprintf_r+0x1884>
   13fe8:	0d410613          	addi	a2,sp,212
   13fec:	00090593          	addi	a1,s2,0
   13ff0:	00098513          	addi	a0,s3,0
   13ff4:	2e9070ef          	jal	ra,1badc <__sprint_r>
   13ff8:	68051663          	bne	a0,zero,14684 <_vfprintf_r+0x1f0c>
   13ffc:	00c12783          	lw	a5,12(sp)
   14000:	0c012c23          	sw	zero,216(sp)
   14004:	6c079a63          	bne	a5,zero,146d8 <_vfprintf_r+0x1f60>
   14008:	0fc10b93          	addi	s7,sp,252
   1400c:	811ff06f          	jal	zero,1381c <_vfprintf_r+0x10a4>
   14010:	01068693          	addi	a3,a3,16
   14014:	01672223          	sw	s6,4(a4)
   14018:	0cd12e23          	sw	a3,220(sp)
   1401c:	0cf12c23          	sw	a5,216(sp)
   14020:	00fc5e63          	bge	s8,a5,1403c <_vfprintf_r+0x18c4>
   14024:	0d410613          	addi	a2,sp,212
   14028:	00090593          	addi	a1,s2,0
   1402c:	00098513          	addi	a0,s3,0
   14030:	2ad070ef          	jal	ra,1badc <__sprint_r>
   14034:	64051863          	bne	a0,zero,14684 <_vfprintf_r+0x1f0c>
   14038:	0fc10893          	addi	a7,sp,252
   1403c:	ff0a8a93          	addi	s5,s5,-16
   14040:	00088713          	addi	a4,a7,0
   14044:	efdff06f          	jal	zero,13f40 <_vfprintf_r+0x17c8>
   14048:	000d8a93          	addi	s5,s11,0
   1404c:	01ba5463          	bge	s4,s11,14054 <_vfprintf_r+0x18dc>
   14050:	000a0a93          	addi	s5,s4,0
   14054:	05505263          	bge	zero,s5,14098 <_vfprintf_r+0x1920>
   14058:	00ea8733          	add	a4,s5,a4
   1405c:	0ce12e23          	sw	a4,220(sp)
   14060:	0d812703          	lw	a4,216(sp)
   14064:	009ba023          	sw	s1,0(s7)
   14068:	015ba223          	sw	s5,4(s7)
   1406c:	00170713          	addi	a4,a4,1
   14070:	0ce12c23          	sw	a4,216(sp)
   14074:	00700693          	addi	a3,zero,7
   14078:	008b8b93          	addi	s7,s7,8
   1407c:	00e6de63          	bge	a3,a4,14098 <_vfprintf_r+0x1920>
   14080:	0d410613          	addi	a2,sp,212
   14084:	00090593          	addi	a1,s2,0
   14088:	00098513          	addi	a0,s3,0
   1408c:	251070ef          	jal	ra,1badc <__sprint_r>
   14090:	5e051a63          	bne	a0,zero,14684 <_vfprintf_r+0x1f0c>
   14094:	0fc10b93          	addi	s7,sp,252
   14098:	000ad463          	bge	s5,zero,140a0 <_vfprintf_r+0x1928>
   1409c:	00000a93          	addi	s5,zero,0
   140a0:	415d8ab3          	sub	s5,s11,s5
   140a4:	05505e63          	bge	zero,s5,14100 <_vfprintf_r+0x1988>
   140a8:	01000b13          	addi	s6,zero,16
   140ac:	00700d13          	addi	s10,zero,7
   140b0:	01412783          	lw	a5,20(sp)
   140b4:	0d812703          	lw	a4,216(sp)
   140b8:	0dc12683          	lw	a3,220(sp)
   140bc:	00fba023          	sw	a5,0(s7)
   140c0:	00170713          	addi	a4,a4,1
   140c4:	008b8613          	addi	a2,s7,8
   140c8:	195b4c63          	blt	s6,s5,14260 <_vfprintf_r+0x1ae8>
   140cc:	015ba223          	sw	s5,4(s7)
   140d0:	00da8ab3          	add	s5,s5,a3
   140d4:	0d512e23          	sw	s5,220(sp)
   140d8:	0ce12c23          	sw	a4,216(sp)
   140dc:	00700693          	addi	a3,zero,7
   140e0:	00060b93          	addi	s7,a2,0
   140e4:	00e6de63          	bge	a3,a4,14100 <_vfprintf_r+0x1988>
   140e8:	0d410613          	addi	a2,sp,212
   140ec:	00090593          	addi	a1,s2,0
   140f0:	00098513          	addi	a0,s3,0
   140f4:	1e9070ef          	jal	ra,1badc <__sprint_r>
   140f8:	58051663          	bne	a0,zero,14684 <_vfprintf_r+0x1f0c>
   140fc:	0fc10b93          	addi	s7,sp,252
   14100:	40047793          	andi	a5,s0,1024
   14104:	01b48ab3          	add	s5,s1,s11
   14108:	02078063          	beq	a5,zero,14128 <_vfprintf_r+0x19b0>
   1410c:	00700b13          	addi	s6,zero,7
   14110:	01448d33          	add	s10,s1,s4
   14114:	180c1263          	bne	s8,zero,14298 <_vfprintf_r+0x1b20>
   14118:	180c9263          	bne	s9,zero,1429c <_vfprintf_r+0x1b24>
   1411c:	014487b3          	add	a5,s1,s4
   14120:	0157f463          	bgeu	a5,s5,14128 <_vfprintf_r+0x19b0>
   14124:	00078a93          	addi	s5,a5,0
   14128:	0bc12783          	lw	a5,188(sp)
   1412c:	0147c663          	blt	a5,s4,14138 <_vfprintf_r+0x19c0>
   14130:	00147793          	andi	a5,s0,1
   14134:	04078a63          	beq	a5,zero,14188 <_vfprintf_r+0x1a10>
   14138:	03412783          	lw	a5,52(sp)
   1413c:	02012703          	lw	a4,32(sp)
   14140:	008b8b93          	addi	s7,s7,8
   14144:	fefbac23          	sw	a5,-8(s7)
   14148:	02012783          	lw	a5,32(sp)
   1414c:	fefbae23          	sw	a5,-4(s7)
   14150:	0dc12783          	lw	a5,220(sp)
   14154:	00e787b3          	add	a5,a5,a4
   14158:	0cf12e23          	sw	a5,220(sp)
   1415c:	0d812783          	lw	a5,216(sp)
   14160:	00700713          	addi	a4,zero,7
   14164:	00178793          	addi	a5,a5,1
   14168:	0cf12c23          	sw	a5,216(sp)
   1416c:	00f75e63          	bge	a4,a5,14188 <_vfprintf_r+0x1a10>
   14170:	0d410613          	addi	a2,sp,212
   14174:	00090593          	addi	a1,s2,0
   14178:	00098513          	addi	a0,s3,0
   1417c:	161070ef          	jal	ra,1badc <__sprint_r>
   14180:	50051263          	bne	a0,zero,14684 <_vfprintf_r+0x1f0c>
   14184:	0fc10b93          	addi	s7,sp,252
   14188:	014484b3          	add	s1,s1,s4
   1418c:	415487b3          	sub	a5,s1,s5
   14190:	0bc12483          	lw	s1,188(sp)
   14194:	409a04b3          	sub	s1,s4,s1
   14198:	0097d463          	bge	a5,s1,141a0 <_vfprintf_r+0x1a28>
   1419c:	00078493          	addi	s1,a5,0
   141a0:	04905463          	bge	zero,s1,141e8 <_vfprintf_r+0x1a70>
   141a4:	0dc12783          	lw	a5,220(sp)
   141a8:	015ba023          	sw	s5,0(s7)
   141ac:	009ba223          	sw	s1,4(s7)
   141b0:	00f487b3          	add	a5,s1,a5
   141b4:	0cf12e23          	sw	a5,220(sp)
   141b8:	0d812783          	lw	a5,216(sp)
   141bc:	00700713          	addi	a4,zero,7
   141c0:	008b8b93          	addi	s7,s7,8
   141c4:	00178793          	addi	a5,a5,1
   141c8:	0cf12c23          	sw	a5,216(sp)
   141cc:	00f75e63          	bge	a4,a5,141e8 <_vfprintf_r+0x1a70>
   141d0:	0d410613          	addi	a2,sp,212
   141d4:	00090593          	addi	a1,s2,0
   141d8:	00098513          	addi	a0,s3,0
   141dc:	101070ef          	jal	ra,1badc <__sprint_r>
   141e0:	4a051263          	bne	a0,zero,14684 <_vfprintf_r+0x1f0c>
   141e4:	0fc10b93          	addi	s7,sp,252
   141e8:	00048793          	addi	a5,s1,0
   141ec:	0004d463          	bge	s1,zero,141f4 <_vfprintf_r+0x1a7c>
   141f0:	00000793          	addi	a5,zero,0
   141f4:	0bc12483          	lw	s1,188(sp)
   141f8:	409a04b3          	sub	s1,s4,s1
   141fc:	40f484b3          	sub	s1,s1,a5
   14200:	da905ee3          	bge	zero,s1,13fbc <_vfprintf_r+0x1844>
   14204:	01000a93          	addi	s5,zero,16
   14208:	00700b13          	addi	s6,zero,7
   1420c:	01412603          	lw	a2,20(sp)
   14210:	0d812783          	lw	a5,216(sp)
   14214:	0dc12703          	lw	a4,220(sp)
   14218:	00cba023          	sw	a2,0(s7)
   1421c:	00178793          	addi	a5,a5,1
   14220:	008b8693          	addi	a3,s7,8
   14224:	be9adce3          	bge	s5,s1,13e1c <_vfprintf_r+0x16a4>
   14228:	01070713          	addi	a4,a4,16
   1422c:	015ba223          	sw	s5,4(s7)
   14230:	0ce12e23          	sw	a4,220(sp)
   14234:	0cf12c23          	sw	a5,216(sp)
   14238:	00fb5e63          	bge	s6,a5,14254 <_vfprintf_r+0x1adc>
   1423c:	0d410613          	addi	a2,sp,212
   14240:	00090593          	addi	a1,s2,0
   14244:	00098513          	addi	a0,s3,0
   14248:	095070ef          	jal	ra,1badc <__sprint_r>
   1424c:	42051c63          	bne	a0,zero,14684 <_vfprintf_r+0x1f0c>
   14250:	0fc10693          	addi	a3,sp,252
   14254:	ff048493          	addi	s1,s1,-16
   14258:	00068b93          	addi	s7,a3,0
   1425c:	fb1ff06f          	jal	zero,1420c <_vfprintf_r+0x1a94>
   14260:	01068693          	addi	a3,a3,16
   14264:	016ba223          	sw	s6,4(s7)
   14268:	0cd12e23          	sw	a3,220(sp)
   1426c:	0ce12c23          	sw	a4,216(sp)
   14270:	00ed5e63          	bge	s10,a4,1428c <_vfprintf_r+0x1b14>
   14274:	0d410613          	addi	a2,sp,212
   14278:	00090593          	addi	a1,s2,0
   1427c:	00098513          	addi	a0,s3,0
   14280:	05d070ef          	jal	ra,1badc <__sprint_r>
   14284:	40051063          	bne	a0,zero,14684 <_vfprintf_r+0x1f0c>
   14288:	0fc10613          	addi	a2,sp,252
   1428c:	ff0a8a93          	addi	s5,s5,-16
   14290:	00060b93          	addi	s7,a2,0
   14294:	e1dff06f          	jal	zero,140b0 <_vfprintf_r+0x1938>
   14298:	0e0c8263          	beq	s9,zero,1437c <_vfprintf_r+0x1c04>
   1429c:	fffc8c93          	addi	s9,s9,-1
   142a0:	03812783          	lw	a5,56(sp)
   142a4:	03012703          	lw	a4,48(sp)
   142a8:	008b8b93          	addi	s7,s7,8
   142ac:	fefbac23          	sw	a5,-8(s7)
   142b0:	03012783          	lw	a5,48(sp)
   142b4:	fefbae23          	sw	a5,-4(s7)
   142b8:	0dc12783          	lw	a5,220(sp)
   142bc:	00e787b3          	add	a5,a5,a4
   142c0:	0cf12e23          	sw	a5,220(sp)
   142c4:	0d812783          	lw	a5,216(sp)
   142c8:	00178793          	addi	a5,a5,1
   142cc:	0cf12c23          	sw	a5,216(sp)
   142d0:	00fb5e63          	bge	s6,a5,142ec <_vfprintf_r+0x1b74>
   142d4:	0d410613          	addi	a2,sp,212
   142d8:	00090593          	addi	a1,s2,0
   142dc:	00098513          	addi	a0,s3,0
   142e0:	7fc070ef          	jal	ra,1badc <__sprint_r>
   142e4:	3a051063          	bne	a0,zero,14684 <_vfprintf_r+0x1f0c>
   142e8:	0fc10b93          	addi	s7,sp,252
   142ec:	01012783          	lw	a5,16(sp)
   142f0:	415d0733          	sub	a4,s10,s5
   142f4:	0007c783          	lbu	a5,0(a5)
   142f8:	00f75463          	bge	a4,a5,14300 <_vfprintf_r+0x1b88>
   142fc:	00070793          	addi	a5,a4,0
   14300:	04f05663          	bge	zero,a5,1434c <_vfprintf_r+0x1bd4>
   14304:	0dc12703          	lw	a4,220(sp)
   14308:	015ba023          	sw	s5,0(s7)
   1430c:	00fba223          	sw	a5,4(s7)
   14310:	00e78733          	add	a4,a5,a4
   14314:	0ce12e23          	sw	a4,220(sp)
   14318:	0d812703          	lw	a4,216(sp)
   1431c:	008b8b93          	addi	s7,s7,8
   14320:	00170713          	addi	a4,a4,1
   14324:	0ce12c23          	sw	a4,216(sp)
   14328:	02eb5263          	bge	s6,a4,1434c <_vfprintf_r+0x1bd4>
   1432c:	0d410613          	addi	a2,sp,212
   14330:	00090593          	addi	a1,s2,0
   14334:	00098513          	addi	a0,s3,0
   14338:	04f12223          	sw	a5,68(sp)
   1433c:	7a0070ef          	jal	ra,1badc <__sprint_r>
   14340:	34051263          	bne	a0,zero,14684 <_vfprintf_r+0x1f0c>
   14344:	04412783          	lw	a5,68(sp)
   14348:	0fc10b93          	addi	s7,sp,252
   1434c:	00078713          	addi	a4,a5,0
   14350:	0007d463          	bge	a5,zero,14358 <_vfprintf_r+0x1be0>
   14354:	00000713          	addi	a4,zero,0
   14358:	01012783          	lw	a5,16(sp)
   1435c:	01000813          	addi	a6,zero,16
   14360:	0007c783          	lbu	a5,0(a5)
   14364:	40e787b3          	sub	a5,a5,a4
   14368:	06f04463          	blt	zero,a5,143d0 <_vfprintf_r+0x1c58>
   1436c:	01012783          	lw	a5,16(sp)
   14370:	0007c783          	lbu	a5,0(a5)
   14374:	00fa8ab3          	add	s5,s5,a5
   14378:	d9dff06f          	jal	zero,14114 <_vfprintf_r+0x199c>
   1437c:	01012783          	lw	a5,16(sp)
   14380:	fffc0c13          	addi	s8,s8,-1
   14384:	fff78793          	addi	a5,a5,-1
   14388:	00f12823          	sw	a5,16(sp)
   1438c:	f15ff06f          	jal	zero,142a0 <_vfprintf_r+0x1b28>
   14390:	01068693          	addi	a3,a3,16
   14394:	010ba223          	sw	a6,4(s7)
   14398:	0cd12e23          	sw	a3,220(sp)
   1439c:	0ce12c23          	sw	a4,216(sp)
   143a0:	02eb5463          	bge	s6,a4,143c8 <_vfprintf_r+0x1c50>
   143a4:	0d410613          	addi	a2,sp,212
   143a8:	00090593          	addi	a1,s2,0
   143ac:	00098513          	addi	a0,s3,0
   143b0:	04f12223          	sw	a5,68(sp)
   143b4:	728070ef          	jal	ra,1badc <__sprint_r>
   143b8:	2c051663          	bne	a0,zero,14684 <_vfprintf_r+0x1f0c>
   143bc:	04412783          	lw	a5,68(sp)
   143c0:	0fc10613          	addi	a2,sp,252
   143c4:	01000813          	addi	a6,zero,16
   143c8:	ff078793          	addi	a5,a5,-16
   143cc:	00060b93          	addi	s7,a2,0
   143d0:	01412583          	lw	a1,20(sp)
   143d4:	0d812703          	lw	a4,216(sp)
   143d8:	0dc12683          	lw	a3,220(sp)
   143dc:	00bba023          	sw	a1,0(s7)
   143e0:	00170713          	addi	a4,a4,1
   143e4:	008b8613          	addi	a2,s7,8
   143e8:	faf844e3          	blt	a6,a5,14390 <_vfprintf_r+0x1c18>
   143ec:	00fba223          	sw	a5,4(s7)
   143f0:	00d787b3          	add	a5,a5,a3
   143f4:	0cf12e23          	sw	a5,220(sp)
   143f8:	0ce12c23          	sw	a4,216(sp)
   143fc:	00060b93          	addi	s7,a2,0
   14400:	f6eb56e3          	bge	s6,a4,1436c <_vfprintf_r+0x1bf4>
   14404:	0d410613          	addi	a2,sp,212
   14408:	00090593          	addi	a1,s2,0
   1440c:	00098513          	addi	a0,s3,0
   14410:	6cc070ef          	jal	ra,1badc <__sprint_r>
   14414:	26051863          	bne	a0,zero,14684 <_vfprintf_r+0x1f0c>
   14418:	0fc10b93          	addi	s7,sp,252
   1441c:	f51ff06f          	jal	zero,1436c <_vfprintf_r+0x1bf4>
   14420:	0d812783          	lw	a5,216(sp)
   14424:	00100693          	addi	a3,zero,1
   14428:	009ba023          	sw	s1,0(s7)
   1442c:	00170713          	addi	a4,a4,1
   14430:	00178793          	addi	a5,a5,1
   14434:	008b8a93          	addi	s5,s7,8
   14438:	0146c663          	blt	a3,s4,14444 <_vfprintf_r+0x1ccc>
   1443c:	00147613          	andi	a2,s0,1
   14440:	1c060663          	beq	a2,zero,1460c <_vfprintf_r+0x1e94>
   14444:	00100693          	addi	a3,zero,1
   14448:	0ce12e23          	sw	a4,220(sp)
   1444c:	00dba223          	sw	a3,4(s7)
   14450:	0cf12c23          	sw	a5,216(sp)
   14454:	00700713          	addi	a4,zero,7
   14458:	00f75e63          	bge	a4,a5,14474 <_vfprintf_r+0x1cfc>
   1445c:	0d410613          	addi	a2,sp,212
   14460:	00090593          	addi	a1,s2,0
   14464:	00098513          	addi	a0,s3,0
   14468:	674070ef          	jal	ra,1badc <__sprint_r>
   1446c:	20051c63          	bne	a0,zero,14684 <_vfprintf_r+0x1f0c>
   14470:	0fc10a93          	addi	s5,sp,252
   14474:	03412783          	lw	a5,52(sp)
   14478:	02012703          	lw	a4,32(sp)
   1447c:	008a8a93          	addi	s5,s5,8
   14480:	fefaac23          	sw	a5,-8(s5)
   14484:	02012783          	lw	a5,32(sp)
   14488:	fefaae23          	sw	a5,-4(s5)
   1448c:	0dc12783          	lw	a5,220(sp)
   14490:	00e787b3          	add	a5,a5,a4
   14494:	0cf12e23          	sw	a5,220(sp)
   14498:	0d812783          	lw	a5,216(sp)
   1449c:	00700713          	addi	a4,zero,7
   144a0:	00178793          	addi	a5,a5,1
   144a4:	0cf12c23          	sw	a5,216(sp)
   144a8:	00f75e63          	bge	a4,a5,144c4 <_vfprintf_r+0x1d4c>
   144ac:	0d410613          	addi	a2,sp,212
   144b0:	00090593          	addi	a1,s2,0
   144b4:	00098513          	addi	a0,s3,0
   144b8:	624070ef          	jal	ra,1badc <__sprint_r>
   144bc:	1c051463          	bne	a0,zero,14684 <_vfprintf_r+0x1f0c>
   144c0:	0fc10a93          	addi	s5,sp,252
   144c4:	0e012783          	lw	a5,224(sp)
   144c8:	09010593          	addi	a1,sp,144
   144cc:	0a010513          	addi	a0,sp,160
   144d0:	0af12023          	sw	a5,160(sp)
   144d4:	0e412783          	lw	a5,228(sp)
   144d8:	fffa0b13          	addi	s6,s4,-1
   144dc:	08012823          	sw	zero,144(sp)
   144e0:	0af12223          	sw	a5,164(sp)
   144e4:	0e812783          	lw	a5,232(sp)
   144e8:	08012a23          	sw	zero,148(sp)
   144ec:	08012c23          	sw	zero,152(sp)
   144f0:	0af12423          	sw	a5,168(sp)
   144f4:	0ec12783          	lw	a5,236(sp)
   144f8:	08012e23          	sw	zero,156(sp)
   144fc:	0af12623          	sw	a5,172(sp)
   14500:	5c00b0ef          	jal	ra,1fac0 <__eqtf2>
   14504:	08050663          	beq	a0,zero,14590 <_vfprintf_r+0x1e18>
   14508:	0dc12783          	lw	a5,220(sp)
   1450c:	0d812703          	lw	a4,216(sp)
   14510:	00148493          	addi	s1,s1,1
   14514:	fff78793          	addi	a5,a5,-1
   14518:	014787b3          	add	a5,a5,s4
   1451c:	00170713          	addi	a4,a4,1
   14520:	009aa023          	sw	s1,0(s5)
   14524:	016aa223          	sw	s6,4(s5)
   14528:	0cf12e23          	sw	a5,220(sp)
   1452c:	0ce12c23          	sw	a4,216(sp)
   14530:	00700793          	addi	a5,zero,7
   14534:	008a8a93          	addi	s5,s5,8
   14538:	00e7de63          	bge	a5,a4,14554 <_vfprintf_r+0x1ddc>
   1453c:	0d410613          	addi	a2,sp,212
   14540:	00090593          	addi	a1,s2,0
   14544:	00098513          	addi	a0,s3,0
   14548:	594070ef          	jal	ra,1badc <__sprint_r>
   1454c:	12051c63          	bne	a0,zero,14684 <_vfprintf_r+0x1f0c>
   14550:	0fc10a93          	addi	s5,sp,252
   14554:	0c410793          	addi	a5,sp,196
   14558:	00faa023          	sw	a5,0(s5)
   1455c:	03c12783          	lw	a5,60(sp)
   14560:	03c12703          	lw	a4,60(sp)
   14564:	008a8b93          	addi	s7,s5,8
   14568:	00faa223          	sw	a5,4(s5)
   1456c:	0dc12783          	lw	a5,220(sp)
   14570:	00e787b3          	add	a5,a5,a4
   14574:	0cf12e23          	sw	a5,220(sp)
   14578:	0d812783          	lw	a5,216(sp)
   1457c:	00700713          	addi	a4,zero,7
   14580:	00178793          	addi	a5,a5,1
   14584:	0cf12c23          	sw	a5,216(sp)
   14588:	a2f75ae3          	bge	a4,a5,13fbc <_vfprintf_r+0x1844>
   1458c:	8adfe06f          	jal	zero,12e38 <_vfprintf_r+0x6c0>
   14590:	fd6052e3          	bge	zero,s6,14554 <_vfprintf_r+0x1ddc>
   14594:	01000493          	addi	s1,zero,16
   14598:	00700c13          	addi	s8,zero,7
   1459c:	01412603          	lw	a2,20(sp)
   145a0:	0d812703          	lw	a4,216(sp)
   145a4:	0dc12783          	lw	a5,220(sp)
   145a8:	00caa023          	sw	a2,0(s5)
   145ac:	00170713          	addi	a4,a4,1
   145b0:	008a8693          	addi	a3,s5,8
   145b4:	0364c063          	blt	s1,s6,145d4 <_vfprintf_r+0x1e5c>
   145b8:	00fb07b3          	add	a5,s6,a5
   145bc:	016aa223          	sw	s6,4(s5)
   145c0:	0cf12e23          	sw	a5,220(sp)
   145c4:	0ce12c23          	sw	a4,216(sp)
   145c8:	00700793          	addi	a5,zero,7
   145cc:	00068a93          	addi	s5,a3,0
   145d0:	f69ff06f          	jal	zero,14538 <_vfprintf_r+0x1dc0>
   145d4:	01078793          	addi	a5,a5,16
   145d8:	009aa223          	sw	s1,4(s5)
   145dc:	0cf12e23          	sw	a5,220(sp)
   145e0:	0ce12c23          	sw	a4,216(sp)
   145e4:	00ec5e63          	bge	s8,a4,14600 <_vfprintf_r+0x1e88>
   145e8:	0d410613          	addi	a2,sp,212
   145ec:	00090593          	addi	a1,s2,0
   145f0:	00098513          	addi	a0,s3,0
   145f4:	4e8070ef          	jal	ra,1badc <__sprint_r>
   145f8:	08051663          	bne	a0,zero,14684 <_vfprintf_r+0x1f0c>
   145fc:	0fc10693          	addi	a3,sp,252
   14600:	ff0b0b13          	addi	s6,s6,-16
   14604:	00068a93          	addi	s5,a3,0
   14608:	f95ff06f          	jal	zero,1459c <_vfprintf_r+0x1e24>
   1460c:	0ce12e23          	sw	a4,220(sp)
   14610:	00dba223          	sw	a3,4(s7)
   14614:	0cf12c23          	sw	a5,216(sp)
   14618:	00700713          	addi	a4,zero,7
   1461c:	f2f75ce3          	bge	a4,a5,14554 <_vfprintf_r+0x1ddc>
   14620:	f1dff06f          	jal	zero,1453c <_vfprintf_r+0x1dc4>
   14624:	02812783          	lw	a5,40(sp)
   14628:	02c12703          	lw	a4,44(sp)
   1462c:	40e78433          	sub	s0,a5,a4
   14630:	98805ae3          	bge	zero,s0,13fc4 <_vfprintf_r+0x184c>
   14634:	000237b7          	lui	a5,0x23
   14638:	01000a93          	addi	s5,zero,16
   1463c:	5a878493          	addi	s1,a5,1448 # 235a8 <blanks.4513>
   14640:	00700b13          	addi	s6,zero,7
   14644:	0d812783          	lw	a5,216(sp)
   14648:	009ba023          	sw	s1,0(s7)
   1464c:	0dc12703          	lw	a4,220(sp)
   14650:	00178793          	addi	a5,a5,1
   14654:	048ac663          	blt	s5,s0,146a0 <_vfprintf_r+0x1f28>
   14658:	008ba223          	sw	s0,4(s7)
   1465c:	00e40433          	add	s0,s0,a4
   14660:	0c812e23          	sw	s0,220(sp)
   14664:	0cf12c23          	sw	a5,216(sp)
   14668:	00700713          	addi	a4,zero,7
   1466c:	94f75ce3          	bge	a4,a5,13fc4 <_vfprintf_r+0x184c>
   14670:	0d410613          	addi	a2,sp,212
   14674:	00090593          	addi	a1,s2,0
   14678:	00098513          	addi	a0,s3,0
   1467c:	460070ef          	jal	ra,1badc <__sprint_r>
   14680:	940502e3          	beq	a0,zero,13fc4 <_vfprintf_r+0x184c>
   14684:	00c12783          	lw	a5,12(sp)
   14688:	00079463          	bne	a5,zero,14690 <_vfprintf_r+0x1f18>
   1468c:	a11fe06f          	jal	zero,1309c <_vfprintf_r+0x924>
   14690:	00078593          	addi	a1,a5,0
   14694:	00098513          	addi	a0,s3,0
   14698:	221000ef          	jal	ra,150b8 <_free_r>
   1469c:	a01fe06f          	jal	zero,1309c <_vfprintf_r+0x924>
   146a0:	01070713          	addi	a4,a4,16
   146a4:	015ba223          	sw	s5,4(s7)
   146a8:	0ce12e23          	sw	a4,220(sp)
   146ac:	0cf12c23          	sw	a5,216(sp)
   146b0:	008b8b93          	addi	s7,s7,8
   146b4:	00fb5e63          	bge	s6,a5,146d0 <_vfprintf_r+0x1f58>
   146b8:	0d410613          	addi	a2,sp,212
   146bc:	00090593          	addi	a1,s2,0
   146c0:	00098513          	addi	a0,s3,0
   146c4:	418070ef          	jal	ra,1badc <__sprint_r>
   146c8:	fa051ee3          	bne	a0,zero,14684 <_vfprintf_r+0x1f0c>
   146cc:	0fc10b93          	addi	s7,sp,252
   146d0:	ff040413          	addi	s0,s0,-16
   146d4:	f71ff06f          	jal	zero,14644 <_vfprintf_r+0x1ecc>
   146d8:	00c12583          	lw	a1,12(sp)
   146dc:	00098513          	addi	a0,s3,0
   146e0:	1d9000ef          	jal	ra,150b8 <_free_r>
   146e4:	925ff06f          	jal	zero,14008 <_vfprintf_r+0x1890>
   146e8:	0dc12783          	lw	a5,220(sp)
   146ec:	00079463          	bne	a5,zero,146f4 <_vfprintf_r+0x1f7c>
   146f0:	9adfe06f          	jal	zero,1309c <_vfprintf_r+0x924>
   146f4:	0d410613          	addi	a2,sp,212
   146f8:	00090593          	addi	a1,s2,0
   146fc:	00098513          	addi	a0,s3,0
   14700:	3dc070ef          	jal	ra,1badc <__sprint_r>
   14704:	999fe06f          	jal	zero,1309c <_vfprintf_r+0x924>
   14708:	fff00793          	addi	a5,zero,-1
   1470c:	b4fd1a63          	bne	s10,a5,13a60 <_vfprintf_r+0x12e8>
   14710:	bc0d9c63          	bne	s11,zero,13ae8 <_vfprintf_r+0x1370>
   14714:	00900793          	addi	a5,zero,9
   14718:	bd97e863          	bltu	a5,s9,13ae8 <_vfprintf_r+0x1370>
   1471c:	030c8c93          	addi	s9,s9,48
   14720:	19910fa3          	sb	s9,415(sp)
   14724:	19f10493          	addi	s1,sp,415
   14728:	b98ff06f          	jal	zero,13ac0 <_vfprintf_r+0x1348>

0001472c <vfprintf>:
   1472c:	00060693          	addi	a3,a2,0
   14730:	00058613          	addi	a2,a1,0
   14734:	00050593          	addi	a1,a0,0
   14738:	1c01a503          	lw	a0,448(gp) # 25b90 <_impure_ptr>
   1473c:	83cfe06f          	jal	zero,12778 <_vfprintf_r>

00014740 <__sbprintf>:
   14740:	00c5d783          	lhu	a5,12(a1)
   14744:	b8010113          	addi	sp,sp,-1152
   14748:	46812c23          	sw	s0,1144(sp)
   1474c:	ffd7f793          	andi	a5,a5,-3
   14750:	00f11a23          	sh	a5,20(sp)
   14754:	0645a783          	lw	a5,100(a1)
   14758:	00058413          	addi	s0,a1,0
   1475c:	46912a23          	sw	s1,1140(sp)
   14760:	06f12623          	sw	a5,108(sp)
   14764:	00e5d783          	lhu	a5,14(a1)
   14768:	47212823          	sw	s2,1136(sp)
   1476c:	46112e23          	sw	ra,1148(sp)
   14770:	00f11b23          	sh	a5,22(sp)
   14774:	01c5a783          	lw	a5,28(a1)
   14778:	00050913          	addi	s2,a0,0
   1477c:	02012023          	sw	zero,32(sp)
   14780:	02f12223          	sw	a5,36(sp)
   14784:	0245a783          	lw	a5,36(a1)
   14788:	00810593          	addi	a1,sp,8
   1478c:	02f12623          	sw	a5,44(sp)
   14790:	07010793          	addi	a5,sp,112
   14794:	00f12423          	sw	a5,8(sp)
   14798:	00f12c23          	sw	a5,24(sp)
   1479c:	40000793          	addi	a5,zero,1024
   147a0:	00f12823          	sw	a5,16(sp)
   147a4:	00f12e23          	sw	a5,28(sp)
   147a8:	fd1fd0ef          	jal	ra,12778 <_vfprintf_r>
   147ac:	00050493          	addi	s1,a0,0
   147b0:	00054c63          	blt	a0,zero,147c8 <__sbprintf+0x88>
   147b4:	00810593          	addi	a1,sp,8
   147b8:	00090513          	addi	a0,s2,0
   147bc:	4bc000ef          	jal	ra,14c78 <_fflush_r>
   147c0:	00050463          	beq	a0,zero,147c8 <__sbprintf+0x88>
   147c4:	fff00493          	addi	s1,zero,-1
   147c8:	01415783          	lhu	a5,20(sp)
   147cc:	0407f793          	andi	a5,a5,64
   147d0:	00078863          	beq	a5,zero,147e0 <__sbprintf+0xa0>
   147d4:	00c45783          	lhu	a5,12(s0)
   147d8:	0407e793          	ori	a5,a5,64
   147dc:	00f41623          	sh	a5,12(s0)
   147e0:	47c12083          	lw	ra,1148(sp)
   147e4:	47812403          	lw	s0,1144(sp)
   147e8:	00048513          	addi	a0,s1,0
   147ec:	47012903          	lw	s2,1136(sp)
   147f0:	47412483          	lw	s1,1140(sp)
   147f4:	48010113          	addi	sp,sp,1152
   147f8:	00008067          	jalr	zero,0(ra)

000147fc <__swbuf_r>:
   147fc:	fe010113          	addi	sp,sp,-32
   14800:	00812c23          	sw	s0,24(sp)
   14804:	00912a23          	sw	s1,20(sp)
   14808:	01212823          	sw	s2,16(sp)
   1480c:	00112e23          	sw	ra,28(sp)
   14810:	01312623          	sw	s3,12(sp)
   14814:	00050913          	addi	s2,a0,0
   14818:	00058493          	addi	s1,a1,0
   1481c:	00060413          	addi	s0,a2,0
   14820:	00050863          	beq	a0,zero,14830 <__swbuf_r+0x34>
   14824:	03852783          	lw	a5,56(a0)
   14828:	00079463          	bne	a5,zero,14830 <__swbuf_r+0x34>
   1482c:	5e8000ef          	jal	ra,14e14 <__sinit>
   14830:	01842783          	lw	a5,24(s0)
   14834:	00f42423          	sw	a5,8(s0)
   14838:	00c45783          	lhu	a5,12(s0)
   1483c:	0087f793          	andi	a5,a5,8
   14840:	0a078863          	beq	a5,zero,148f0 <__swbuf_r+0xf4>
   14844:	01042783          	lw	a5,16(s0)
   14848:	0a078463          	beq	a5,zero,148f0 <__swbuf_r+0xf4>
   1484c:	00c41783          	lh	a5,12(s0)
   14850:	0ff4f993          	andi	s3,s1,255
   14854:	0ff4f493          	andi	s1,s1,255
   14858:	01279713          	slli	a4,a5,0x12
   1485c:	0a075663          	bge	a4,zero,14908 <__swbuf_r+0x10c>
   14860:	01042783          	lw	a5,16(s0)
   14864:	00042503          	lw	a0,0(s0)
   14868:	40f50533          	sub	a0,a0,a5
   1486c:	01442783          	lw	a5,20(s0)
   14870:	00f54a63          	blt	a0,a5,14884 <__swbuf_r+0x88>
   14874:	00040593          	addi	a1,s0,0
   14878:	00090513          	addi	a0,s2,0
   1487c:	3fc000ef          	jal	ra,14c78 <_fflush_r>
   14880:	08051063          	bne	a0,zero,14900 <__swbuf_r+0x104>
   14884:	00842783          	lw	a5,8(s0)
   14888:	00150513          	addi	a0,a0,1
   1488c:	fff78793          	addi	a5,a5,-1
   14890:	00f42423          	sw	a5,8(s0)
   14894:	00042783          	lw	a5,0(s0)
   14898:	00178713          	addi	a4,a5,1
   1489c:	00e42023          	sw	a4,0(s0)
   148a0:	01378023          	sb	s3,0(a5)
   148a4:	01442783          	lw	a5,20(s0)
   148a8:	00a78c63          	beq	a5,a0,148c0 <__swbuf_r+0xc4>
   148ac:	00c45783          	lhu	a5,12(s0)
   148b0:	0017f793          	andi	a5,a5,1
   148b4:	00078e63          	beq	a5,zero,148d0 <__swbuf_r+0xd4>
   148b8:	00a00793          	addi	a5,zero,10
   148bc:	00f49a63          	bne	s1,a5,148d0 <__swbuf_r+0xd4>
   148c0:	00040593          	addi	a1,s0,0
   148c4:	00090513          	addi	a0,s2,0
   148c8:	3b0000ef          	jal	ra,14c78 <_fflush_r>
   148cc:	02051a63          	bne	a0,zero,14900 <__swbuf_r+0x104>
   148d0:	01c12083          	lw	ra,28(sp)
   148d4:	01812403          	lw	s0,24(sp)
   148d8:	00048513          	addi	a0,s1,0
   148dc:	01012903          	lw	s2,16(sp)
   148e0:	01412483          	lw	s1,20(sp)
   148e4:	00c12983          	lw	s3,12(sp)
   148e8:	02010113          	addi	sp,sp,32
   148ec:	00008067          	jalr	zero,0(ra)
   148f0:	00040593          	addi	a1,s0,0
   148f4:	00090513          	addi	a0,s2,0
   148f8:	044000ef          	jal	ra,1493c <__swsetup_r>
   148fc:	f40508e3          	beq	a0,zero,1484c <__swbuf_r+0x50>
   14900:	fff00493          	addi	s1,zero,-1
   14904:	fcdff06f          	jal	zero,148d0 <__swbuf_r+0xd4>
   14908:	00002737          	lui	a4,0x2
   1490c:	00e7e7b3          	or	a5,a5,a4
   14910:	00f41623          	sh	a5,12(s0)
   14914:	06442783          	lw	a5,100(s0)
   14918:	ffffe737          	lui	a4,0xffffe
   1491c:	fff70713          	addi	a4,a4,-1 # ffffdfff <__BSS_END__+0xfffd8407>
   14920:	00e7f7b3          	and	a5,a5,a4
   14924:	06f42223          	sw	a5,100(s0)
   14928:	f39ff06f          	jal	zero,14860 <__swbuf_r+0x64>

0001492c <__swbuf>:
   1492c:	00058613          	addi	a2,a1,0
   14930:	00050593          	addi	a1,a0,0
   14934:	1c01a503          	lw	a0,448(gp) # 25b90 <_impure_ptr>
   14938:	ec5ff06f          	jal	zero,147fc <__swbuf_r>

0001493c <__swsetup_r>:
   1493c:	ff010113          	addi	sp,sp,-16
   14940:	00912223          	sw	s1,4(sp)
   14944:	00050493          	addi	s1,a0,0
   14948:	1c01a503          	lw	a0,448(gp) # 25b90 <_impure_ptr>
   1494c:	00812423          	sw	s0,8(sp)
   14950:	00112623          	sw	ra,12(sp)
   14954:	00058413          	addi	s0,a1,0
   14958:	00050863          	beq	a0,zero,14968 <__swsetup_r+0x2c>
   1495c:	03852783          	lw	a5,56(a0)
   14960:	00079463          	bne	a5,zero,14968 <__swsetup_r+0x2c>
   14964:	4b0000ef          	jal	ra,14e14 <__sinit>
   14968:	00c41703          	lh	a4,12(s0)
   1496c:	01071793          	slli	a5,a4,0x10
   14970:	0107d793          	srli	a5,a5,0x10
   14974:	0087f693          	andi	a3,a5,8
   14978:	06069e63          	bne	a3,zero,149f4 <__swsetup_r+0xb8>
   1497c:	0107f693          	andi	a3,a5,16
   14980:	02069663          	bne	a3,zero,149ac <__swsetup_r+0x70>
   14984:	00900793          	addi	a5,zero,9
   14988:	00f4a023          	sw	a5,0(s1)
   1498c:	04076713          	ori	a4,a4,64
   14990:	00e41623          	sh	a4,12(s0)
   14994:	fff00513          	addi	a0,zero,-1
   14998:	00c12083          	lw	ra,12(sp)
   1499c:	00812403          	lw	s0,8(sp)
   149a0:	00412483          	lw	s1,4(sp)
   149a4:	01010113          	addi	sp,sp,16
   149a8:	00008067          	jalr	zero,0(ra)
   149ac:	0047f793          	andi	a5,a5,4
   149b0:	02078c63          	beq	a5,zero,149e8 <__swsetup_r+0xac>
   149b4:	03042583          	lw	a1,48(s0)
   149b8:	00058c63          	beq	a1,zero,149d0 <__swsetup_r+0x94>
   149bc:	04040793          	addi	a5,s0,64
   149c0:	00f58663          	beq	a1,a5,149cc <__swsetup_r+0x90>
   149c4:	00048513          	addi	a0,s1,0
   149c8:	6f0000ef          	jal	ra,150b8 <_free_r>
   149cc:	02042823          	sw	zero,48(s0)
   149d0:	00c45783          	lhu	a5,12(s0)
   149d4:	00042223          	sw	zero,4(s0)
   149d8:	fdb7f793          	andi	a5,a5,-37
   149dc:	00f41623          	sh	a5,12(s0)
   149e0:	01042783          	lw	a5,16(s0)
   149e4:	00f42023          	sw	a5,0(s0)
   149e8:	00c45783          	lhu	a5,12(s0)
   149ec:	0087e793          	ori	a5,a5,8
   149f0:	00f41623          	sh	a5,12(s0)
   149f4:	01042783          	lw	a5,16(s0)
   149f8:	02079063          	bne	a5,zero,14a18 <__swsetup_r+0xdc>
   149fc:	00c45783          	lhu	a5,12(s0)
   14a00:	20000713          	addi	a4,zero,512
   14a04:	2807f793          	andi	a5,a5,640
   14a08:	00e78863          	beq	a5,a4,14a18 <__swsetup_r+0xdc>
   14a0c:	00040593          	addi	a1,s0,0
   14a10:	00048513          	addi	a0,s1,0
   14a14:	7d9020ef          	jal	ra,179ec <__smakebuf_r>
   14a18:	00c45783          	lhu	a5,12(s0)
   14a1c:	0017f713          	andi	a4,a5,1
   14a20:	02070c63          	beq	a4,zero,14a58 <__swsetup_r+0x11c>
   14a24:	01442783          	lw	a5,20(s0)
   14a28:	00042423          	sw	zero,8(s0)
   14a2c:	40f007b3          	sub	a5,zero,a5
   14a30:	00f42c23          	sw	a5,24(s0)
   14a34:	01042783          	lw	a5,16(s0)
   14a38:	00000513          	addi	a0,zero,0
   14a3c:	f4079ee3          	bne	a5,zero,14998 <__swsetup_r+0x5c>
   14a40:	00c41783          	lh	a5,12(s0)
   14a44:	0807f713          	andi	a4,a5,128
   14a48:	f40708e3          	beq	a4,zero,14998 <__swsetup_r+0x5c>
   14a4c:	0407e793          	ori	a5,a5,64
   14a50:	00f41623          	sh	a5,12(s0)
   14a54:	f41ff06f          	jal	zero,14994 <__swsetup_r+0x58>
   14a58:	0027f793          	andi	a5,a5,2
   14a5c:	00000713          	addi	a4,zero,0
   14a60:	00079463          	bne	a5,zero,14a68 <__swsetup_r+0x12c>
   14a64:	01442703          	lw	a4,20(s0)
   14a68:	00e42423          	sw	a4,8(s0)
   14a6c:	fc9ff06f          	jal	zero,14a34 <__swsetup_r+0xf8>

00014a70 <__sflush_r>:
   14a70:	00c59783          	lh	a5,12(a1)
   14a74:	fe010113          	addi	sp,sp,-32
   14a78:	00812c23          	sw	s0,24(sp)
   14a7c:	01079713          	slli	a4,a5,0x10
   14a80:	01075713          	srli	a4,a4,0x10
   14a84:	00912a23          	sw	s1,20(sp)
   14a88:	00112e23          	sw	ra,28(sp)
   14a8c:	01212823          	sw	s2,16(sp)
   14a90:	01312623          	sw	s3,12(sp)
   14a94:	00877693          	andi	a3,a4,8
   14a98:	00050493          	addi	s1,a0,0
   14a9c:	00058413          	addi	s0,a1,0
   14aa0:	16069c63          	bne	a3,zero,14c18 <__sflush_r+0x1a8>
   14aa4:	00001737          	lui	a4,0x1
   14aa8:	80070713          	addi	a4,a4,-2048 # 800 <main-0xf874>
   14aac:	00e7e7b3          	or	a5,a5,a4
   14ab0:	0045a703          	lw	a4,4(a1)
   14ab4:	00f59623          	sh	a5,12(a1)
   14ab8:	02e04663          	blt	zero,a4,14ae4 <__sflush_r+0x74>
   14abc:	03c5a703          	lw	a4,60(a1)
   14ac0:	02e04263          	blt	zero,a4,14ae4 <__sflush_r+0x74>
   14ac4:	00000513          	addi	a0,zero,0
   14ac8:	01c12083          	lw	ra,28(sp)
   14acc:	01812403          	lw	s0,24(sp)
   14ad0:	01412483          	lw	s1,20(sp)
   14ad4:	01012903          	lw	s2,16(sp)
   14ad8:	00c12983          	lw	s3,12(sp)
   14adc:	02010113          	addi	sp,sp,32
   14ae0:	00008067          	jalr	zero,0(ra)
   14ae4:	02842703          	lw	a4,40(s0)
   14ae8:	fc070ee3          	beq	a4,zero,14ac4 <__sflush_r+0x54>
   14aec:	0004a903          	lw	s2,0(s1)
   14af0:	01379693          	slli	a3,a5,0x13
   14af4:	0004a023          	sw	zero,0(s1)
   14af8:	0c06d863          	bge	a3,zero,14bc8 <__sflush_r+0x158>
   14afc:	05042603          	lw	a2,80(s0)
   14b00:	00c45783          	lhu	a5,12(s0)
   14b04:	0047f793          	andi	a5,a5,4
   14b08:	00078e63          	beq	a5,zero,14b24 <__sflush_r+0xb4>
   14b0c:	00442783          	lw	a5,4(s0)
   14b10:	40f60633          	sub	a2,a2,a5
   14b14:	03042783          	lw	a5,48(s0)
   14b18:	00078663          	beq	a5,zero,14b24 <__sflush_r+0xb4>
   14b1c:	03c42783          	lw	a5,60(s0)
   14b20:	40f60633          	sub	a2,a2,a5
   14b24:	02842783          	lw	a5,40(s0)
   14b28:	01c42583          	lw	a1,28(s0)
   14b2c:	00000693          	addi	a3,zero,0
   14b30:	00048513          	addi	a0,s1,0
   14b34:	000780e7          	jalr	ra,0(a5)
   14b38:	fff00793          	addi	a5,zero,-1
   14b3c:	00c45683          	lhu	a3,12(s0)
   14b40:	02f51263          	bne	a0,a5,14b64 <__sflush_r+0xf4>
   14b44:	0004a783          	lw	a5,0(s1)
   14b48:	01d00713          	addi	a4,zero,29
   14b4c:	0af76e63          	bltu	a4,a5,14c08 <__sflush_r+0x198>
   14b50:	20400737          	lui	a4,0x20400
   14b54:	00170713          	addi	a4,a4,1 # 20400001 <__BSS_END__+0x203da409>
   14b58:	00f75733          	srl	a4,a4,a5
   14b5c:	00177713          	andi	a4,a4,1
   14b60:	0a070463          	beq	a4,zero,14c08 <__sflush_r+0x198>
   14b64:	fffff7b7          	lui	a5,0xfffff
   14b68:	7ff78793          	addi	a5,a5,2047 # fffff7ff <__BSS_END__+0xfffd9c07>
   14b6c:	01042703          	lw	a4,16(s0)
   14b70:	00d7f7b3          	and	a5,a5,a3
   14b74:	01079793          	slli	a5,a5,0x10
   14b78:	4107d793          	srai	a5,a5,0x10
   14b7c:	00e42023          	sw	a4,0(s0)
   14b80:	00f41623          	sh	a5,12(s0)
   14b84:	00042223          	sw	zero,4(s0)
   14b88:	01379713          	slli	a4,a5,0x13
   14b8c:	00075c63          	bge	a4,zero,14ba4 <__sflush_r+0x134>
   14b90:	fff00793          	addi	a5,zero,-1
   14b94:	00f51663          	bne	a0,a5,14ba0 <__sflush_r+0x130>
   14b98:	0004a783          	lw	a5,0(s1)
   14b9c:	00079463          	bne	a5,zero,14ba4 <__sflush_r+0x134>
   14ba0:	04a42823          	sw	a0,80(s0)
   14ba4:	03042583          	lw	a1,48(s0)
   14ba8:	0124a023          	sw	s2,0(s1)
   14bac:	f0058ce3          	beq	a1,zero,14ac4 <__sflush_r+0x54>
   14bb0:	04040793          	addi	a5,s0,64
   14bb4:	00f58663          	beq	a1,a5,14bc0 <__sflush_r+0x150>
   14bb8:	00048513          	addi	a0,s1,0
   14bbc:	4fc000ef          	jal	ra,150b8 <_free_r>
   14bc0:	02042823          	sw	zero,48(s0)
   14bc4:	f01ff06f          	jal	zero,14ac4 <__sflush_r+0x54>
   14bc8:	01c42583          	lw	a1,28(s0)
   14bcc:	00000613          	addi	a2,zero,0
   14bd0:	00100693          	addi	a3,zero,1
   14bd4:	00048513          	addi	a0,s1,0
   14bd8:	000700e7          	jalr	ra,0(a4)
   14bdc:	fff00793          	addi	a5,zero,-1
   14be0:	00050613          	addi	a2,a0,0
   14be4:	f0f51ee3          	bne	a0,a5,14b00 <__sflush_r+0x90>
   14be8:	0004a783          	lw	a5,0(s1)
   14bec:	f0078ae3          	beq	a5,zero,14b00 <__sflush_r+0x90>
   14bf0:	01d00713          	addi	a4,zero,29
   14bf4:	00e78663          	beq	a5,a4,14c00 <__sflush_r+0x190>
   14bf8:	01600713          	addi	a4,zero,22
   14bfc:	06e79263          	bne	a5,a4,14c60 <__sflush_r+0x1f0>
   14c00:	0124a023          	sw	s2,0(s1)
   14c04:	ec1ff06f          	jal	zero,14ac4 <__sflush_r+0x54>
   14c08:	0406e793          	ori	a5,a3,64
   14c0c:	00f41623          	sh	a5,12(s0)
   14c10:	fff00513          	addi	a0,zero,-1
   14c14:	eb5ff06f          	jal	zero,14ac8 <__sflush_r+0x58>
   14c18:	0105a983          	lw	s3,16(a1)
   14c1c:	ea0984e3          	beq	s3,zero,14ac4 <__sflush_r+0x54>
   14c20:	0005a903          	lw	s2,0(a1)
   14c24:	00377713          	andi	a4,a4,3
   14c28:	0135a023          	sw	s3,0(a1)
   14c2c:	41390933          	sub	s2,s2,s3
   14c30:	00000793          	addi	a5,zero,0
   14c34:	00071463          	bne	a4,zero,14c3c <__sflush_r+0x1cc>
   14c38:	0145a783          	lw	a5,20(a1)
   14c3c:	00f42423          	sw	a5,8(s0)
   14c40:	e92052e3          	bge	zero,s2,14ac4 <__sflush_r+0x54>
   14c44:	02442783          	lw	a5,36(s0)
   14c48:	01c42583          	lw	a1,28(s0)
   14c4c:	00090693          	addi	a3,s2,0
   14c50:	00098613          	addi	a2,s3,0
   14c54:	00048513          	addi	a0,s1,0
   14c58:	000780e7          	jalr	ra,0(a5)
   14c5c:	00a04863          	blt	zero,a0,14c6c <__sflush_r+0x1fc>
   14c60:	00c45783          	lhu	a5,12(s0)
   14c64:	0407e793          	ori	a5,a5,64
   14c68:	fa5ff06f          	jal	zero,14c0c <__sflush_r+0x19c>
   14c6c:	00a989b3          	add	s3,s3,a0
   14c70:	40a90933          	sub	s2,s2,a0
   14c74:	fcdff06f          	jal	zero,14c40 <__sflush_r+0x1d0>

00014c78 <_fflush_r>:
   14c78:	fe010113          	addi	sp,sp,-32
   14c7c:	00812c23          	sw	s0,24(sp)
   14c80:	00112e23          	sw	ra,28(sp)
   14c84:	00050413          	addi	s0,a0,0
   14c88:	00050c63          	beq	a0,zero,14ca0 <_fflush_r+0x28>
   14c8c:	03852783          	lw	a5,56(a0)
   14c90:	00079863          	bne	a5,zero,14ca0 <_fflush_r+0x28>
   14c94:	00b12623          	sw	a1,12(sp)
   14c98:	17c000ef          	jal	ra,14e14 <__sinit>
   14c9c:	00c12583          	lw	a1,12(sp)
   14ca0:	00c59783          	lh	a5,12(a1)
   14ca4:	00078c63          	beq	a5,zero,14cbc <_fflush_r+0x44>
   14ca8:	00040513          	addi	a0,s0,0
   14cac:	01812403          	lw	s0,24(sp)
   14cb0:	01c12083          	lw	ra,28(sp)
   14cb4:	02010113          	addi	sp,sp,32
   14cb8:	db9ff06f          	jal	zero,14a70 <__sflush_r>
   14cbc:	01c12083          	lw	ra,28(sp)
   14cc0:	01812403          	lw	s0,24(sp)
   14cc4:	00000513          	addi	a0,zero,0
   14cc8:	02010113          	addi	sp,sp,32
   14ccc:	00008067          	jalr	zero,0(ra)

00014cd0 <fflush>:
   14cd0:	00050593          	addi	a1,a0,0
   14cd4:	00051a63          	bne	a0,zero,14ce8 <fflush+0x18>
   14cd8:	1b81a503          	lw	a0,440(gp) # 25b88 <_global_impure_ptr>
   14cdc:	000155b7          	lui	a1,0x15
   14ce0:	c7858593          	addi	a1,a1,-904 # 14c78 <_fflush_r>
   14ce4:	3250006f          	jal	zero,15808 <_fwalk_reent>
   14ce8:	1c01a503          	lw	a0,448(gp) # 25b90 <_impure_ptr>
   14cec:	f8dff06f          	jal	zero,14c78 <_fflush_r>

00014cf0 <__fp_lock>:
   14cf0:	00000513          	addi	a0,zero,0
   14cf4:	00008067          	jalr	zero,0(ra)

00014cf8 <std>:
   14cf8:	ff010113          	addi	sp,sp,-16
   14cfc:	00812423          	sw	s0,8(sp)
   14d00:	00112623          	sw	ra,12(sp)
   14d04:	00050413          	addi	s0,a0,0
   14d08:	00b51623          	sh	a1,12(a0)
   14d0c:	00c51723          	sh	a2,14(a0)
   14d10:	00052023          	sw	zero,0(a0)
   14d14:	00052223          	sw	zero,4(a0)
   14d18:	00052423          	sw	zero,8(a0)
   14d1c:	06052223          	sw	zero,100(a0)
   14d20:	00052823          	sw	zero,16(a0)
   14d24:	00052a23          	sw	zero,20(a0)
   14d28:	00052c23          	sw	zero,24(a0)
   14d2c:	00800613          	addi	a2,zero,8
   14d30:	00000593          	addi	a1,zero,0
   14d34:	05c50513          	addi	a0,a0,92
   14d38:	fdcfb0ef          	jal	ra,10514 <memset>
   14d3c:	0001a7b7          	lui	a5,0x1a
   14d40:	87878793          	addi	a5,a5,-1928 # 19878 <__sread>
   14d44:	02f42023          	sw	a5,32(s0)
   14d48:	0001a7b7          	lui	a5,0x1a
   14d4c:	8d078793          	addi	a5,a5,-1840 # 198d0 <__swrite>
   14d50:	02f42223          	sw	a5,36(s0)
   14d54:	0001a7b7          	lui	a5,0x1a
   14d58:	95478793          	addi	a5,a5,-1708 # 19954 <__sseek>
   14d5c:	02f42423          	sw	a5,40(s0)
   14d60:	0001a7b7          	lui	a5,0x1a
   14d64:	9ac78793          	addi	a5,a5,-1620 # 199ac <__sclose>
   14d68:	00842e23          	sw	s0,28(s0)
   14d6c:	02f42623          	sw	a5,44(s0)
   14d70:	00c12083          	lw	ra,12(sp)
   14d74:	00812403          	lw	s0,8(sp)
   14d78:	01010113          	addi	sp,sp,16
   14d7c:	00008067          	jalr	zero,0(ra)

00014d80 <_cleanup_r>:
   14d80:	0001d5b7          	lui	a1,0x1d
   14d84:	ac458593          	addi	a1,a1,-1340 # 1cac4 <_fclose_r>
   14d88:	2810006f          	jal	zero,15808 <_fwalk_reent>

00014d8c <__fp_unlock>:
   14d8c:	00000513          	addi	a0,zero,0
   14d90:	00008067          	jalr	zero,0(ra)

00014d94 <__sfmoreglue>:
   14d94:	ff010113          	addi	sp,sp,-16
   14d98:	fff58613          	addi	a2,a1,-1
   14d9c:	00812423          	sw	s0,8(sp)
   14da0:	00161413          	slli	s0,a2,0x1
   14da4:	00c40433          	add	s0,s0,a2
   14da8:	00241413          	slli	s0,s0,0x2
   14dac:	00c40433          	add	s0,s0,a2
   14db0:	00341413          	slli	s0,s0,0x3
   14db4:	01212023          	sw	s2,0(sp)
   14db8:	00058913          	addi	s2,a1,0
   14dbc:	07440593          	addi	a1,s0,116
   14dc0:	00912223          	sw	s1,4(sp)
   14dc4:	00112623          	sw	ra,12(sp)
   14dc8:	515020ef          	jal	ra,17adc <_malloc_r>
   14dcc:	00050493          	addi	s1,a0,0
   14dd0:	02050063          	beq	a0,zero,14df0 <__sfmoreglue+0x5c>
   14dd4:	00052023          	sw	zero,0(a0)
   14dd8:	01252223          	sw	s2,4(a0)
   14ddc:	00c50513          	addi	a0,a0,12
   14de0:	00a4a423          	sw	a0,8(s1)
   14de4:	06840613          	addi	a2,s0,104
   14de8:	00000593          	addi	a1,zero,0
   14dec:	f28fb0ef          	jal	ra,10514 <memset>
   14df0:	00c12083          	lw	ra,12(sp)
   14df4:	00812403          	lw	s0,8(sp)
   14df8:	00048513          	addi	a0,s1,0
   14dfc:	00012903          	lw	s2,0(sp)
   14e00:	00412483          	lw	s1,4(sp)
   14e04:	01010113          	addi	sp,sp,16
   14e08:	00008067          	jalr	zero,0(ra)

00014e0c <_cleanup>:
   14e0c:	1b81a503          	lw	a0,440(gp) # 25b88 <_global_impure_ptr>
   14e10:	f71ff06f          	jal	zero,14d80 <_cleanup_r>

00014e14 <__sinit>:
   14e14:	03852783          	lw	a5,56(a0)
   14e18:	06079e63          	bne	a5,zero,14e94 <__sinit+0x80>
   14e1c:	ff010113          	addi	sp,sp,-16
   14e20:	000157b7          	lui	a5,0x15
   14e24:	00112623          	sw	ra,12(sp)
   14e28:	00812423          	sw	s0,8(sp)
   14e2c:	d8078793          	addi	a5,a5,-640 # 14d80 <_cleanup_r>
   14e30:	02f52e23          	sw	a5,60(a0)
   14e34:	00300793          	addi	a5,zero,3
   14e38:	2ef52223          	sw	a5,740(a0)
   14e3c:	2ec50793          	addi	a5,a0,748
   14e40:	00050413          	addi	s0,a0,0
   14e44:	2ef52423          	sw	a5,744(a0)
   14e48:	2e052023          	sw	zero,736(a0)
   14e4c:	00452503          	lw	a0,4(a0)
   14e50:	00000613          	addi	a2,zero,0
   14e54:	00400593          	addi	a1,zero,4
   14e58:	ea1ff0ef          	jal	ra,14cf8 <std>
   14e5c:	00842503          	lw	a0,8(s0)
   14e60:	00100613          	addi	a2,zero,1
   14e64:	00900593          	addi	a1,zero,9
   14e68:	e91ff0ef          	jal	ra,14cf8 <std>
   14e6c:	00c42503          	lw	a0,12(s0)
   14e70:	00200613          	addi	a2,zero,2
   14e74:	01200593          	addi	a1,zero,18
   14e78:	e81ff0ef          	jal	ra,14cf8 <std>
   14e7c:	00100793          	addi	a5,zero,1
   14e80:	02f42c23          	sw	a5,56(s0)
   14e84:	00c12083          	lw	ra,12(sp)
   14e88:	00812403          	lw	s0,8(sp)
   14e8c:	01010113          	addi	sp,sp,16
   14e90:	00008067          	jalr	zero,0(ra)
   14e94:	00008067          	jalr	zero,0(ra)

00014e98 <__sfp>:
   14e98:	ff010113          	addi	sp,sp,-16
   14e9c:	00912223          	sw	s1,4(sp)
   14ea0:	1b81a483          	lw	s1,440(gp) # 25b88 <_global_impure_ptr>
   14ea4:	01212023          	sw	s2,0(sp)
   14ea8:	00112623          	sw	ra,12(sp)
   14eac:	0384a783          	lw	a5,56(s1)
   14eb0:	00812423          	sw	s0,8(sp)
   14eb4:	00050913          	addi	s2,a0,0
   14eb8:	00079663          	bne	a5,zero,14ec4 <__sfp+0x2c>
   14ebc:	00048513          	addi	a0,s1,0
   14ec0:	f55ff0ef          	jal	ra,14e14 <__sinit>
   14ec4:	2e048493          	addi	s1,s1,736
   14ec8:	0084a403          	lw	s0,8(s1)
   14ecc:	0044a783          	lw	a5,4(s1)
   14ed0:	fff78793          	addi	a5,a5,-1
   14ed4:	0007da63          	bge	a5,zero,14ee8 <__sfp+0x50>
   14ed8:	0004a783          	lw	a5,0(s1)
   14edc:	08078063          	beq	a5,zero,14f5c <__sfp+0xc4>
   14ee0:	0004a483          	lw	s1,0(s1)
   14ee4:	fe5ff06f          	jal	zero,14ec8 <__sfp+0x30>
   14ee8:	00c41703          	lh	a4,12(s0)
   14eec:	06071463          	bne	a4,zero,14f54 <__sfp+0xbc>
   14ef0:	ffff07b7          	lui	a5,0xffff0
   14ef4:	00178793          	addi	a5,a5,1 # ffff0001 <__BSS_END__+0xfffca409>
   14ef8:	06042223          	sw	zero,100(s0)
   14efc:	00042023          	sw	zero,0(s0)
   14f00:	00042223          	sw	zero,4(s0)
   14f04:	00042423          	sw	zero,8(s0)
   14f08:	00f42623          	sw	a5,12(s0)
   14f0c:	00042823          	sw	zero,16(s0)
   14f10:	00042a23          	sw	zero,20(s0)
   14f14:	00042c23          	sw	zero,24(s0)
   14f18:	00800613          	addi	a2,zero,8
   14f1c:	00000593          	addi	a1,zero,0
   14f20:	05c40513          	addi	a0,s0,92
   14f24:	df0fb0ef          	jal	ra,10514 <memset>
   14f28:	02042823          	sw	zero,48(s0)
   14f2c:	02042a23          	sw	zero,52(s0)
   14f30:	04042223          	sw	zero,68(s0)
   14f34:	04042423          	sw	zero,72(s0)
   14f38:	00040513          	addi	a0,s0,0
   14f3c:	00c12083          	lw	ra,12(sp)
   14f40:	00812403          	lw	s0,8(sp)
   14f44:	00412483          	lw	s1,4(sp)
   14f48:	00012903          	lw	s2,0(sp)
   14f4c:	01010113          	addi	sp,sp,16
   14f50:	00008067          	jalr	zero,0(ra)
   14f54:	06840413          	addi	s0,s0,104
   14f58:	f79ff06f          	jal	zero,14ed0 <__sfp+0x38>
   14f5c:	00400593          	addi	a1,zero,4
   14f60:	00090513          	addi	a0,s2,0
   14f64:	e31ff0ef          	jal	ra,14d94 <__sfmoreglue>
   14f68:	00a4a023          	sw	a0,0(s1)
   14f6c:	f6051ae3          	bne	a0,zero,14ee0 <__sfp+0x48>
   14f70:	00c00793          	addi	a5,zero,12
   14f74:	00f92023          	sw	a5,0(s2)
   14f78:	00000413          	addi	s0,zero,0
   14f7c:	fbdff06f          	jal	zero,14f38 <__sfp+0xa0>

00014f80 <__sfp_lock_acquire>:
   14f80:	00008067          	jalr	zero,0(ra)

00014f84 <__sfp_lock_release>:
   14f84:	00008067          	jalr	zero,0(ra)

00014f88 <__sinit_lock_acquire>:
   14f88:	00008067          	jalr	zero,0(ra)

00014f8c <__sinit_lock_release>:
   14f8c:	00008067          	jalr	zero,0(ra)

00014f90 <__fp_lock_all>:
   14f90:	1c01a503          	lw	a0,448(gp) # 25b90 <_impure_ptr>
   14f94:	000155b7          	lui	a1,0x15
   14f98:	cf058593          	addi	a1,a1,-784 # 14cf0 <__fp_lock>
   14f9c:	7cc0006f          	jal	zero,15768 <_fwalk>

00014fa0 <__fp_unlock_all>:
   14fa0:	1c01a503          	lw	a0,448(gp) # 25b90 <_impure_ptr>
   14fa4:	000155b7          	lui	a1,0x15
   14fa8:	d8c58593          	addi	a1,a1,-628 # 14d8c <__fp_unlock>
   14fac:	7bc0006f          	jal	zero,15768 <_fwalk>

00014fb0 <_malloc_trim_r>:
   14fb0:	fe010113          	addi	sp,sp,-32
   14fb4:	01212823          	sw	s2,16(sp)
   14fb8:	00812c23          	sw	s0,24(sp)
   14fbc:	00912a23          	sw	s1,20(sp)
   14fc0:	01312623          	sw	s3,12(sp)
   14fc4:	00058413          	addi	s0,a1,0
   14fc8:	00112e23          	sw	ra,28(sp)
   14fcc:	00050993          	addi	s3,a0,0
   14fd0:	d9418913          	addi	s2,gp,-620 # 25764 <__malloc_av_>
   14fd4:	254030ef          	jal	ra,18228 <__malloc_lock>
   14fd8:	00892783          	lw	a5,8(s2)
   14fdc:	00001737          	lui	a4,0x1
   14fe0:	0047a483          	lw	s1,4(a5)
   14fe4:	fef70793          	addi	a5,a4,-17 # fef <main-0xf085>
   14fe8:	40878433          	sub	s0,a5,s0
   14fec:	ffc4f493          	andi	s1,s1,-4
   14ff0:	00940433          	add	s0,s0,s1
   14ff4:	00c45413          	srli	s0,s0,0xc
   14ff8:	fff40413          	addi	s0,s0,-1
   14ffc:	00c41413          	slli	s0,s0,0xc
   15000:	02e45663          	bge	s0,a4,1502c <_malloc_trim_r+0x7c>
   15004:	00098513          	addi	a0,s3,0
   15008:	224030ef          	jal	ra,1822c <__malloc_unlock>
   1500c:	00000513          	addi	a0,zero,0
   15010:	01c12083          	lw	ra,28(sp)
   15014:	01812403          	lw	s0,24(sp)
   15018:	01412483          	lw	s1,20(sp)
   1501c:	01012903          	lw	s2,16(sp)
   15020:	00c12983          	lw	s3,12(sp)
   15024:	02010113          	addi	sp,sp,32
   15028:	00008067          	jalr	zero,0(ra)
   1502c:	00000593          	addi	a1,zero,0
   15030:	00098513          	addi	a0,s3,0
   15034:	678040ef          	jal	ra,196ac <_sbrk_r>
   15038:	00892783          	lw	a5,8(s2)
   1503c:	009787b3          	add	a5,a5,s1
   15040:	fcf512e3          	bne	a0,a5,15004 <_malloc_trim_r+0x54>
   15044:	408005b3          	sub	a1,zero,s0
   15048:	00098513          	addi	a0,s3,0
   1504c:	660040ef          	jal	ra,196ac <_sbrk_r>
   15050:	fff00793          	addi	a5,zero,-1
   15054:	02f51c63          	bne	a0,a5,1508c <_malloc_trim_r+0xdc>
   15058:	00000593          	addi	a1,zero,0
   1505c:	00098513          	addi	a0,s3,0
   15060:	64c040ef          	jal	ra,196ac <_sbrk_r>
   15064:	00892703          	lw	a4,8(s2)
   15068:	00f00693          	addi	a3,zero,15
   1506c:	40e507b3          	sub	a5,a0,a4
   15070:	f8f6dae3          	bge	a3,a5,15004 <_malloc_trim_r+0x54>
   15074:	1c41a683          	lw	a3,452(gp) # 25b94 <__malloc_sbrk_base>
   15078:	0017e793          	ori	a5,a5,1
   1507c:	00f72223          	sw	a5,4(a4)
   15080:	40d50533          	sub	a0,a0,a3
   15084:	1ea1ae23          	sw	a0,508(gp) # 25bcc <__malloc_current_mallinfo>
   15088:	f7dff06f          	jal	zero,15004 <_malloc_trim_r+0x54>
   1508c:	00892783          	lw	a5,8(s2)
   15090:	408484b3          	sub	s1,s1,s0
   15094:	0014e493          	ori	s1,s1,1
   15098:	0097a223          	sw	s1,4(a5)
   1509c:	1fc1a783          	lw	a5,508(gp) # 25bcc <__malloc_current_mallinfo>
   150a0:	00098513          	addi	a0,s3,0
   150a4:	40878433          	sub	s0,a5,s0
   150a8:	1e81ae23          	sw	s0,508(gp) # 25bcc <__malloc_current_mallinfo>
   150ac:	180030ef          	jal	ra,1822c <__malloc_unlock>
   150b0:	00100513          	addi	a0,zero,1
   150b4:	f5dff06f          	jal	zero,15010 <_malloc_trim_r+0x60>

000150b8 <_free_r>:
   150b8:	24058663          	beq	a1,zero,15304 <_free_r+0x24c>
   150bc:	ff010113          	addi	sp,sp,-16
   150c0:	00812423          	sw	s0,8(sp)
   150c4:	00912223          	sw	s1,4(sp)
   150c8:	00050413          	addi	s0,a0,0
   150cc:	00058493          	addi	s1,a1,0
   150d0:	00112623          	sw	ra,12(sp)
   150d4:	154030ef          	jal	ra,18228 <__malloc_lock>
   150d8:	ffc4a503          	lw	a0,-4(s1)
   150dc:	ff848693          	addi	a3,s1,-8
   150e0:	ffe57793          	andi	a5,a0,-2
   150e4:	d9418813          	addi	a6,gp,-620 # 25764 <__malloc_av_>
   150e8:	00f685b3          	add	a1,a3,a5
   150ec:	0045a703          	lw	a4,4(a1)
   150f0:	00882803          	lw	a6,8(a6)
   150f4:	d9418613          	addi	a2,gp,-620 # 25764 <__malloc_av_>
   150f8:	ffc77713          	andi	a4,a4,-4
   150fc:	00157513          	andi	a0,a0,1
   15100:	06b81063          	bne	a6,a1,15160 <_free_r+0xa8>
   15104:	00e787b3          	add	a5,a5,a4
   15108:	02051063          	bne	a0,zero,15128 <_free_r+0x70>
   1510c:	ff84a703          	lw	a4,-8(s1)
   15110:	40e686b3          	sub	a3,a3,a4
   15114:	0086a583          	lw	a1,8(a3)
   15118:	00e787b3          	add	a5,a5,a4
   1511c:	00c6a703          	lw	a4,12(a3)
   15120:	00e5a623          	sw	a4,12(a1)
   15124:	00b72423          	sw	a1,8(a4)
   15128:	0017e713          	ori	a4,a5,1
   1512c:	00e6a223          	sw	a4,4(a3)
   15130:	1c81a703          	lw	a4,456(gp) # 25b98 <__malloc_trim_threshold>
   15134:	00d62423          	sw	a3,8(a2)
   15138:	00e7e863          	bltu	a5,a4,15148 <_free_r+0x90>
   1513c:	1d81a583          	lw	a1,472(gp) # 25ba8 <__malloc_top_pad>
   15140:	00040513          	addi	a0,s0,0
   15144:	e6dff0ef          	jal	ra,14fb0 <_malloc_trim_r>
   15148:	00040513          	addi	a0,s0,0
   1514c:	00812403          	lw	s0,8(sp)
   15150:	00c12083          	lw	ra,12(sp)
   15154:	00412483          	lw	s1,4(sp)
   15158:	01010113          	addi	sp,sp,16
   1515c:	0d00306f          	jal	zero,1822c <__malloc_unlock>
   15160:	00e5a223          	sw	a4,4(a1)
   15164:	00000813          	addi	a6,zero,0
   15168:	02051463          	bne	a0,zero,15190 <_free_r+0xd8>
   1516c:	ff84a503          	lw	a0,-8(s1)
   15170:	d9c18893          	addi	a7,gp,-612 # 2576c <__malloc_av_+0x8>
   15174:	40a686b3          	sub	a3,a3,a0
   15178:	00a787b3          	add	a5,a5,a0
   1517c:	0086a503          	lw	a0,8(a3)
   15180:	0b150463          	beq	a0,a7,15228 <_free_r+0x170>
   15184:	00c6a883          	lw	a7,12(a3)
   15188:	01152623          	sw	a7,12(a0)
   1518c:	00a8a423          	sw	a0,8(a7)
   15190:	00e58533          	add	a0,a1,a4
   15194:	00452503          	lw	a0,4(a0)
   15198:	00157513          	andi	a0,a0,1
   1519c:	02051663          	bne	a0,zero,151c8 <_free_r+0x110>
   151a0:	00e787b3          	add	a5,a5,a4
   151a4:	0085a703          	lw	a4,8(a1)
   151a8:	08081463          	bne	a6,zero,15230 <_free_r+0x178>
   151ac:	d9c18513          	addi	a0,gp,-612 # 2576c <__malloc_av_+0x8>
   151b0:	08a71063          	bne	a4,a0,15230 <_free_r+0x178>
   151b4:	00d62a23          	sw	a3,20(a2)
   151b8:	00d62823          	sw	a3,16(a2)
   151bc:	00e6a623          	sw	a4,12(a3)
   151c0:	00e6a423          	sw	a4,8(a3)
   151c4:	00100813          	addi	a6,zero,1
   151c8:	0017e713          	ori	a4,a5,1
   151cc:	00e6a223          	sw	a4,4(a3)
   151d0:	00f68733          	add	a4,a3,a5
   151d4:	00f72023          	sw	a5,0(a4)
   151d8:	f60818e3          	bne	a6,zero,15148 <_free_r+0x90>
   151dc:	1ff00713          	addi	a4,zero,511
   151e0:	06f76063          	bltu	a4,a5,15240 <_free_r+0x188>
   151e4:	0037d793          	srli	a5,a5,0x3
   151e8:	4027d593          	srai	a1,a5,0x2
   151ec:	00100713          	addi	a4,zero,1
   151f0:	00b71733          	sll	a4,a4,a1
   151f4:	00462583          	lw	a1,4(a2)
   151f8:	00178793          	addi	a5,a5,1
   151fc:	00379793          	slli	a5,a5,0x3
   15200:	00f607b3          	add	a5,a2,a5
   15204:	00b76733          	or	a4,a4,a1
   15208:	00e62223          	sw	a4,4(a2)
   1520c:	0007a703          	lw	a4,0(a5)
   15210:	ff878613          	addi	a2,a5,-8
   15214:	00c6a623          	sw	a2,12(a3)
   15218:	00e6a423          	sw	a4,8(a3)
   1521c:	00d7a023          	sw	a3,0(a5)
   15220:	00d72623          	sw	a3,12(a4)
   15224:	f25ff06f          	jal	zero,15148 <_free_r+0x90>
   15228:	00100813          	addi	a6,zero,1
   1522c:	f65ff06f          	jal	zero,15190 <_free_r+0xd8>
   15230:	00c5a583          	lw	a1,12(a1)
   15234:	00b72623          	sw	a1,12(a4)
   15238:	00e5a423          	sw	a4,8(a1)
   1523c:	f8dff06f          	jal	zero,151c8 <_free_r+0x110>
   15240:	0097d593          	srli	a1,a5,0x9
   15244:	00400713          	addi	a4,zero,4
   15248:	04b76863          	bltu	a4,a1,15298 <_free_r+0x1e0>
   1524c:	0067d713          	srli	a4,a5,0x6
   15250:	03870713          	addi	a4,a4,56
   15254:	00170593          	addi	a1,a4,1
   15258:	00359593          	slli	a1,a1,0x3
   1525c:	00b605b3          	add	a1,a2,a1
   15260:	ff858513          	addi	a0,a1,-8
   15264:	0005a583          	lw	a1,0(a1)
   15268:	08b51463          	bne	a0,a1,152f0 <_free_r+0x238>
   1526c:	00100793          	addi	a5,zero,1
   15270:	40275713          	srai	a4,a4,0x2
   15274:	00e79733          	sll	a4,a5,a4
   15278:	00462783          	lw	a5,4(a2)
   1527c:	00f76733          	or	a4,a4,a5
   15280:	00e62223          	sw	a4,4(a2)
   15284:	00a6a623          	sw	a0,12(a3)
   15288:	00b6a423          	sw	a1,8(a3)
   1528c:	00d52423          	sw	a3,8(a0)
   15290:	00d5a623          	sw	a3,12(a1)
   15294:	eb5ff06f          	jal	zero,15148 <_free_r+0x90>
   15298:	01400713          	addi	a4,zero,20
   1529c:	00b76663          	bltu	a4,a1,152a8 <_free_r+0x1f0>
   152a0:	05b58713          	addi	a4,a1,91
   152a4:	fb1ff06f          	jal	zero,15254 <_free_r+0x19c>
   152a8:	05400713          	addi	a4,zero,84
   152ac:	00b76863          	bltu	a4,a1,152bc <_free_r+0x204>
   152b0:	00c7d713          	srli	a4,a5,0xc
   152b4:	06e70713          	addi	a4,a4,110
   152b8:	f9dff06f          	jal	zero,15254 <_free_r+0x19c>
   152bc:	15400713          	addi	a4,zero,340
   152c0:	00b76863          	bltu	a4,a1,152d0 <_free_r+0x218>
   152c4:	00f7d713          	srli	a4,a5,0xf
   152c8:	07770713          	addi	a4,a4,119
   152cc:	f89ff06f          	jal	zero,15254 <_free_r+0x19c>
   152d0:	55400513          	addi	a0,zero,1364
   152d4:	07e00713          	addi	a4,zero,126
   152d8:	f6b56ee3          	bltu	a0,a1,15254 <_free_r+0x19c>
   152dc:	0127d713          	srli	a4,a5,0x12
   152e0:	07c70713          	addi	a4,a4,124
   152e4:	f71ff06f          	jal	zero,15254 <_free_r+0x19c>
   152e8:	0085a583          	lw	a1,8(a1)
   152ec:	00b50863          	beq	a0,a1,152fc <_free_r+0x244>
   152f0:	0045a703          	lw	a4,4(a1)
   152f4:	ffc77713          	andi	a4,a4,-4
   152f8:	fee7e8e3          	bltu	a5,a4,152e8 <_free_r+0x230>
   152fc:	00c5a503          	lw	a0,12(a1)
   15300:	f85ff06f          	jal	zero,15284 <_free_r+0x1cc>
   15304:	00008067          	jalr	zero,0(ra)

00015308 <__sfvwrite_r>:
   15308:	00862783          	lw	a5,8(a2)
   1530c:	00079863          	bne	a5,zero,1531c <__sfvwrite_r+0x14>
   15310:	00000793          	addi	a5,zero,0
   15314:	00078513          	addi	a0,a5,0
   15318:	00008067          	jalr	zero,0(ra)
   1531c:	00c5d783          	lhu	a5,12(a1)
   15320:	fc010113          	addi	sp,sp,-64
   15324:	02812c23          	sw	s0,56(sp)
   15328:	03212823          	sw	s2,48(sp)
   1532c:	03612023          	sw	s6,32(sp)
   15330:	02112e23          	sw	ra,60(sp)
   15334:	02912a23          	sw	s1,52(sp)
   15338:	03312623          	sw	s3,44(sp)
   1533c:	03412423          	sw	s4,40(sp)
   15340:	03512223          	sw	s5,36(sp)
   15344:	01712e23          	sw	s7,28(sp)
   15348:	01812c23          	sw	s8,24(sp)
   1534c:	01912a23          	sw	s9,20(sp)
   15350:	01a12823          	sw	s10,16(sp)
   15354:	01b12623          	sw	s11,12(sp)
   15358:	0087f793          	andi	a5,a5,8
   1535c:	00060b13          	addi	s6,a2,0
   15360:	00058413          	addi	s0,a1,0
   15364:	00050913          	addi	s2,a0,0
   15368:	0e078263          	beq	a5,zero,1544c <__sfvwrite_r+0x144>
   1536c:	0105a783          	lw	a5,16(a1)
   15370:	0c078e63          	beq	a5,zero,1544c <__sfvwrite_r+0x144>
   15374:	00c45783          	lhu	a5,12(s0)
   15378:	000b2a03          	lw	s4,0(s6)
   1537c:	0027f713          	andi	a4,a5,2
   15380:	16071a63          	bne	a4,zero,154f4 <__sfvwrite_r+0x1ec>
   15384:	0017f793          	andi	a5,a5,1
   15388:	00000b93          	addi	s7,zero,0
   1538c:	20078a63          	beq	a5,zero,155a0 <__sfvwrite_r+0x298>
   15390:	00000513          	addi	a0,zero,0
   15394:	00000a93          	addi	s5,zero,0
   15398:	00000993          	addi	s3,zero,0
   1539c:	36098463          	beq	s3,zero,15704 <__sfvwrite_r+0x3fc>
   153a0:	02051263          	bne	a0,zero,153c4 <__sfvwrite_r+0xbc>
   153a4:	00098613          	addi	a2,s3,0
   153a8:	00a00593          	addi	a1,zero,10
   153ac:	000a8513          	addi	a0,s5,0
   153b0:	5f9020ef          	jal	ra,181a8 <memchr>
   153b4:	00198b93          	addi	s7,s3,1
   153b8:	00050663          	beq	a0,zero,153c4 <__sfvwrite_r+0xbc>
   153bc:	00150513          	addi	a0,a0,1
   153c0:	41550bb3          	sub	s7,a0,s5
   153c4:	000b8c13          	addi	s8,s7,0
   153c8:	0179f463          	bgeu	s3,s7,153d0 <__sfvwrite_r+0xc8>
   153cc:	00098c13          	addi	s8,s3,0
   153d0:	00042503          	lw	a0,0(s0)
   153d4:	01042783          	lw	a5,16(s0)
   153d8:	01442683          	lw	a3,20(s0)
   153dc:	32a7fe63          	bgeu	a5,a0,15718 <__sfvwrite_r+0x410>
   153e0:	00842483          	lw	s1,8(s0)
   153e4:	009684b3          	add	s1,a3,s1
   153e8:	3384d863          	bge	s1,s8,15718 <__sfvwrite_r+0x410>
   153ec:	000a8593          	addi	a1,s5,0
   153f0:	00048613          	addi	a2,s1,0
   153f4:	5d9020ef          	jal	ra,181cc <memmove>
   153f8:	00042783          	lw	a5,0(s0)
   153fc:	00040593          	addi	a1,s0,0
   15400:	00090513          	addi	a0,s2,0
   15404:	009787b3          	add	a5,a5,s1
   15408:	00f42023          	sw	a5,0(s0)
   1540c:	86dff0ef          	jal	ra,14c78 <_fflush_r>
   15410:	16051e63          	bne	a0,zero,1558c <__sfvwrite_r+0x284>
   15414:	409b8bb3          	sub	s7,s7,s1
   15418:	00100513          	addi	a0,zero,1
   1541c:	000b9a63          	bne	s7,zero,15430 <__sfvwrite_r+0x128>
   15420:	00040593          	addi	a1,s0,0
   15424:	00090513          	addi	a0,s2,0
   15428:	851ff0ef          	jal	ra,14c78 <_fflush_r>
   1542c:	16051063          	bne	a0,zero,1558c <__sfvwrite_r+0x284>
   15430:	008b2783          	lw	a5,8(s6)
   15434:	009a8ab3          	add	s5,s5,s1
   15438:	409989b3          	sub	s3,s3,s1
   1543c:	409784b3          	sub	s1,a5,s1
   15440:	009b2423          	sw	s1,8(s6)
   15444:	f4049ce3          	bne	s1,zero,1539c <__sfvwrite_r+0x94>
   15448:	0680006f          	jal	zero,154b0 <__sfvwrite_r+0x1a8>
   1544c:	00040593          	addi	a1,s0,0
   15450:	00090513          	addi	a0,s2,0
   15454:	ce8ff0ef          	jal	ra,1493c <__swsetup_r>
   15458:	fff00793          	addi	a5,zero,-1
   1545c:	f0050ce3          	beq	a0,zero,15374 <__sfvwrite_r+0x6c>
   15460:	0540006f          	jal	zero,154b4 <__sfvwrite_r+0x1ac>
   15464:	000a2983          	lw	s3,0(s4)
   15468:	004a2483          	lw	s1,4(s4)
   1546c:	008a0a13          	addi	s4,s4,8
   15470:	fe048ae3          	beq	s1,zero,15464 <__sfvwrite_r+0x15c>
   15474:	00048693          	addi	a3,s1,0
   15478:	009af463          	bgeu	s5,s1,15480 <__sfvwrite_r+0x178>
   1547c:	000a8693          	addi	a3,s5,0
   15480:	02442783          	lw	a5,36(s0)
   15484:	01c42583          	lw	a1,28(s0)
   15488:	00098613          	addi	a2,s3,0
   1548c:	00090513          	addi	a0,s2,0
   15490:	000780e7          	jalr	ra,0(a5)
   15494:	0ea05c63          	bge	zero,a0,1558c <__sfvwrite_r+0x284>
   15498:	008b2783          	lw	a5,8(s6)
   1549c:	00a989b3          	add	s3,s3,a0
   154a0:	40a484b3          	sub	s1,s1,a0
   154a4:	40a78533          	sub	a0,a5,a0
   154a8:	00ab2423          	sw	a0,8(s6)
   154ac:	fc0512e3          	bne	a0,zero,15470 <__sfvwrite_r+0x168>
   154b0:	00000793          	addi	a5,zero,0
   154b4:	03c12083          	lw	ra,60(sp)
   154b8:	03812403          	lw	s0,56(sp)
   154bc:	03412483          	lw	s1,52(sp)
   154c0:	03012903          	lw	s2,48(sp)
   154c4:	02c12983          	lw	s3,44(sp)
   154c8:	02812a03          	lw	s4,40(sp)
   154cc:	02412a83          	lw	s5,36(sp)
   154d0:	02012b03          	lw	s6,32(sp)
   154d4:	01c12b83          	lw	s7,28(sp)
   154d8:	01812c03          	lw	s8,24(sp)
   154dc:	01412c83          	lw	s9,20(sp)
   154e0:	01012d03          	lw	s10,16(sp)
   154e4:	00c12d83          	lw	s11,12(sp)
   154e8:	00078513          	addi	a0,a5,0
   154ec:	04010113          	addi	sp,sp,64
   154f0:	00008067          	jalr	zero,0(ra)
   154f4:	80000ab7          	lui	s5,0x80000
   154f8:	00000993          	addi	s3,zero,0
   154fc:	00000493          	addi	s1,zero,0
   15500:	c00aca93          	xori	s5,s5,-1024
   15504:	f6dff06f          	jal	zero,15470 <__sfvwrite_r+0x168>
   15508:	000a2b83          	lw	s7,0(s4)
   1550c:	004a2483          	lw	s1,4(s4)
   15510:	008a0a13          	addi	s4,s4,8
   15514:	fe048ae3          	beq	s1,zero,15508 <__sfvwrite_r+0x200>
   15518:	00c45783          	lhu	a5,12(s0)
   1551c:	00842d83          	lw	s11,8(s0)
   15520:	00042503          	lw	a0,0(s0)
   15524:	2007f713          	andi	a4,a5,512
   15528:	14070263          	beq	a4,zero,1566c <__sfvwrite_r+0x364>
   1552c:	0db4e063          	bltu	s1,s11,155ec <__sfvwrite_r+0x2e4>
   15530:	4807f713          	andi	a4,a5,1152
   15534:	0a070c63          	beq	a4,zero,155ec <__sfvwrite_r+0x2e4>
   15538:	01442703          	lw	a4,20(s0)
   1553c:	01042583          	lw	a1,16(s0)
   15540:	00171a93          	slli	s5,a4,0x1
   15544:	00ea8733          	add	a4,s5,a4
   15548:	01f75a93          	srli	s5,a4,0x1f
   1554c:	40b50d33          	sub	s10,a0,a1
   15550:	00ea8ab3          	add	s5,s5,a4
   15554:	001d0713          	addi	a4,s10,1
   15558:	401ada93          	srai	s5,s5,0x1
   1555c:	00970733          	add	a4,a4,s1
   15560:	00eaf463          	bgeu	s5,a4,15568 <__sfvwrite_r+0x260>
   15564:	00070a93          	addi	s5,a4,0
   15568:	4007f793          	andi	a5,a5,1024
   1556c:	0c078863          	beq	a5,zero,1563c <__sfvwrite_r+0x334>
   15570:	000a8593          	addi	a1,s5,0 # 80000000 <__BSS_END__+0x7ffda408>
   15574:	00090513          	addi	a0,s2,0
   15578:	564020ef          	jal	ra,17adc <_malloc_r>
   1557c:	00050993          	addi	s3,a0,0
   15580:	02051a63          	bne	a0,zero,155b4 <__sfvwrite_r+0x2ac>
   15584:	00c00793          	addi	a5,zero,12
   15588:	00f92023          	sw	a5,0(s2)
   1558c:	00c45783          	lhu	a5,12(s0)
   15590:	0407e793          	ori	a5,a5,64
   15594:	00f41623          	sh	a5,12(s0)
   15598:	fff00793          	addi	a5,zero,-1
   1559c:	f19ff06f          	jal	zero,154b4 <__sfvwrite_r+0x1ac>
   155a0:	80000c37          	lui	s8,0x80000
   155a4:	ffec4c93          	xori	s9,s8,-2
   155a8:	00000493          	addi	s1,zero,0
   155ac:	fffc4c13          	xori	s8,s8,-1
   155b0:	f65ff06f          	jal	zero,15514 <__sfvwrite_r+0x20c>
   155b4:	01042583          	lw	a1,16(s0)
   155b8:	000d0613          	addi	a2,s10,0
   155bc:	eb1fc0ef          	jal	ra,1246c <memcpy>
   155c0:	00c45783          	lhu	a5,12(s0)
   155c4:	b7f7f793          	andi	a5,a5,-1153
   155c8:	0807e793          	ori	a5,a5,128
   155cc:	00f41623          	sh	a5,12(s0)
   155d0:	01342823          	sw	s3,16(s0)
   155d4:	01542a23          	sw	s5,20(s0)
   155d8:	01a989b3          	add	s3,s3,s10
   155dc:	41aa8ab3          	sub	s5,s5,s10
   155e0:	01342023          	sw	s3,0(s0)
   155e4:	00048d93          	addi	s11,s1,0
   155e8:	01542423          	sw	s5,8(s0)
   155ec:	00048993          	addi	s3,s1,0
   155f0:	01b4f463          	bgeu	s1,s11,155f8 <__sfvwrite_r+0x2f0>
   155f4:	00048d93          	addi	s11,s1,0
   155f8:	00042503          	lw	a0,0(s0)
   155fc:	000d8613          	addi	a2,s11,0
   15600:	000b8593          	addi	a1,s7,0
   15604:	3c9020ef          	jal	ra,181cc <memmove>
   15608:	00842783          	lw	a5,8(s0)
   1560c:	41b787b3          	sub	a5,a5,s11
   15610:	00f42423          	sw	a5,8(s0)
   15614:	00042783          	lw	a5,0(s0)
   15618:	01b78db3          	add	s11,a5,s11
   1561c:	01b42023          	sw	s11,0(s0)
   15620:	008b2783          	lw	a5,8(s6)
   15624:	013b8bb3          	add	s7,s7,s3
   15628:	413484b3          	sub	s1,s1,s3
   1562c:	413789b3          	sub	s3,a5,s3
   15630:	013b2423          	sw	s3,8(s6)
   15634:	ee0990e3          	bne	s3,zero,15514 <__sfvwrite_r+0x20c>
   15638:	e79ff06f          	jal	zero,154b0 <__sfvwrite_r+0x1a8>
   1563c:	000a8613          	addi	a2,s5,0
   15640:	00090513          	addi	a0,s2,0
   15644:	315030ef          	jal	ra,19158 <_realloc_r>
   15648:	00050993          	addi	s3,a0,0
   1564c:	f80512e3          	bne	a0,zero,155d0 <__sfvwrite_r+0x2c8>
   15650:	01042583          	lw	a1,16(s0)
   15654:	00090513          	addi	a0,s2,0
   15658:	a61ff0ef          	jal	ra,150b8 <_free_r>
   1565c:	00c45783          	lhu	a5,12(s0)
   15660:	f7f7f793          	andi	a5,a5,-129
   15664:	00f41623          	sh	a5,12(s0)
   15668:	f1dff06f          	jal	zero,15584 <__sfvwrite_r+0x27c>
   1566c:	01042783          	lw	a5,16(s0)
   15670:	00a7e663          	bltu	a5,a0,1567c <__sfvwrite_r+0x374>
   15674:	01442983          	lw	s3,20(s0)
   15678:	0534f663          	bgeu	s1,s3,156c4 <__sfvwrite_r+0x3bc>
   1567c:	000d8993          	addi	s3,s11,0
   15680:	01b4f463          	bgeu	s1,s11,15688 <__sfvwrite_r+0x380>
   15684:	00048993          	addi	s3,s1,0
   15688:	00098613          	addi	a2,s3,0
   1568c:	000b8593          	addi	a1,s7,0
   15690:	33d020ef          	jal	ra,181cc <memmove>
   15694:	00842783          	lw	a5,8(s0)
   15698:	00042703          	lw	a4,0(s0)
   1569c:	413787b3          	sub	a5,a5,s3
   156a0:	01370733          	add	a4,a4,s3
   156a4:	00f42423          	sw	a5,8(s0)
   156a8:	00e42023          	sw	a4,0(s0)
   156ac:	f6079ae3          	bne	a5,zero,15620 <__sfvwrite_r+0x318>
   156b0:	00040593          	addi	a1,s0,0
   156b4:	00090513          	addi	a0,s2,0
   156b8:	dc0ff0ef          	jal	ra,14c78 <_fflush_r>
   156bc:	f60502e3          	beq	a0,zero,15620 <__sfvwrite_r+0x318>
   156c0:	ecdff06f          	jal	zero,1558c <__sfvwrite_r+0x284>
   156c4:	00048513          	addi	a0,s1,0
   156c8:	009cf463          	bgeu	s9,s1,156d0 <__sfvwrite_r+0x3c8>
   156cc:	000c0513          	addi	a0,s8,0 # 80000000 <__BSS_END__+0x7ffda408>
   156d0:	00098593          	addi	a1,s3,0
   156d4:	0850d0ef          	jal	ra,22f58 <__divsi3>
   156d8:	00098593          	addi	a1,s3,0
   156dc:	0590d0ef          	jal	ra,22f34 <__mulsi3>
   156e0:	02442783          	lw	a5,36(s0)
   156e4:	01c42583          	lw	a1,28(s0)
   156e8:	00050693          	addi	a3,a0,0
   156ec:	000b8613          	addi	a2,s7,0
   156f0:	00090513          	addi	a0,s2,0
   156f4:	000780e7          	jalr	ra,0(a5)
   156f8:	00050993          	addi	s3,a0,0
   156fc:	f2a042e3          	blt	zero,a0,15620 <__sfvwrite_r+0x318>
   15700:	e8dff06f          	jal	zero,1558c <__sfvwrite_r+0x284>
   15704:	000a2a83          	lw	s5,0(s4)
   15708:	004a2983          	lw	s3,4(s4)
   1570c:	00000513          	addi	a0,zero,0
   15710:	008a0a13          	addi	s4,s4,8
   15714:	c89ff06f          	jal	zero,1539c <__sfvwrite_r+0x94>
   15718:	02dc4263          	blt	s8,a3,1573c <__sfvwrite_r+0x434>
   1571c:	02442783          	lw	a5,36(s0)
   15720:	01c42583          	lw	a1,28(s0)
   15724:	000a8613          	addi	a2,s5,0
   15728:	00090513          	addi	a0,s2,0
   1572c:	000780e7          	jalr	ra,0(a5)
   15730:	00050493          	addi	s1,a0,0
   15734:	cea040e3          	blt	zero,a0,15414 <__sfvwrite_r+0x10c>
   15738:	e55ff06f          	jal	zero,1558c <__sfvwrite_r+0x284>
   1573c:	000c0613          	addi	a2,s8,0
   15740:	000a8593          	addi	a1,s5,0
   15744:	289020ef          	jal	ra,181cc <memmove>
   15748:	00842783          	lw	a5,8(s0)
   1574c:	000c0493          	addi	s1,s8,0
   15750:	418787b3          	sub	a5,a5,s8
   15754:	00f42423          	sw	a5,8(s0)
   15758:	00042783          	lw	a5,0(s0)
   1575c:	018787b3          	add	a5,a5,s8
   15760:	00f42023          	sw	a5,0(s0)
   15764:	cb1ff06f          	jal	zero,15414 <__sfvwrite_r+0x10c>

00015768 <_fwalk>:
   15768:	fd010113          	addi	sp,sp,-48
   1576c:	02812423          	sw	s0,40(sp)
   15770:	03212023          	sw	s2,32(sp)
   15774:	01412c23          	sw	s4,24(sp)
   15778:	01512a23          	sw	s5,20(sp)
   1577c:	02112623          	sw	ra,44(sp)
   15780:	02912223          	sw	s1,36(sp)
   15784:	01312e23          	sw	s3,28(sp)
   15788:	2e050413          	addi	s0,a0,736
   1578c:	00000913          	addi	s2,zero,0
   15790:	00100a13          	addi	s4,zero,1
   15794:	fff00a93          	addi	s5,zero,-1
   15798:	02041663          	bne	s0,zero,157c4 <_fwalk+0x5c>
   1579c:	02c12083          	lw	ra,44(sp)
   157a0:	02812403          	lw	s0,40(sp)
   157a4:	00090513          	addi	a0,s2,0
   157a8:	02412483          	lw	s1,36(sp)
   157ac:	02012903          	lw	s2,32(sp)
   157b0:	01c12983          	lw	s3,28(sp)
   157b4:	01812a03          	lw	s4,24(sp)
   157b8:	01412a83          	lw	s5,20(sp)
   157bc:	03010113          	addi	sp,sp,48
   157c0:	00008067          	jalr	zero,0(ra)
   157c4:	00842483          	lw	s1,8(s0)
   157c8:	00442983          	lw	s3,4(s0)
   157cc:	fff98993          	addi	s3,s3,-1
   157d0:	0009d663          	bge	s3,zero,157dc <_fwalk+0x74>
   157d4:	00042403          	lw	s0,0(s0)
   157d8:	fc1ff06f          	jal	zero,15798 <_fwalk+0x30>
   157dc:	00c4d783          	lhu	a5,12(s1)
   157e0:	02fa7063          	bgeu	s4,a5,15800 <_fwalk+0x98>
   157e4:	00e49783          	lh	a5,14(s1)
   157e8:	01578c63          	beq	a5,s5,15800 <_fwalk+0x98>
   157ec:	00048513          	addi	a0,s1,0
   157f0:	00b12623          	sw	a1,12(sp)
   157f4:	000580e7          	jalr	ra,0(a1)
   157f8:	00c12583          	lw	a1,12(sp)
   157fc:	00a96933          	or	s2,s2,a0
   15800:	06848493          	addi	s1,s1,104
   15804:	fc9ff06f          	jal	zero,157cc <_fwalk+0x64>

00015808 <_fwalk_reent>:
   15808:	fd010113          	addi	sp,sp,-48
   1580c:	02812423          	sw	s0,40(sp)
   15810:	03212023          	sw	s2,32(sp)
   15814:	01412c23          	sw	s4,24(sp)
   15818:	01512a23          	sw	s5,20(sp)
   1581c:	01612823          	sw	s6,16(sp)
   15820:	01712623          	sw	s7,12(sp)
   15824:	02112623          	sw	ra,44(sp)
   15828:	02912223          	sw	s1,36(sp)
   1582c:	01312e23          	sw	s3,28(sp)
   15830:	00050a13          	addi	s4,a0,0
   15834:	00058a93          	addi	s5,a1,0
   15838:	2e050413          	addi	s0,a0,736
   1583c:	00000913          	addi	s2,zero,0
   15840:	00100b13          	addi	s6,zero,1
   15844:	fff00b93          	addi	s7,zero,-1
   15848:	02041a63          	bne	s0,zero,1587c <_fwalk_reent+0x74>
   1584c:	02c12083          	lw	ra,44(sp)
   15850:	02812403          	lw	s0,40(sp)
   15854:	00090513          	addi	a0,s2,0
   15858:	02412483          	lw	s1,36(sp)
   1585c:	02012903          	lw	s2,32(sp)
   15860:	01c12983          	lw	s3,28(sp)
   15864:	01812a03          	lw	s4,24(sp)
   15868:	01412a83          	lw	s5,20(sp)
   1586c:	01012b03          	lw	s6,16(sp)
   15870:	00c12b83          	lw	s7,12(sp)
   15874:	03010113          	addi	sp,sp,48
   15878:	00008067          	jalr	zero,0(ra)
   1587c:	00842483          	lw	s1,8(s0)
   15880:	00442983          	lw	s3,4(s0)
   15884:	fff98993          	addi	s3,s3,-1
   15888:	0009d663          	bge	s3,zero,15894 <_fwalk_reent+0x8c>
   1588c:	00042403          	lw	s0,0(s0)
   15890:	fb9ff06f          	jal	zero,15848 <_fwalk_reent+0x40>
   15894:	00c4d783          	lhu	a5,12(s1)
   15898:	00fb7e63          	bgeu	s6,a5,158b4 <_fwalk_reent+0xac>
   1589c:	00e49783          	lh	a5,14(s1)
   158a0:	01778a63          	beq	a5,s7,158b4 <_fwalk_reent+0xac>
   158a4:	00048593          	addi	a1,s1,0
   158a8:	000a0513          	addi	a0,s4,0
   158ac:	000a80e7          	jalr	ra,0(s5)
   158b0:	00a96933          	or	s2,s2,a0
   158b4:	06848493          	addi	s1,s1,104
   158b8:	fcdff06f          	jal	zero,15884 <_fwalk_reent+0x7c>

000158bc <eclear>:
   158bc:	01450793          	addi	a5,a0,20
   158c0:	00250513          	addi	a0,a0,2
   158c4:	fe051f23          	sh	zero,-2(a0)
   158c8:	fef51ce3          	bne	a0,a5,158c0 <eclear+0x4>
   158cc:	00008067          	jalr	zero,0(ra)

000158d0 <emov>:
   158d0:	00000793          	addi	a5,zero,0
   158d4:	01400713          	addi	a4,zero,20
   158d8:	00f506b3          	add	a3,a0,a5
   158dc:	0006d603          	lhu	a2,0(a3)
   158e0:	00f586b3          	add	a3,a1,a5
   158e4:	00278793          	addi	a5,a5,2
   158e8:	00c69023          	sh	a2,0(a3)
   158ec:	fee796e3          	bne	a5,a4,158d8 <emov+0x8>
   158f0:	00008067          	jalr	zero,0(ra)

000158f4 <ecleaz>:
   158f4:	01a50793          	addi	a5,a0,26
   158f8:	00250513          	addi	a0,a0,2
   158fc:	fe051f23          	sh	zero,-2(a0)
   15900:	fef51ce3          	bne	a0,a5,158f8 <ecleaz+0x4>
   15904:	00008067          	jalr	zero,0(ra)

00015908 <emovz>:
   15908:	00000793          	addi	a5,zero,0
   1590c:	01800713          	addi	a4,zero,24
   15910:	00f506b3          	add	a3,a0,a5
   15914:	0006d603          	lhu	a2,0(a3)
   15918:	00f586b3          	add	a3,a1,a5
   1591c:	00278793          	addi	a5,a5,2
   15920:	00c69023          	sh	a2,0(a3)
   15924:	fee796e3          	bne	a5,a4,15910 <emovz+0x8>
   15928:	00059c23          	sh	zero,24(a1)
   1592c:	00008067          	jalr	zero,0(ra)

00015930 <ecmpm>:
   15930:	00400793          	addi	a5,zero,4
   15934:	01a00613          	addi	a2,zero,26
   15938:	00f50733          	add	a4,a0,a5
   1593c:	00075683          	lhu	a3,0(a4)
   15940:	00f58733          	add	a4,a1,a5
   15944:	00075703          	lhu	a4,0(a4)
   15948:	00e68a63          	beq	a3,a4,1595c <ecmpm+0x2c>
   1594c:	00100513          	addi	a0,zero,1
   15950:	00d76c63          	bltu	a4,a3,15968 <ecmpm+0x38>
   15954:	fff00513          	addi	a0,zero,-1
   15958:	00008067          	jalr	zero,0(ra)
   1595c:	00278793          	addi	a5,a5,2
   15960:	fcc79ce3          	bne	a5,a2,15938 <ecmpm+0x8>
   15964:	00000513          	addi	a0,zero,0
   15968:	00008067          	jalr	zero,0(ra)

0001596c <eshdn1>:
   1596c:	00450693          	addi	a3,a0,4
   15970:	00000793          	addi	a5,zero,0
   15974:	01a50513          	addi	a0,a0,26
   15978:	ffff8637          	lui	a2,0xffff8
   1597c:	0006d703          	lhu	a4,0(a3)
   15980:	00177593          	andi	a1,a4,1
   15984:	00058463          	beq	a1,zero,1598c <eshdn1+0x20>
   15988:	0017e793          	ori	a5,a5,1
   1598c:	0027f593          	andi	a1,a5,2
   15990:	00175713          	srli	a4,a4,0x1
   15994:	02059063          	bne	a1,zero,159b4 <eshdn1+0x48>
   15998:	00179793          	slli	a5,a5,0x1
   1599c:	00e69023          	sh	a4,0(a3)
   159a0:	01079793          	slli	a5,a5,0x10
   159a4:	00268693          	addi	a3,a3,2
   159a8:	0107d793          	srli	a5,a5,0x10
   159ac:	fcd518e3          	bne	a0,a3,1597c <eshdn1+0x10>
   159b0:	00008067          	jalr	zero,0(ra)
   159b4:	00c76733          	or	a4,a4,a2
   159b8:	fe1ff06f          	jal	zero,15998 <eshdn1+0x2c>

000159bc <eshup1>:
   159bc:	01650693          	addi	a3,a0,22
   159c0:	00000713          	addi	a4,zero,0
   159c4:	0026d783          	lhu	a5,2(a3)
   159c8:	01079613          	slli	a2,a5,0x10
   159cc:	41065613          	srai	a2,a2,0x10
   159d0:	00065463          	bge	a2,zero,159d8 <eshup1+0x1c>
   159d4:	00176713          	ori	a4,a4,1
   159d8:	00179793          	slli	a5,a5,0x1
   159dc:	01079793          	slli	a5,a5,0x10
   159e0:	00277613          	andi	a2,a4,2
   159e4:	0107d793          	srli	a5,a5,0x10
   159e8:	02061063          	bne	a2,zero,15a08 <eshup1+0x4c>
   159ec:	00171713          	slli	a4,a4,0x1
   159f0:	00f69123          	sh	a5,2(a3)
   159f4:	01071713          	slli	a4,a4,0x10
   159f8:	ffe68693          	addi	a3,a3,-2
   159fc:	01075713          	srli	a4,a4,0x10
   15a00:	fcd512e3          	bne	a0,a3,159c4 <eshup1+0x8>
   15a04:	00008067          	jalr	zero,0(ra)
   15a08:	0017e793          	ori	a5,a5,1
   15a0c:	fe1ff06f          	jal	zero,159ec <eshup1+0x30>

00015a10 <eshdn8>:
   15a10:	00450793          	addi	a5,a0,4
   15a14:	00000713          	addi	a4,zero,0
   15a18:	01a50513          	addi	a0,a0,26
   15a1c:	0007d683          	lhu	a3,0(a5)
   15a20:	00278793          	addi	a5,a5,2
   15a24:	0086d613          	srli	a2,a3,0x8
   15a28:	00c76733          	or	a4,a4,a2
   15a2c:	fee79f23          	sh	a4,-2(a5)
   15a30:	00869713          	slli	a4,a3,0x8
   15a34:	01071713          	slli	a4,a4,0x10
   15a38:	01075713          	srli	a4,a4,0x10
   15a3c:	fef510e3          	bne	a0,a5,15a1c <eshdn8+0xc>
   15a40:	00008067          	jalr	zero,0(ra)

00015a44 <eshup8>:
   15a44:	01650793          	addi	a5,a0,22
   15a48:	00000713          	addi	a4,zero,0
   15a4c:	0027d683          	lhu	a3,2(a5)
   15a50:	ffe78793          	addi	a5,a5,-2
   15a54:	00869613          	slli	a2,a3,0x8
   15a58:	00c76733          	or	a4,a4,a2
   15a5c:	00e79223          	sh	a4,4(a5)
   15a60:	0086d713          	srli	a4,a3,0x8
   15a64:	fef514e3          	bne	a0,a5,15a4c <eshup8+0x8>
   15a68:	00008067          	jalr	zero,0(ra)

00015a6c <eshup6>:
   15a6c:	00450793          	addi	a5,a0,4
   15a70:	01850713          	addi	a4,a0,24
   15a74:	00278793          	addi	a5,a5,2
   15a78:	0007d683          	lhu	a3,0(a5)
   15a7c:	fed79f23          	sh	a3,-2(a5)
   15a80:	fef71ae3          	bne	a4,a5,15a74 <eshup6+0x8>
   15a84:	00051c23          	sh	zero,24(a0)
   15a88:	00008067          	jalr	zero,0(ra)

00015a8c <eshdn6>:
   15a8c:	01850793          	addi	a5,a0,24
   15a90:	00450713          	addi	a4,a0,4
   15a94:	ffe78793          	addi	a5,a5,-2
   15a98:	0007d683          	lhu	a3,0(a5)
   15a9c:	00d79123          	sh	a3,2(a5)
   15aa0:	fef71ae3          	bne	a4,a5,15a94 <eshdn6+0x8>
   15aa4:	00051223          	sh	zero,4(a0)
   15aa8:	00008067          	jalr	zero,0(ra)

00015aac <eaddm>:
   15aac:	01858593          	addi	a1,a1,24
   15ab0:	01650713          	addi	a4,a0,22
   15ab4:	00000693          	addi	a3,zero,0
   15ab8:	00275783          	lhu	a5,2(a4)
   15abc:	0005d603          	lhu	a2,0(a1)
   15ac0:	ffe70713          	addi	a4,a4,-2
   15ac4:	ffe58593          	addi	a1,a1,-2
   15ac8:	00c787b3          	add	a5,a5,a2
   15acc:	00d787b3          	add	a5,a5,a3
   15ad0:	00f59123          	sh	a5,2(a1)
   15ad4:	0107d793          	srli	a5,a5,0x10
   15ad8:	0017f693          	andi	a3,a5,1
   15adc:	fce51ee3          	bne	a0,a4,15ab8 <eaddm+0xc>
   15ae0:	00008067          	jalr	zero,0(ra)

00015ae4 <esubm>:
   15ae4:	01858593          	addi	a1,a1,24
   15ae8:	01650713          	addi	a4,a0,22
   15aec:	00000693          	addi	a3,zero,0
   15af0:	0005d783          	lhu	a5,0(a1)
   15af4:	ffe70713          	addi	a4,a4,-2
   15af8:	ffe58593          	addi	a1,a1,-2
   15afc:	40d787b3          	sub	a5,a5,a3
   15b00:	00475683          	lhu	a3,4(a4)
   15b04:	40d787b3          	sub	a5,a5,a3
   15b08:	00f59123          	sh	a5,2(a1)
   15b0c:	0107d793          	srli	a5,a5,0x10
   15b10:	0017f693          	andi	a3,a5,1
   15b14:	fce51ee3          	bne	a0,a4,15af0 <esubm+0xc>
   15b18:	00008067          	jalr	zero,0(ra)

00015b1c <m16m>:
   15b1c:	fb010113          	addi	sp,sp,-80
   15b20:	03312e23          	sw	s3,60(sp)
   15b24:	000109b7          	lui	s3,0x10
   15b28:	04812423          	sw	s0,72(sp)
   15b2c:	04912223          	sw	s1,68(sp)
   15b30:	05212023          	sw	s2,64(sp)
   15b34:	03412c23          	sw	s4,56(sp)
   15b38:	04112623          	sw	ra,76(sp)
   15b3c:	00050a13          	addi	s4,a0,0
   15b40:	02011523          	sh	zero,42(sp)
   15b44:	02011623          	sh	zero,44(sp)
   15b48:	01858493          	addi	s1,a1,24
   15b4c:	00458913          	addi	s2,a1,4
   15b50:	02c10413          	addi	s0,sp,44
   15b54:	fff98993          	addi	s3,s3,-1 # ffff <main-0x75>
   15b58:	0004d503          	lhu	a0,0(s1)
   15b5c:	ffe40413          	addi	s0,s0,-2
   15b60:	ffe48493          	addi	s1,s1,-2
   15b64:	04051863          	bne	a0,zero,15bb4 <m16m+0x98>
   15b68:	fe041f23          	sh	zero,-2(s0)
   15b6c:	fe9916e3          	bne	s2,s1,15b58 <m16m+0x3c>
   15b70:	00400793          	addi	a5,zero,4
   15b74:	01a00713          	addi	a4,zero,26
   15b78:	01410593          	addi	a1,sp,20
   15b7c:	00f585b3          	add	a1,a1,a5
   15b80:	0005d583          	lhu	a1,0(a1)
   15b84:	00f606b3          	add	a3,a2,a5
   15b88:	00278793          	addi	a5,a5,2
   15b8c:	00b69023          	sh	a1,0(a3)
   15b90:	fee794e3          	bne	a5,a4,15b78 <m16m+0x5c>
   15b94:	04c12083          	lw	ra,76(sp)
   15b98:	04812403          	lw	s0,72(sp)
   15b9c:	04412483          	lw	s1,68(sp)
   15ba0:	04012903          	lw	s2,64(sp)
   15ba4:	03c12983          	lw	s3,60(sp)
   15ba8:	03812a03          	lw	s4,56(sp)
   15bac:	05010113          	addi	sp,sp,80
   15bb0:	00008067          	jalr	zero,0(ra)
   15bb4:	000a0593          	addi	a1,s4,0
   15bb8:	00c12623          	sw	a2,12(sp)
   15bbc:	3780d0ef          	jal	ra,22f34 <__mulsi3>
   15bc0:	00245703          	lhu	a4,2(s0)
   15bc4:	013577b3          	and	a5,a0,s3
   15bc8:	01055513          	srli	a0,a0,0x10
   15bcc:	00e787b3          	add	a5,a5,a4
   15bd0:	00045703          	lhu	a4,0(s0)
   15bd4:	00f41123          	sh	a5,2(s0)
   15bd8:	0107d793          	srli	a5,a5,0x10
   15bdc:	00e50533          	add	a0,a0,a4
   15be0:	00f50533          	add	a0,a0,a5
   15be4:	00a41023          	sh	a0,0(s0)
   15be8:	01055513          	srli	a0,a0,0x10
   15bec:	fea41f23          	sh	a0,-2(s0)
   15bf0:	00c12603          	lw	a2,12(sp)
   15bf4:	f79ff06f          	jal	zero,15b6c <m16m+0x50>

00015bf8 <eisnan>:
   15bf8:	01255783          	lhu	a5,18(a0)
   15bfc:	fff7c793          	xori	a5,a5,-1
   15c00:	01179713          	slli	a4,a5,0x11
   15c04:	00071c63          	bne	a4,zero,15c1c <eisnan+0x24>
   15c08:	01250793          	addi	a5,a0,18
   15c0c:	00250513          	addi	a0,a0,2
   15c10:	ffe55703          	lhu	a4,-2(a0)
   15c14:	00071863          	bne	a4,zero,15c24 <eisnan+0x2c>
   15c18:	fea79ae3          	bne	a5,a0,15c0c <eisnan+0x14>
   15c1c:	00000513          	addi	a0,zero,0
   15c20:	00008067          	jalr	zero,0(ra)
   15c24:	00100513          	addi	a0,zero,1
   15c28:	00008067          	jalr	zero,0(ra)

00015c2c <eisneg>:
   15c2c:	ff010113          	addi	sp,sp,-16
   15c30:	00812423          	sw	s0,8(sp)
   15c34:	00112623          	sw	ra,12(sp)
   15c38:	00050413          	addi	s0,a0,0
   15c3c:	fbdff0ef          	jal	ra,15bf8 <eisnan>
   15c40:	00051e63          	bne	a0,zero,15c5c <eisneg+0x30>
   15c44:	01241503          	lh	a0,18(s0)
   15c48:	01f55513          	srli	a0,a0,0x1f
   15c4c:	00c12083          	lw	ra,12(sp)
   15c50:	00812403          	lw	s0,8(sp)
   15c54:	01010113          	addi	sp,sp,16
   15c58:	00008067          	jalr	zero,0(ra)
   15c5c:	00000513          	addi	a0,zero,0
   15c60:	fedff06f          	jal	zero,15c4c <eisneg+0x20>

00015c64 <emovi>:
   15c64:	01251783          	lh	a5,18(a0)
   15c68:	ff010113          	addi	sp,sp,-16
   15c6c:	00112623          	sw	ra,12(sp)
   15c70:	00812423          	sw	s0,8(sp)
   15c74:	00912223          	sw	s1,4(sp)
   15c78:	01212023          	sw	s2,0(sp)
   15c7c:	0607d863          	bge	a5,zero,15cec <emovi+0x88>
   15c80:	fff00793          	addi	a5,zero,-1
   15c84:	00f59023          	sh	a5,0(a1)
   15c88:	01255703          	lhu	a4,18(a0)
   15c8c:	000087b7          	lui	a5,0x8
   15c90:	fff78793          	addi	a5,a5,-1 # 7fff <main-0x8075>
   15c94:	00e7f733          	and	a4,a5,a4
   15c98:	00e59123          	sh	a4,2(a1)
   15c9c:	01050913          	addi	s2,a0,16
   15ca0:	06f71663          	bne	a4,a5,15d0c <emovi+0xa8>
   15ca4:	00058413          	addi	s0,a1,0
   15ca8:	00050493          	addi	s1,a0,0
   15cac:	f4dff0ef          	jal	ra,15bf8 <eisnan>
   15cb0:	04050263          	beq	a0,zero,15cf4 <emovi+0x90>
   15cb4:	00640793          	addi	a5,s0,6
   15cb8:	00041223          	sh	zero,4(s0)
   15cbc:	ffc48513          	addi	a0,s1,-4
   15cc0:	ffe90913          	addi	s2,s2,-2
   15cc4:	00295703          	lhu	a4,2(s2)
   15cc8:	00278793          	addi	a5,a5,2
   15ccc:	fee79f23          	sh	a4,-2(a5)
   15cd0:	fea918e3          	bne	s2,a0,15cc0 <emovi+0x5c>
   15cd4:	00c12083          	lw	ra,12(sp)
   15cd8:	00812403          	lw	s0,8(sp)
   15cdc:	00412483          	lw	s1,4(sp)
   15ce0:	00012903          	lw	s2,0(sp)
   15ce4:	01010113          	addi	sp,sp,16
   15ce8:	00008067          	jalr	zero,0(ra)
   15cec:	00059023          	sh	zero,0(a1)
   15cf0:	f99ff06f          	jal	zero,15c88 <emovi+0x24>
   15cf4:	00440793          	addi	a5,s0,4
   15cf8:	01a40593          	addi	a1,s0,26
   15cfc:	00278793          	addi	a5,a5,2
   15d00:	fe079f23          	sh	zero,-2(a5)
   15d04:	feb79ce3          	bne	a5,a1,15cfc <emovi+0x98>
   15d08:	fcdff06f          	jal	zero,15cd4 <emovi+0x70>
   15d0c:	00658793          	addi	a5,a1,6
   15d10:	00059223          	sh	zero,4(a1)
   15d14:	ffe50513          	addi	a0,a0,-2
   15d18:	ffe90913          	addi	s2,s2,-2
   15d1c:	00295703          	lhu	a4,2(s2)
   15d20:	00278793          	addi	a5,a5,2
   15d24:	fee79f23          	sh	a4,-2(a5)
   15d28:	fea918e3          	bne	s2,a0,15d18 <emovi+0xb4>
   15d2c:	00059c23          	sh	zero,24(a1)
   15d30:	fa5ff06f          	jal	zero,15cd4 <emovi+0x70>

00015d34 <ecmp>:
   15d34:	fb010113          	addi	sp,sp,-80
   15d38:	04912223          	sw	s1,68(sp)
   15d3c:	05212023          	sw	s2,64(sp)
   15d40:	04112623          	sw	ra,76(sp)
   15d44:	04812423          	sw	s0,72(sp)
   15d48:	00050913          	addi	s2,a0,0
   15d4c:	00058493          	addi	s1,a1,0
   15d50:	ea9ff0ef          	jal	ra,15bf8 <eisnan>
   15d54:	0e051063          	bne	a0,zero,15e34 <ecmp+0x100>
   15d58:	00048513          	addi	a0,s1,0
   15d5c:	e9dff0ef          	jal	ra,15bf8 <eisnan>
   15d60:	00050413          	addi	s0,a0,0
   15d64:	0c051863          	bne	a0,zero,15e34 <ecmp+0x100>
   15d68:	00810593          	addi	a1,sp,8
   15d6c:	00090513          	addi	a0,s2,0
   15d70:	ef5ff0ef          	jal	ra,15c64 <emovi>
   15d74:	02410593          	addi	a1,sp,36
   15d78:	00048513          	addi	a0,s1,0
   15d7c:	ee9ff0ef          	jal	ra,15c64 <emovi>
   15d80:	00815703          	lhu	a4,8(sp)
   15d84:	02415783          	lhu	a5,36(sp)
   15d88:	06e78063          	beq	a5,a4,15de8 <ecmp+0xb4>
   15d8c:	00200793          	addi	a5,zero,2
   15d90:	01800693          	addi	a3,zero,24
   15d94:	00810613          	addi	a2,sp,8
   15d98:	00f60633          	add	a2,a2,a5
   15d9c:	00065603          	lhu	a2,0(a2) # ffff8000 <__BSS_END__+0xfffd2408>
   15da0:	02061c63          	bne	a2,zero,15dd8 <ecmp+0xa4>
   15da4:	02410613          	addi	a2,sp,36
   15da8:	00f60633          	add	a2,a2,a5
   15dac:	00065603          	lhu	a2,0(a2)
   15db0:	02061463          	bne	a2,zero,15dd8 <ecmp+0xa4>
   15db4:	00278793          	addi	a5,a5,2
   15db8:	fcd79ee3          	bne	a5,a3,15d94 <ecmp+0x60>
   15dbc:	00040513          	addi	a0,s0,0
   15dc0:	04c12083          	lw	ra,76(sp)
   15dc4:	04812403          	lw	s0,72(sp)
   15dc8:	04412483          	lw	s1,68(sp)
   15dcc:	04012903          	lw	s2,64(sp)
   15dd0:	05010113          	addi	sp,sp,80
   15dd4:	00008067          	jalr	zero,0(ra)
   15dd8:	00100413          	addi	s0,zero,1
   15ddc:	fe0700e3          	beq	a4,zero,15dbc <ecmp+0x88>
   15de0:	fff00413          	addi	s0,zero,-1
   15de4:	fd9ff06f          	jal	zero,15dbc <ecmp+0x88>
   15de8:	00100713          	addi	a4,zero,1
   15dec:	00078463          	beq	a5,zero,15df4 <ecmp+0xc0>
   15df0:	fff00713          	addi	a4,zero,-1
   15df4:	00000793          	addi	a5,zero,0
   15df8:	01800593          	addi	a1,zero,24
   15dfc:	00810693          	addi	a3,sp,8
   15e00:	00f686b3          	add	a3,a3,a5
   15e04:	0006d603          	lhu	a2,0(a3)
   15e08:	02410693          	addi	a3,sp,36
   15e0c:	00f686b3          	add	a3,a3,a5
   15e10:	0006d683          	lhu	a3,0(a3)
   15e14:	00d60a63          	beq	a2,a3,15e28 <ecmp+0xf4>
   15e18:	00070413          	addi	s0,a4,0
   15e1c:	fac6e0e3          	bltu	a3,a2,15dbc <ecmp+0x88>
   15e20:	40e00433          	sub	s0,zero,a4
   15e24:	f99ff06f          	jal	zero,15dbc <ecmp+0x88>
   15e28:	00278793          	addi	a5,a5,2
   15e2c:	fcb798e3          	bne	a5,a1,15dfc <ecmp+0xc8>
   15e30:	f8dff06f          	jal	zero,15dbc <ecmp+0x88>
   15e34:	ffe00413          	addi	s0,zero,-2
   15e38:	f85ff06f          	jal	zero,15dbc <ecmp+0x88>

00015e3c <eisinf>:
   15e3c:	01255783          	lhu	a5,18(a0)
   15e40:	fff7c793          	xori	a5,a5,-1
   15e44:	01179713          	slli	a4,a5,0x11
   15e48:	02071063          	bne	a4,zero,15e68 <eisinf+0x2c>
   15e4c:	ff010113          	addi	sp,sp,-16
   15e50:	00112623          	sw	ra,12(sp)
   15e54:	da5ff0ef          	jal	ra,15bf8 <eisnan>
   15e58:	00c12083          	lw	ra,12(sp)
   15e5c:	00153513          	sltiu	a0,a0,1
   15e60:	01010113          	addi	sp,sp,16
   15e64:	00008067          	jalr	zero,0(ra)
   15e68:	00000513          	addi	a0,zero,0
   15e6c:	00008067          	jalr	zero,0(ra)

00015e70 <einfin.isra.2>:
   15e70:	01250713          	addi	a4,a0,18
   15e74:	00050793          	addi	a5,a0,0
   15e78:	00278793          	addi	a5,a5,2
   15e7c:	fe079f23          	sh	zero,-2(a5)
   15e80:	fee79ce3          	bne	a5,a4,15e78 <einfin.isra.2+0x8>
   15e84:	01255783          	lhu	a5,18(a0)
   15e88:	00008737          	lui	a4,0x8
   15e8c:	fff70713          	addi	a4,a4,-1 # 7fff <main-0x8075>
   15e90:	00e7e7b3          	or	a5,a5,a4
   15e94:	00f51923          	sh	a5,18(a0)
   15e98:	00008067          	jalr	zero,0(ra)

00015e9c <eshift.part.3>:
   15e9c:	fe010113          	addi	sp,sp,-32
   15ea0:	00812c23          	sw	s0,24(sp)
   15ea4:	01312623          	sw	s3,12(sp)
   15ea8:	00112e23          	sw	ra,28(sp)
   15eac:	00912a23          	sw	s1,20(sp)
   15eb0:	01212823          	sw	s2,16(sp)
   15eb4:	01412423          	sw	s4,8(sp)
   15eb8:	01512223          	sw	s5,4(sp)
   15ebc:	00050993          	addi	s3,a0,0
   15ec0:	00058413          	addi	s0,a1,0
   15ec4:	0e05d463          	bge	a1,zero,15fac <eshift.part.3+0x110>
   15ec8:	40b004b3          	sub	s1,zero,a1
   15ecc:	00048a13          	addi	s4,s1,0
   15ed0:	00000913          	addi	s2,zero,0
   15ed4:	00f00a93          	addi	s5,zero,15
   15ed8:	034ac663          	blt	s5,s4,15f04 <eshift.part.3+0x68>
   15edc:	ff04f493          	andi	s1,s1,-16
   15ee0:	409004b3          	sub	s1,zero,s1
   15ee4:	40848433          	sub	s0,s1,s0
   15ee8:	00040493          	addi	s1,s0,0
   15eec:	00700a13          	addi	s4,zero,7
   15ef0:	029a4663          	blt	s4,s1,15f1c <eshift.part.3+0x80>
   15ef4:	00747413          	andi	s0,s0,7
   15ef8:	02041e63          	bne	s0,zero,15f34 <eshift.part.3+0x98>
   15efc:	01203533          	sltu	a0,zero,s2
   15f00:	0880006f          	jal	zero,15f88 <eshift.part.3+0xec>
   15f04:	0189d783          	lhu	a5,24(s3)
   15f08:	00098513          	addi	a0,s3,0
   15f0c:	ff0a0a13          	addi	s4,s4,-16
   15f10:	00f96933          	or	s2,s2,a5
   15f14:	b79ff0ef          	jal	ra,15a8c <eshdn6>
   15f18:	fc1ff06f          	jal	zero,15ed8 <eshift.part.3+0x3c>
   15f1c:	0189c783          	lbu	a5,24(s3)
   15f20:	00098513          	addi	a0,s3,0
   15f24:	ff848493          	addi	s1,s1,-8
   15f28:	0127e933          	or	s2,a5,s2
   15f2c:	ae5ff0ef          	jal	ra,15a10 <eshdn8>
   15f30:	fc1ff06f          	jal	zero,15ef0 <eshift.part.3+0x54>
   15f34:	0189d783          	lhu	a5,24(s3)
   15f38:	00098513          	addi	a0,s3,0
   15f3c:	fff40413          	addi	s0,s0,-1
   15f40:	0017f793          	andi	a5,a5,1
   15f44:	0127e933          	or	s2,a5,s2
   15f48:	a25ff0ef          	jal	ra,1596c <eshdn1>
   15f4c:	fadff06f          	jal	zero,15ef8 <eshift.part.3+0x5c>
   15f50:	00098513          	addi	a0,s3,0
   15f54:	b19ff0ef          	jal	ra,15a6c <eshup6>
   15f58:	ff048493          	addi	s1,s1,-16
   15f5c:	fe994ae3          	blt	s2,s1,15f50 <eshift.part.3+0xb4>
   15f60:	00f47413          	andi	s0,s0,15
   15f64:	00040493          	addi	s1,s0,0
   15f68:	00700913          	addi	s2,zero,7
   15f6c:	04994663          	blt	s2,s1,15fb8 <eshift.part.3+0x11c>
   15f70:	00345593          	srli	a1,s0,0x3
   15f74:	40b005b3          	sub	a1,zero,a1
   15f78:	00359593          	slli	a1,a1,0x3
   15f7c:	00b40433          	add	s0,s0,a1
   15f80:	04041463          	bne	s0,zero,15fc8 <eshift.part.3+0x12c>
   15f84:	00000513          	addi	a0,zero,0
   15f88:	01c12083          	lw	ra,28(sp)
   15f8c:	01812403          	lw	s0,24(sp)
   15f90:	01412483          	lw	s1,20(sp)
   15f94:	01012903          	lw	s2,16(sp)
   15f98:	00c12983          	lw	s3,12(sp)
   15f9c:	00812a03          	lw	s4,8(sp)
   15fa0:	00412a83          	lw	s5,4(sp)
   15fa4:	02010113          	addi	sp,sp,32
   15fa8:	00008067          	jalr	zero,0(ra)
   15fac:	00058493          	addi	s1,a1,0
   15fb0:	00f00913          	addi	s2,zero,15
   15fb4:	fa9ff06f          	jal	zero,15f5c <eshift.part.3+0xc0>
   15fb8:	00098513          	addi	a0,s3,0
   15fbc:	a89ff0ef          	jal	ra,15a44 <eshup8>
   15fc0:	ff848493          	addi	s1,s1,-8
   15fc4:	fa9ff06f          	jal	zero,15f6c <eshift.part.3+0xd0>
   15fc8:	00098513          	addi	a0,s3,0
   15fcc:	9f1ff0ef          	jal	ra,159bc <eshup1>
   15fd0:	fff40413          	addi	s0,s0,-1
   15fd4:	fadff06f          	jal	zero,15f80 <eshift.part.3+0xe4>

00015fd8 <enormlz>:
   15fd8:	00455783          	lhu	a5,4(a0)
   15fdc:	ff010113          	addi	sp,sp,-16
   15fe0:	00912223          	sw	s1,4(sp)
   15fe4:	00112623          	sw	ra,12(sp)
   15fe8:	00812423          	sw	s0,8(sp)
   15fec:	01212023          	sw	s2,0(sp)
   15ff0:	00050493          	addi	s1,a0,0
   15ff4:	02078063          	beq	a5,zero,16014 <enormlz+0x3c>
   15ff8:	f007f793          	andi	a5,a5,-256
   15ffc:	00000413          	addi	s0,zero,0
   16000:	00078663          	beq	a5,zero,1600c <enormlz+0x34>
   16004:	a0dff0ef          	jal	ra,15a10 <eshdn8>
   16008:	ff800413          	addi	s0,zero,-8
   1600c:	f6f00913          	addi	s2,zero,-145
   16010:	0940006f          	jal	zero,160a4 <enormlz+0xcc>
   16014:	00651783          	lh	a5,6(a0)
   16018:	00000413          	addi	s0,zero,0
   1601c:	0a000913          	addi	s2,zero,160
   16020:	0207d863          	bge	a5,zero,16050 <enormlz+0x78>
   16024:	00040513          	addi	a0,s0,0
   16028:	00c12083          	lw	ra,12(sp)
   1602c:	00812403          	lw	s0,8(sp)
   16030:	00412483          	lw	s1,4(sp)
   16034:	00012903          	lw	s2,0(sp)
   16038:	01010113          	addi	sp,sp,16
   1603c:	00008067          	jalr	zero,0(ra)
   16040:	00048513          	addi	a0,s1,0
   16044:	01040413          	addi	s0,s0,16
   16048:	a25ff0ef          	jal	ra,15a6c <eshup6>
   1604c:	fd240ce3          	beq	s0,s2,16024 <enormlz+0x4c>
   16050:	0064d783          	lhu	a5,6(s1)
   16054:	fe0786e3          	beq	a5,zero,16040 <enormlz+0x68>
   16058:	0064d783          	lhu	a5,6(s1)
   1605c:	f007f793          	andi	a5,a5,-256
   16060:	02078263          	beq	a5,zero,16084 <enormlz+0xac>
   16064:	0a000913          	addi	s2,zero,160
   16068:	00649783          	lh	a5,6(s1)
   1606c:	fa07cce3          	blt	a5,zero,16024 <enormlz+0x4c>
   16070:	00048513          	addi	a0,s1,0
   16074:	00140413          	addi	s0,s0,1
   16078:	945ff0ef          	jal	ra,159bc <eshup1>
   1607c:	fe8956e3          	bge	s2,s0,16068 <enormlz+0x90>
   16080:	fa5ff06f          	jal	zero,16024 <enormlz+0x4c>
   16084:	00048513          	addi	a0,s1,0
   16088:	9bdff0ef          	jal	ra,15a44 <eshup8>
   1608c:	00840413          	addi	s0,s0,8
   16090:	fc9ff06f          	jal	zero,16058 <enormlz+0x80>
   16094:	00048513          	addi	a0,s1,0
   16098:	fff40413          	addi	s0,s0,-1
   1609c:	8d1ff0ef          	jal	ra,1596c <eshdn1>
   160a0:	f92402e3          	beq	s0,s2,16024 <enormlz+0x4c>
   160a4:	0044d783          	lhu	a5,4(s1)
   160a8:	fe0796e3          	bne	a5,zero,16094 <enormlz+0xbc>
   160ac:	f79ff06f          	jal	zero,16024 <enormlz+0x4c>

000160b0 <enan.constprop.12>:
   160b0:	01050713          	addi	a4,a0,16
   160b4:	00050793          	addi	a5,a0,0
   160b8:	00278793          	addi	a5,a5,2
   160bc:	fe079f23          	sh	zero,-2(a5)
   160c0:	fee79ce3          	bne	a5,a4,160b8 <enan.constprop.12+0x8>
   160c4:	7fffc7b7          	lui	a5,0x7fffc
   160c8:	00f52823          	sw	a5,16(a0)
   160cc:	00008067          	jalr	zero,0(ra)

000160d0 <emovo.isra.6>:
   160d0:	00050713          	addi	a4,a0,0
   160d4:	00075683          	lhu	a3,0(a4)
   160d8:	00058513          	addi	a0,a1,0
   160dc:	00275783          	lhu	a5,2(a4)
   160e0:	00068663          	beq	a3,zero,160ec <emovo.isra.6+0x1c>
   160e4:	ffff86b7          	lui	a3,0xffff8
   160e8:	00d7e7b3          	or	a5,a5,a3
   160ec:	00f51923          	sh	a5,18(a0)
   160f0:	00275603          	lhu	a2,2(a4)
   160f4:	000086b7          	lui	a3,0x8
   160f8:	fff68693          	addi	a3,a3,-1 # 7fff <main-0x8075>
   160fc:	00670793          	addi	a5,a4,6
   16100:	00d61e63          	bne	a2,a3,1611c <emovo.isra.6+0x4c>
   16104:	01a70713          	addi	a4,a4,26
   16108:	0007d683          	lhu	a3,0(a5) # 7fffc000 <__BSS_END__+0x7ffd6408>
   1610c:	02069863          	bne	a3,zero,1613c <emovo.isra.6+0x6c>
   16110:	00278793          	addi	a5,a5,2
   16114:	fee79ae3          	bne	a5,a4,16108 <emovo.isra.6+0x38>
   16118:	d59ff06f          	jal	zero,15e70 <einfin.isra.2>
   1611c:	01050513          	addi	a0,a0,16
   16120:	01870713          	addi	a4,a4,24
   16124:	00278793          	addi	a5,a5,2
   16128:	ffe7d683          	lhu	a3,-2(a5)
   1612c:	ffe50513          	addi	a0,a0,-2
   16130:	00d51123          	sh	a3,2(a0)
   16134:	fee798e3          	bne	a5,a4,16124 <emovo.isra.6+0x54>
   16138:	00008067          	jalr	zero,0(ra)
   1613c:	f75ff06f          	jal	zero,160b0 <enan.constprop.12>

00016140 <e113toe.isra.8>:
   16140:	fd010113          	addi	sp,sp,-48
   16144:	02912223          	sw	s1,36(sp)
   16148:	00050493          	addi	s1,a0,0
   1614c:	00410513          	addi	a0,sp,4
   16150:	02812423          	sw	s0,40(sp)
   16154:	02112623          	sw	ra,44(sp)
   16158:	00058413          	addi	s0,a1,0
   1615c:	f98ff0ef          	jal	ra,158f4 <ecleaz>
   16160:	00e4d703          	lhu	a4,14(s1)
   16164:	01071793          	slli	a5,a4,0x10
   16168:	4107d793          	srai	a5,a5,0x10
   1616c:	0407c263          	blt	a5,zero,161b0 <e113toe.isra.8+0x70>
   16170:	00011223          	sh	zero,4(sp)
   16174:	000086b7          	lui	a3,0x8
   16178:	fff68693          	addi	a3,a3,-1 # 7fff <main-0x8075>
   1617c:	00d77733          	and	a4,a4,a3
   16180:	00e48793          	addi	a5,s1,14
   16184:	06d71c63          	bne	a4,a3,161fc <e113toe.isra.8+0xbc>
   16188:	00048713          	addi	a4,s1,0
   1618c:	00075683          	lhu	a3,0(a4)
   16190:	02068663          	beq	a3,zero,161bc <e113toe.isra.8+0x7c>
   16194:	00040513          	addi	a0,s0,0
   16198:	f19ff0ef          	jal	ra,160b0 <enan.constprop.12>
   1619c:	02c12083          	lw	ra,44(sp)
   161a0:	02812403          	lw	s0,40(sp)
   161a4:	02412483          	lw	s1,36(sp)
   161a8:	03010113          	addi	sp,sp,48
   161ac:	00008067          	jalr	zero,0(ra)
   161b0:	fff00793          	addi	a5,zero,-1
   161b4:	00f11223          	sh	a5,4(sp)
   161b8:	fbdff06f          	jal	zero,16174 <e113toe.isra.8+0x34>
   161bc:	00270713          	addi	a4,a4,2
   161c0:	fce796e3          	bne	a5,a4,1618c <e113toe.isra.8+0x4c>
   161c4:	00040513          	addi	a0,s0,0
   161c8:	ef4ff0ef          	jal	ra,158bc <eclear>
   161cc:	00040513          	addi	a0,s0,0
   161d0:	ca1ff0ef          	jal	ra,15e70 <einfin.isra.2>
   161d4:	00e49783          	lh	a5,14(s1)
   161d8:	fc07d2e3          	bge	a5,zero,1619c <e113toe.isra.8+0x5c>
   161dc:	00040513          	addi	a0,s0,0
   161e0:	a19ff0ef          	jal	ra,15bf8 <eisnan>
   161e4:	fa051ce3          	bne	a0,zero,1619c <e113toe.isra.8+0x5c>
   161e8:	01245783          	lhu	a5,18(s0)
   161ec:	ffff8737          	lui	a4,0xffff8
   161f0:	00e7c7b3          	xor	a5,a5,a4
   161f4:	00f41923          	sh	a5,18(s0)
   161f8:	fa5ff06f          	jal	zero,1619c <e113toe.isra.8+0x5c>
   161fc:	00e11323          	sh	a4,6(sp)
   16200:	00410693          	addi	a3,sp,4
   16204:	ffe78793          	addi	a5,a5,-2
   16208:	0007d603          	lhu	a2,0(a5)
   1620c:	00268693          	addi	a3,a3,2
   16210:	00c69223          	sh	a2,4(a3)
   16214:	fef498e3          	bne	s1,a5,16204 <e113toe.isra.8+0xc4>
   16218:	00071c63          	bne	a4,zero,16230 <e113toe.isra.8+0xf0>
   1621c:	00011423          	sh	zero,8(sp)
   16220:	00040593          	addi	a1,s0,0
   16224:	00410513          	addi	a0,sp,4
   16228:	ea9ff0ef          	jal	ra,160d0 <emovo.isra.6>
   1622c:	f71ff06f          	jal	zero,1619c <e113toe.isra.8+0x5c>
   16230:	00100793          	addi	a5,zero,1
   16234:	fff00593          	addi	a1,zero,-1
   16238:	00410513          	addi	a0,sp,4
   1623c:	00f11423          	sh	a5,8(sp)
   16240:	c5dff0ef          	jal	ra,15e9c <eshift.part.3>
   16244:	fddff06f          	jal	zero,16220 <e113toe.isra.8+0xe0>

00016248 <emdnorm>:
   16248:	fe010113          	addi	sp,sp,-32
   1624c:	00812c23          	sw	s0,24(sp)
   16250:	00912a23          	sw	s1,20(sp)
   16254:	01212823          	sw	s2,16(sp)
   16258:	01312623          	sw	s3,12(sp)
   1625c:	01412423          	sw	s4,8(sp)
   16260:	01512223          	sw	s5,4(sp)
   16264:	00068913          	addi	s2,a3,0
   16268:	00078413          	addi	s0,a5,0
   1626c:	00112e23          	sw	ra,28(sp)
   16270:	00050493          	addi	s1,a0,0
   16274:	00058993          	addi	s3,a1,0
   16278:	00060a13          	addi	s4,a2,0
   1627c:	00070a93          	addi	s5,a4,0 # ffff8000 <__BSS_END__+0xfffd2408>
   16280:	d59ff0ef          	jal	ra,15fd8 <enormlz>
   16284:	09000793          	addi	a5,zero,144
   16288:	40a90933          	sub	s2,s2,a0
   1628c:	04a7d463          	bge	a5,a0,162d4 <emdnorm+0x8c>
   16290:	000087b7          	lui	a5,0x8
   16294:	ffe78793          	addi	a5,a5,-2 # 7ffe <main-0x8076>
   16298:	0527cc63          	blt	a5,s2,162f0 <emdnorm+0xa8>
   1629c:	00248793          	addi	a5,s1,2
   162a0:	01a48493          	addi	s1,s1,26
   162a4:	00278793          	addi	a5,a5,2
   162a8:	fe079f23          	sh	zero,-2(a5)
   162ac:	fe979ce3          	bne	a5,s1,162a4 <emdnorm+0x5c>
   162b0:	01c12083          	lw	ra,28(sp)
   162b4:	01812403          	lw	s0,24(sp)
   162b8:	01412483          	lw	s1,20(sp)
   162bc:	01012903          	lw	s2,16(sp)
   162c0:	00c12983          	lw	s3,12(sp)
   162c4:	00812a03          	lw	s4,8(sp)
   162c8:	00412a83          	lw	s5,4(sp)
   162cc:	02010113          	addi	sp,sp,32
   162d0:	00008067          	jalr	zero,0(ra)
   162d4:	00095e63          	bge	s2,zero,162f0 <emdnorm+0xa8>
   162d8:	f7000793          	addi	a5,zero,-144
   162dc:	18f94463          	blt	s2,a5,16464 <emdnorm+0x21c>
   162e0:	00090593          	addi	a1,s2,0
   162e4:	00048513          	addi	a0,s1,0
   162e8:	bb5ff0ef          	jal	ra,15e9c <eshift.part.3>
   162ec:	18051863          	bne	a0,zero,1647c <emdnorm+0x234>
   162f0:	140a8063          	beq	s5,zero,16430 <emdnorm+0x1e8>
   162f4:	00442703          	lw	a4,4(s0)
   162f8:	00042783          	lw	a5,0(s0)
   162fc:	06f70663          	beq	a4,a5,16368 <emdnorm+0x120>
   16300:	01a40513          	addi	a0,s0,26
   16304:	df0ff0ef          	jal	ra,158f4 <ecleaz>
   16308:	00442783          	lw	a5,4(s0)
   1630c:	03800713          	addi	a4,zero,56
   16310:	1ce78663          	beq	a5,a4,164dc <emdnorm+0x294>
   16314:	16f74863          	blt	a4,a5,16484 <emdnorm+0x23c>
   16318:	01800713          	addi	a4,zero,24
   1631c:	1ee78e63          	beq	a5,a4,16518 <emdnorm+0x2d0>
   16320:	03500713          	addi	a4,zero,53
   16324:	1ce78a63          	beq	a5,a4,164f8 <emdnorm+0x2b0>
   16328:	00c00713          	addi	a4,zero,12
   1632c:	00e42423          	sw	a4,8(s0)
   16330:	80010737          	lui	a4,0x80010
   16334:	fff70713          	addi	a4,a4,-1 # 8000ffff <__BSS_END__+0x7ffea407>
   16338:	00e42a23          	sw	a4,20(s0)
   1633c:	00100713          	addi	a4,zero,1
   16340:	00e41c23          	sh	a4,24(s0)
   16344:	00b00713          	addi	a4,zero,11
   16348:	00e42623          	sw	a4,12(s0)
   1634c:	00c42703          	lw	a4,12(s0)
   16350:	01845683          	lhu	a3,24(s0)
   16354:	00870713          	addi	a4,a4,8
   16358:	00171713          	slli	a4,a4,0x1
   1635c:	00e40733          	add	a4,s0,a4
   16360:	00d71523          	sh	a3,10(a4)
   16364:	00f42023          	sw	a5,0(s0)
   16368:	03204263          	blt	zero,s2,1638c <emdnorm+0x144>
   1636c:	00442703          	lw	a4,4(s0)
   16370:	09000793          	addi	a5,zero,144
   16374:	00f70c63          	beq	a4,a5,1638c <emdnorm+0x144>
   16378:	0184d783          	lhu	a5,24(s1)
   1637c:	00048513          	addi	a0,s1,0
   16380:	0017f793          	andi	a5,a5,1
   16384:	00f9e9b3          	or	s3,s3,a5
   16388:	de4ff0ef          	jal	ra,1596c <eshdn1>
   1638c:	00842683          	lw	a3,8(s0)
   16390:	01445603          	lhu	a2,20(s0)
   16394:	00442583          	lw	a1,4(s0)
   16398:	00169713          	slli	a4,a3,0x1
   1639c:	00e48733          	add	a4,s1,a4
   163a0:	00075783          	lhu	a5,0(a4)
   163a4:	00c7f7b3          	and	a5,a5,a2
   163a8:	08f00613          	addi	a2,zero,143
   163ac:	00b64a63          	blt	a2,a1,163c0 <emdnorm+0x178>
   163b0:	00168693          	addi	a3,a3,1
   163b4:	00070613          	addi	a2,a4,0
   163b8:	00c00593          	addi	a1,zero,12
   163bc:	16d5d263          	bge	a1,a3,16520 <emdnorm+0x2d8>
   163c0:	01445683          	lhu	a3,20(s0)
   163c4:	00075603          	lhu	a2,0(a4)
   163c8:	fff6c693          	xori	a3,a3,-1
   163cc:	00c6f6b3          	and	a3,a3,a2
   163d0:	00d71023          	sh	a3,0(a4)
   163d4:	01645703          	lhu	a4,22(s0)
   163d8:	00f776b3          	and	a3,a4,a5
   163dc:	02068463          	beq	a3,zero,16404 <emdnorm+0x1bc>
   163e0:	16f71063          	bne	a4,a5,16540 <emdnorm+0x2f8>
   163e4:	14099c63          	bne	s3,zero,1653c <emdnorm+0x2f4>
   163e8:	00c42783          	lw	a5,12(s0)
   163ec:	01845703          	lhu	a4,24(s0)
   163f0:	00179793          	slli	a5,a5,0x1
   163f4:	00f487b3          	add	a5,s1,a5
   163f8:	0007d783          	lhu	a5,0(a5)
   163fc:	00e7f7b3          	and	a5,a5,a4
   16400:	14079063          	bne	a5,zero,16540 <emdnorm+0x2f8>
   16404:	01204c63          	blt	zero,s2,1641c <emdnorm+0x1d4>
   16408:	00442703          	lw	a4,4(s0)
   1640c:	09000793          	addi	a5,zero,144
   16410:	00f70663          	beq	a4,a5,1641c <emdnorm+0x1d4>
   16414:	00048513          	addi	a0,s1,0
   16418:	da4ff0ef          	jal	ra,159bc <eshup1>
   1641c:	0044d783          	lhu	a5,4(s1)
   16420:	00078863          	beq	a5,zero,16430 <emdnorm+0x1e8>
   16424:	00048513          	addi	a0,s1,0
   16428:	d44ff0ef          	jal	ra,1596c <eshdn1>
   1642c:	00190913          	addi	s2,s2,1
   16430:	000087b7          	lui	a5,0x8
   16434:	00049c23          	sh	zero,24(s1)
   16438:	ffe78793          	addi	a5,a5,-2 # 7ffe <main-0x8076>
   1643c:	1127da63          	bge	a5,s2,16550 <emdnorm+0x308>
   16440:	ffff87b7          	lui	a5,0xffff8
   16444:	fff7c793          	xori	a5,a5,-1
   16448:	00f49123          	sh	a5,2(s1)
   1644c:	00448793          	addi	a5,s1,4
   16450:	01848493          	addi	s1,s1,24
   16454:	00079023          	sh	zero,0(a5) # ffff8000 <__BSS_END__+0xfffd2408>
   16458:	00278793          	addi	a5,a5,2
   1645c:	fef49ce3          	bne	s1,a5,16454 <emdnorm+0x20c>
   16460:	e51ff06f          	jal	zero,162b0 <emdnorm+0x68>
   16464:	00248793          	addi	a5,s1,2
   16468:	01a48493          	addi	s1,s1,26
   1646c:	00278793          	addi	a5,a5,2
   16470:	fe079f23          	sh	zero,-2(a5)
   16474:	fe979ce3          	bne	a5,s1,1646c <emdnorm+0x224>
   16478:	e39ff06f          	jal	zero,162b0 <emdnorm+0x68>
   1647c:	00100993          	addi	s3,zero,1
   16480:	e71ff06f          	jal	zero,162f0 <emdnorm+0xa8>
   16484:	04000713          	addi	a4,zero,64
   16488:	02e78863          	beq	a5,a4,164b8 <emdnorm+0x270>
   1648c:	07100713          	addi	a4,zero,113
   16490:	e8e79ce3          	bne	a5,a4,16328 <emdnorm+0xe0>
   16494:	40008737          	lui	a4,0x40008
   16498:	fff70713          	addi	a4,a4,-1 # 40007fff <__BSS_END__+0x3ffe2407>
   1649c:	00a00693          	addi	a3,zero,10
   164a0:	00e42a23          	sw	a4,20(s0)
   164a4:	00d42423          	sw	a3,8(s0)
   164a8:	ffff8737          	lui	a4,0xffff8
   164ac:	00e41c23          	sh	a4,24(s0)
   164b0:	00d42623          	sw	a3,12(s0)
   164b4:	e99ff06f          	jal	zero,1634c <emdnorm+0x104>
   164b8:	00700713          	addi	a4,zero,7
   164bc:	00e42423          	sw	a4,8(s0)
   164c0:	80010737          	lui	a4,0x80010
   164c4:	fff70713          	addi	a4,a4,-1 # 8000ffff <__BSS_END__+0x7ffea407>
   164c8:	00e42a23          	sw	a4,20(s0)
   164cc:	00100713          	addi	a4,zero,1
   164d0:	00e41c23          	sh	a4,24(s0)
   164d4:	00600713          	addi	a4,zero,6
   164d8:	e71ff06f          	jal	zero,16348 <emdnorm+0x100>
   164dc:	00600693          	addi	a3,zero,6
   164e0:	00800737          	lui	a4,0x800
   164e4:	0ff70713          	addi	a4,a4,255 # 8000ff <__BSS_END__+0x7da507>
   164e8:	00e42a23          	sw	a4,20(s0)
   164ec:	00d42423          	sw	a3,8(s0)
   164f0:	10000713          	addi	a4,zero,256
   164f4:	fb9ff06f          	jal	zero,164ac <emdnorm+0x264>
   164f8:	04000737          	lui	a4,0x4000
   164fc:	7ff70713          	addi	a4,a4,2047 # 40007ff <__BSS_END__+0x3fdac07>
   16500:	00600693          	addi	a3,zero,6
   16504:	00e42a23          	sw	a4,20(s0)
   16508:	00001737          	lui	a4,0x1
   1650c:	00d42423          	sw	a3,8(s0)
   16510:	80070713          	addi	a4,a4,-2048 # 800 <main-0xf874>
   16514:	f99ff06f          	jal	zero,164ac <emdnorm+0x264>
   16518:	00400693          	addi	a3,zero,4
   1651c:	fc5ff06f          	jal	zero,164e0 <emdnorm+0x298>
   16520:	00265503          	lhu	a0,2(a2)
   16524:	00050463          	beq	a0,zero,1652c <emdnorm+0x2e4>
   16528:	0017e793          	ori	a5,a5,1
   1652c:	00061123          	sh	zero,2(a2)
   16530:	00168693          	addi	a3,a3,1
   16534:	00260613          	addi	a2,a2,2
   16538:	e85ff06f          	jal	zero,163bc <emdnorm+0x174>
   1653c:	ec0a14e3          	bne	s4,zero,16404 <emdnorm+0x1bc>
   16540:	00048593          	addi	a1,s1,0
   16544:	01a40513          	addi	a0,s0,26
   16548:	d64ff0ef          	jal	ra,15aac <eaddm>
   1654c:	eb9ff06f          	jal	zero,16404 <emdnorm+0x1bc>
   16550:	00095663          	bge	s2,zero,1655c <emdnorm+0x314>
   16554:	00049123          	sh	zero,2(s1)
   16558:	d59ff06f          	jal	zero,162b0 <emdnorm+0x68>
   1655c:	01249123          	sh	s2,2(s1)
   16560:	d51ff06f          	jal	zero,162b0 <emdnorm+0x68>

00016564 <eiremain>:
   16564:	fe010113          	addi	sp,sp,-32
   16568:	01412423          	sw	s4,8(sp)
   1656c:	00255a03          	lhu	s4,2(a0)
   16570:	00812c23          	sw	s0,24(sp)
   16574:	00058413          	addi	s0,a1,0
   16578:	00112e23          	sw	ra,28(sp)
   1657c:	00912a23          	sw	s1,20(sp)
   16580:	01212823          	sw	s2,16(sp)
   16584:	01512223          	sw	s5,4(sp)
   16588:	01612023          	sw	s6,0(sp)
   1658c:	00060913          	addi	s2,a2,0
   16590:	03460b13          	addi	s6,a2,52
   16594:	01312623          	sw	s3,12(sp)
   16598:	00050a93          	addi	s5,a0,0
   1659c:	a3dff0ef          	jal	ra,15fd8 <enormlz>
   165a0:	00245483          	lhu	s1,2(s0)
   165a4:	40aa0a33          	sub	s4,s4,a0
   165a8:	00040513          	addi	a0,s0,0
   165ac:	a2dff0ef          	jal	ra,15fd8 <enormlz>
   165b0:	40a484b3          	sub	s1,s1,a0
   165b4:	000b0513          	addi	a0,s6,0
   165b8:	b3cff0ef          	jal	ra,158f4 <ecleaz>
   165bc:	0544d263          	bge	s1,s4,16600 <eiremain+0x9c>
   165c0:	00040513          	addi	a0,s0,0
   165c4:	01812403          	lw	s0,24(sp)
   165c8:	01c12083          	lw	ra,28(sp)
   165cc:	00c12983          	lw	s3,12(sp)
   165d0:	00812a03          	lw	s4,8(sp)
   165d4:	00412a83          	lw	s5,4(sp)
   165d8:	00012b03          	lw	s6,0(sp)
   165dc:	00090793          	addi	a5,s2,0
   165e0:	00048693          	addi	a3,s1,0
   165e4:	01012903          	lw	s2,16(sp)
   165e8:	01412483          	lw	s1,20(sp)
   165ec:	00000713          	addi	a4,zero,0
   165f0:	00000613          	addi	a2,zero,0
   165f4:	00000593          	addi	a1,zero,0
   165f8:	02010113          	addi	sp,sp,32
   165fc:	c4dff06f          	jal	zero,16248 <emdnorm>
   16600:	00040593          	addi	a1,s0,0
   16604:	000a8513          	addi	a0,s5,0
   16608:	b28ff0ef          	jal	ra,15930 <ecmpm>
   1660c:	00000993          	addi	s3,zero,0
   16610:	00a04a63          	blt	zero,a0,16624 <eiremain+0xc0>
   16614:	00040593          	addi	a1,s0,0
   16618:	000a8513          	addi	a0,s5,0
   1661c:	cc8ff0ef          	jal	ra,15ae4 <esubm>
   16620:	00100993          	addi	s3,zero,1
   16624:	000b0513          	addi	a0,s6,0
   16628:	b94ff0ef          	jal	ra,159bc <eshup1>
   1662c:	04c95783          	lhu	a5,76(s2)
   16630:	00040513          	addi	a0,s0,0
   16634:	fff48493          	addi	s1,s1,-1
   16638:	00f9e9b3          	or	s3,s3,a5
   1663c:	05391623          	sh	s3,76(s2)
   16640:	b7cff0ef          	jal	ra,159bc <eshup1>
   16644:	f79ff06f          	jal	zero,165bc <eiremain+0x58>

00016648 <emul>:
   16648:	f7010113          	addi	sp,sp,-144
   1664c:	08812423          	sw	s0,136(sp)
   16650:	08912223          	sw	s1,132(sp)
   16654:	09212023          	sw	s2,128(sp)
   16658:	07412c23          	sw	s4,120(sp)
   1665c:	08112623          	sw	ra,140(sp)
   16660:	07312e23          	sw	s3,124(sp)
   16664:	07512a23          	sw	s5,116(sp)
   16668:	07612823          	sw	s6,112(sp)
   1666c:	07712623          	sw	s7,108(sp)
   16670:	07812423          	sw	s8,104(sp)
   16674:	00050913          	addi	s2,a0,0
   16678:	00058413          	addi	s0,a1,0
   1667c:	00060493          	addi	s1,a2,0
   16680:	00068a13          	addi	s4,a3,0
   16684:	d74ff0ef          	jal	ra,15bf8 <eisnan>
   16688:	04050063          	beq	a0,zero,166c8 <emul+0x80>
   1668c:	00048593          	addi	a1,s1,0
   16690:	00090513          	addi	a0,s2,0
   16694:	a3cff0ef          	jal	ra,158d0 <emov>
   16698:	08c12083          	lw	ra,140(sp)
   1669c:	08812403          	lw	s0,136(sp)
   166a0:	08412483          	lw	s1,132(sp)
   166a4:	08012903          	lw	s2,128(sp)
   166a8:	07c12983          	lw	s3,124(sp)
   166ac:	07812a03          	lw	s4,120(sp)
   166b0:	07412a83          	lw	s5,116(sp)
   166b4:	07012b03          	lw	s6,112(sp)
   166b8:	06c12b83          	lw	s7,108(sp)
   166bc:	06812c03          	lw	s8,104(sp)
   166c0:	09010113          	addi	sp,sp,144
   166c4:	00008067          	jalr	zero,0(ra)
   166c8:	00040513          	addi	a0,s0,0
   166cc:	d2cff0ef          	jal	ra,15bf8 <eisnan>
   166d0:	00050863          	beq	a0,zero,166e0 <emul+0x98>
   166d4:	00048593          	addi	a1,s1,0
   166d8:	00040513          	addi	a0,s0,0
   166dc:	fb9ff06f          	jal	zero,16694 <emul+0x4c>
   166e0:	00090513          	addi	a0,s2,0
   166e4:	f58ff0ef          	jal	ra,15e3c <eisinf>
   166e8:	06051463          	bne	a0,zero,16750 <emul+0x108>
   166ec:	00040513          	addi	a0,s0,0
   166f0:	f4cff0ef          	jal	ra,15e3c <eisinf>
   166f4:	00050c63          	beq	a0,zero,1670c <emul+0xc4>
   166f8:	000235b7          	lui	a1,0x23
   166fc:	60458593          	addi	a1,a1,1540 # 23604 <ezero>
   16700:	00090513          	addi	a0,s2,0
   16704:	e30ff0ef          	jal	ra,15d34 <ecmp>
   16708:	04050e63          	beq	a0,zero,16764 <emul+0x11c>
   1670c:	00090513          	addi	a0,s2,0
   16710:	f2cff0ef          	jal	ra,15e3c <eisinf>
   16714:	00051863          	bne	a0,zero,16724 <emul+0xdc>
   16718:	00040513          	addi	a0,s0,0
   1671c:	f20ff0ef          	jal	ra,15e3c <eisinf>
   16720:	04050c63          	beq	a0,zero,16778 <emul+0x130>
   16724:	00090513          	addi	a0,s2,0
   16728:	d04ff0ef          	jal	ra,15c2c <eisneg>
   1672c:	00050913          	addi	s2,a0,0
   16730:	00040513          	addi	a0,s0,0
   16734:	cf8ff0ef          	jal	ra,15c2c <eisneg>
   16738:	02a90c63          	beq	s2,a0,16770 <emul+0x128>
   1673c:	ffff87b7          	lui	a5,0xffff8
   16740:	00f49923          	sh	a5,18(s1)
   16744:	00048513          	addi	a0,s1,0
   16748:	f28ff0ef          	jal	ra,15e70 <einfin.isra.2>
   1674c:	f4dff06f          	jal	zero,16698 <emul+0x50>
   16750:	000235b7          	lui	a1,0x23
   16754:	60458593          	addi	a1,a1,1540 # 23604 <ezero>
   16758:	00040513          	addi	a0,s0,0
   1675c:	dd8ff0ef          	jal	ra,15d34 <ecmp>
   16760:	f80516e3          	bne	a0,zero,166ec <emul+0xa4>
   16764:	00048513          	addi	a0,s1,0
   16768:	949ff0ef          	jal	ra,160b0 <enan.constprop.12>
   1676c:	f2dff06f          	jal	zero,16698 <emul+0x50>
   16770:	00049923          	sh	zero,18(s1)
   16774:	fd1ff06f          	jal	zero,16744 <emul+0xfc>
   16778:	00c10593          	addi	a1,sp,12
   1677c:	00090513          	addi	a0,s2,0
   16780:	ce4ff0ef          	jal	ra,15c64 <emovi>
   16784:	00040513          	addi	a0,s0,0
   16788:	02810593          	addi	a1,sp,40
   1678c:	cd8ff0ef          	jal	ra,15c64 <emovi>
   16790:	00e15983          	lhu	s3,14(sp)
   16794:	02a15403          	lhu	s0,42(sp)
   16798:	0e098a63          	beq	s3,zero,1688c <emul+0x244>
   1679c:	02a15783          	lhu	a5,42(sp)
   167a0:	00040b13          	addi	s6,s0,0
   167a4:	10078063          	beq	a5,zero,168a4 <emul+0x25c>
   167a8:	02812783          	lw	a5,40(sp)
   167ac:	034a0913          	addi	s2,s4,52
   167b0:	04ea0b93          	addi	s7,s4,78
   167b4:	02fa2a23          	sw	a5,52(s4)
   167b8:	038a0793          	addi	a5,s4,56
   167bc:	00079023          	sh	zero,0(a5) # ffff8000 <__BSS_END__+0xfffd2408>
   167c0:	00278793          	addi	a5,a5,2
   167c4:	ff779ce3          	bne	a5,s7,167bc <emul+0x174>
   167c8:	00c10413          	addi	s0,sp,12
   167cc:	ff810c13          	addi	s8,sp,-8
   167d0:	00000a93          	addi	s5,zero,0
   167d4:	01845503          	lhu	a0,24(s0)
   167d8:	00050e63          	beq	a0,zero,167f4 <emul+0x1ac>
   167dc:	02810593          	addi	a1,sp,40
   167e0:	04410613          	addi	a2,sp,68
   167e4:	b38ff0ef          	jal	ra,15b1c <m16m>
   167e8:	00090593          	addi	a1,s2,0
   167ec:	04410513          	addi	a0,sp,68
   167f0:	abcff0ef          	jal	ra,15aac <eaddm>
   167f4:	04ca5783          	lhu	a5,76(s4)
   167f8:	00090513          	addi	a0,s2,0
   167fc:	ffe40413          	addi	s0,s0,-2
   16800:	00faeab3          	or	s5,s5,a5
   16804:	a88ff0ef          	jal	ra,15a8c <eshdn6>
   16808:	fc8c16e3          	bne	s8,s0,167d4 <emul+0x18c>
   1680c:	00090593          	addi	a1,s2,0
   16810:	02810793          	addi	a5,sp,40
   16814:	0005d703          	lhu	a4,0(a1)
   16818:	00258593          	addi	a1,a1,2
   1681c:	00278793          	addi	a5,a5,2
   16820:	fee79f23          	sh	a4,-2(a5)
   16824:	ff7598e3          	bne	a1,s7,16814 <emul+0x1cc>
   16828:	ffffc6b7          	lui	a3,0xffffc
   1682c:	016989b3          	add	s3,s3,s6
   16830:	00268693          	addi	a3,a3,2 # ffffc002 <__BSS_END__+0xfffd640a>
   16834:	000a0793          	addi	a5,s4,0
   16838:	04000713          	addi	a4,zero,64
   1683c:	00d986b3          	add	a3,s3,a3
   16840:	00000613          	addi	a2,zero,0
   16844:	000a8593          	addi	a1,s5,0
   16848:	02810513          	addi	a0,sp,40
   1684c:	9fdff0ef          	jal	ra,16248 <emdnorm>
   16850:	00c15703          	lhu	a4,12(sp)
   16854:	02815783          	lhu	a5,40(sp)
   16858:	06f71a63          	bne	a4,a5,168cc <emul+0x284>
   1685c:	02011423          	sh	zero,40(sp)
   16860:	00048593          	addi	a1,s1,0
   16864:	02810513          	addi	a0,sp,40
   16868:	869ff0ef          	jal	ra,160d0 <emovo.isra.6>
   1686c:	e2dff06f          	jal	zero,16698 <emul+0x50>
   16870:	00278793          	addi	a5,a5,2
   16874:	0027d683          	lhu	a3,2(a5)
   16878:	00068e63          	beq	a3,zero,16894 <emul+0x24c>
   1687c:	00c10513          	addi	a0,sp,12
   16880:	f58ff0ef          	jal	ra,15fd8 <enormlz>
   16884:	40a009b3          	sub	s3,zero,a0
   16888:	f15ff06f          	jal	zero,1679c <emul+0x154>
   1688c:	00c10793          	addi	a5,sp,12
   16890:	02010713          	addi	a4,sp,32
   16894:	fce79ee3          	bne	a5,a4,16870 <emul+0x228>
   16898:	00048513          	addi	a0,s1,0
   1689c:	820ff0ef          	jal	ra,158bc <eclear>
   168a0:	df9ff06f          	jal	zero,16698 <emul+0x50>
   168a4:	02810793          	addi	a5,sp,40
   168a8:	03c10713          	addi	a4,sp,60
   168ac:	fee786e3          	beq	a5,a4,16898 <emul+0x250>
   168b0:	00278793          	addi	a5,a5,2
   168b4:	0027d683          	lhu	a3,2(a5)
   168b8:	fe068ae3          	beq	a3,zero,168ac <emul+0x264>
   168bc:	02810513          	addi	a0,sp,40
   168c0:	f18ff0ef          	jal	ra,15fd8 <enormlz>
   168c4:	40a40b33          	sub	s6,s0,a0
   168c8:	ee1ff06f          	jal	zero,167a8 <emul+0x160>
   168cc:	fff00793          	addi	a5,zero,-1
   168d0:	02f11423          	sh	a5,40(sp)
   168d4:	f8dff06f          	jal	zero,16860 <emul+0x218>

000168d8 <ediv>:
   168d8:	f7010113          	addi	sp,sp,-144
   168dc:	08812423          	sw	s0,136(sp)
   168e0:	08912223          	sw	s1,132(sp)
   168e4:	09212023          	sw	s2,128(sp)
   168e8:	07412c23          	sw	s4,120(sp)
   168ec:	08112623          	sw	ra,140(sp)
   168f0:	07312e23          	sw	s3,124(sp)
   168f4:	07512a23          	sw	s5,116(sp)
   168f8:	07612823          	sw	s6,112(sp)
   168fc:	07712623          	sw	s7,108(sp)
   16900:	07812423          	sw	s8,104(sp)
   16904:	07912223          	sw	s9,100(sp)
   16908:	00050913          	addi	s2,a0,0
   1690c:	00058413          	addi	s0,a1,0
   16910:	00060493          	addi	s1,a2,0
   16914:	00068a13          	addi	s4,a3,0
   16918:	ae0ff0ef          	jal	ra,15bf8 <eisnan>
   1691c:	04050263          	beq	a0,zero,16960 <ediv+0x88>
   16920:	00048593          	addi	a1,s1,0
   16924:	00090513          	addi	a0,s2,0
   16928:	fa9fe0ef          	jal	ra,158d0 <emov>
   1692c:	08c12083          	lw	ra,140(sp)
   16930:	08812403          	lw	s0,136(sp)
   16934:	08412483          	lw	s1,132(sp)
   16938:	08012903          	lw	s2,128(sp)
   1693c:	07c12983          	lw	s3,124(sp)
   16940:	07812a03          	lw	s4,120(sp)
   16944:	07412a83          	lw	s5,116(sp)
   16948:	07012b03          	lw	s6,112(sp)
   1694c:	06c12b83          	lw	s7,108(sp)
   16950:	06812c03          	lw	s8,104(sp)
   16954:	06412c83          	lw	s9,100(sp)
   16958:	09010113          	addi	sp,sp,144
   1695c:	00008067          	jalr	zero,0(ra)
   16960:	00040513          	addi	a0,s0,0
   16964:	a94ff0ef          	jal	ra,15bf8 <eisnan>
   16968:	00050863          	beq	a0,zero,16978 <ediv+0xa0>
   1696c:	00048593          	addi	a1,s1,0
   16970:	00040513          	addi	a0,s0,0
   16974:	fb5ff06f          	jal	zero,16928 <ediv+0x50>
   16978:	000239b7          	lui	s3,0x23
   1697c:	60498593          	addi	a1,s3,1540 # 23604 <ezero>
   16980:	00090513          	addi	a0,s2,0
   16984:	bb0ff0ef          	jal	ra,15d34 <ecmp>
   16988:	04050663          	beq	a0,zero,169d4 <ediv+0xfc>
   1698c:	00090513          	addi	a0,s2,0
   16990:	cacff0ef          	jal	ra,15e3c <eisinf>
   16994:	00050993          	addi	s3,a0,0
   16998:	00040513          	addi	a0,s0,0
   1699c:	ca0ff0ef          	jal	ra,15e3c <eisinf>
   169a0:	04099863          	bne	s3,zero,169f0 <ediv+0x118>
   169a4:	04050e63          	beq	a0,zero,16a00 <ediv+0x128>
   169a8:	00090513          	addi	a0,s2,0
   169ac:	a80ff0ef          	jal	ra,15c2c <eisneg>
   169b0:	00050913          	addi	s2,a0,0
   169b4:	00040513          	addi	a0,s0,0
   169b8:	a74ff0ef          	jal	ra,15c2c <eisneg>
   169bc:	20a90e63          	beq	s2,a0,16bd8 <ediv+0x300>
   169c0:	ffff87b7          	lui	a5,0xffff8
   169c4:	00f49923          	sh	a5,18(s1)
   169c8:	00048513          	addi	a0,s1,0
   169cc:	ca4ff0ef          	jal	ra,15e70 <einfin.isra.2>
   169d0:	f5dff06f          	jal	zero,1692c <ediv+0x54>
   169d4:	60498593          	addi	a1,s3,1540
   169d8:	00040513          	addi	a0,s0,0
   169dc:	b58ff0ef          	jal	ra,15d34 <ecmp>
   169e0:	fa0516e3          	bne	a0,zero,1698c <ediv+0xb4>
   169e4:	00048513          	addi	a0,s1,0
   169e8:	ec8ff0ef          	jal	ra,160b0 <enan.constprop.12>
   169ec:	f41ff06f          	jal	zero,1692c <ediv+0x54>
   169f0:	fe051ae3          	bne	a0,zero,169e4 <ediv+0x10c>
   169f4:	00048513          	addi	a0,s1,0
   169f8:	ec5fe0ef          	jal	ra,158bc <eclear>
   169fc:	f31ff06f          	jal	zero,1692c <ediv+0x54>
   16a00:	00090513          	addi	a0,s2,0
   16a04:	00c10593          	addi	a1,sp,12
   16a08:	a5cff0ef          	jal	ra,15c64 <emovi>
   16a0c:	00040513          	addi	a0,s0,0
   16a10:	02810593          	addi	a1,sp,40
   16a14:	a50ff0ef          	jal	ra,15c64 <emovi>
   16a18:	02a15903          	lhu	s2,42(sp)
   16a1c:	00e15403          	lhu	s0,14(sp)
   16a20:	14090e63          	beq	s2,zero,16b7c <ediv+0x2a4>
   16a24:	00e15783          	lhu	a5,14(sp)
   16a28:	00040c93          	addi	s9,s0,0
   16a2c:	18078a63          	beq	a5,zero,16bc0 <ediv+0x2e8>
   16a30:	02812703          	lw	a4,40(sp)
   16a34:	038a0793          	addi	a5,s4,56
   16a38:	04ea0a93          	addi	s5,s4,78
   16a3c:	02ea2a23          	sw	a4,52(s4)
   16a40:	00078993          	addi	s3,a5,0 # ffff8000 <__BSS_END__+0xfffd2408>
   16a44:	00278793          	addi	a5,a5,2
   16a48:	fe079f23          	sh	zero,-2(a5)
   16a4c:	ff579ce3          	bne	a5,s5,16a44 <ediv+0x16c>
   16a50:	02810513          	addi	a0,sp,40
   16a54:	f19fe0ef          	jal	ra,1596c <eshdn1>
   16a58:	01215b03          	lhu	s6,18(sp)
   16a5c:	00010c37          	lui	s8,0x10
   16a60:	fffc0c13          	addi	s8,s8,-1 # ffff <main-0x75>
   16a64:	010b1b93          	slli	s7,s6,0x10
   16a68:	416b8bb3          	sub	s7,s7,s6
   16a6c:	02c15503          	lhu	a0,44(sp)
   16a70:	02e15783          	lhu	a5,46(sp)
   16a74:	000c0413          	addi	s0,s8,0
   16a78:	01051513          	slli	a0,a0,0x10
   16a7c:	00f50533          	add	a0,a0,a5
   16a80:	00abea63          	bltu	s7,a0,16a94 <ediv+0x1bc>
   16a84:	000b0593          	addi	a1,s6,0
   16a88:	4d80c0ef          	jal	ra,22f60 <__udivsi3>
   16a8c:	01051413          	slli	s0,a0,0x10
   16a90:	01045413          	srli	s0,s0,0x10
   16a94:	00c10593          	addi	a1,sp,12
   16a98:	00040513          	addi	a0,s0,0
   16a9c:	04410613          	addi	a2,sp,68
   16aa0:	87cff0ef          	jal	ra,15b1c <m16m>
   16aa4:	02810593          	addi	a1,sp,40
   16aa8:	04410513          	addi	a0,sp,68
   16aac:	e85fe0ef          	jal	ra,15930 <ecmpm>
   16ab0:	02a05663          	bge	zero,a0,16adc <ediv+0x204>
   16ab4:	04410593          	addi	a1,sp,68
   16ab8:	00c10513          	addi	a0,sp,12
   16abc:	828ff0ef          	jal	ra,15ae4 <esubm>
   16ac0:	02810593          	addi	a1,sp,40
   16ac4:	04410513          	addi	a0,sp,68
   16ac8:	e69fe0ef          	jal	ra,15930 <ecmpm>
   16acc:	10a04a63          	blt	zero,a0,16be0 <ediv+0x308>
   16ad0:	fff40413          	addi	s0,s0,-1
   16ad4:	01041413          	slli	s0,s0,0x10
   16ad8:	01045413          	srli	s0,s0,0x10
   16adc:	02810593          	addi	a1,sp,40
   16ae0:	04410513          	addi	a0,sp,68
   16ae4:	800ff0ef          	jal	ra,15ae4 <esubm>
   16ae8:	02810513          	addi	a0,sp,40
   16aec:	00899023          	sh	s0,0(s3)
   16af0:	00298993          	addi	s3,s3,2
   16af4:	f79fe0ef          	jal	ra,15a6c <eshup6>
   16af8:	f73a9ae3          	bne	s5,s3,16a6c <ediv+0x194>
   16afc:	02810713          	addi	a4,sp,40
   16b00:	03e10693          	addi	a3,sp,62
   16b04:	00070793          	addi	a5,a4,0
   16b08:	00000593          	addi	a1,zero,0
   16b0c:	0047d603          	lhu	a2,4(a5)
   16b10:	00278793          	addi	a5,a5,2
   16b14:	00c5e5b3          	or	a1,a1,a2
   16b18:	fef69ae3          	bne	a3,a5,16b0c <ediv+0x234>
   16b1c:	00b035b3          	sltu	a1,zero,a1
   16b20:	034a0793          	addi	a5,s4,52
   16b24:	0007d683          	lhu	a3,0(a5)
   16b28:	00278793          	addi	a5,a5,2
   16b2c:	00270713          	addi	a4,a4,2
   16b30:	fed71f23          	sh	a3,-2(a4)
   16b34:	fefa98e3          	bne	s5,a5,16b24 <ediv+0x24c>
   16b38:	000046b7          	lui	a3,0x4
   16b3c:	41990933          	sub	s2,s2,s9
   16b40:	fff68693          	addi	a3,a3,-1 # 3fff <main-0xc075>
   16b44:	000a0793          	addi	a5,s4,0
   16b48:	04000713          	addi	a4,zero,64
   16b4c:	00d906b3          	add	a3,s2,a3
   16b50:	00000613          	addi	a2,zero,0
   16b54:	02810513          	addi	a0,sp,40
   16b58:	ef0ff0ef          	jal	ra,16248 <emdnorm>
   16b5c:	00c15703          	lhu	a4,12(sp)
   16b60:	02815783          	lhu	a5,40(sp)
   16b64:	08f71c63          	bne	a4,a5,16bfc <ediv+0x324>
   16b68:	02011423          	sh	zero,40(sp)
   16b6c:	00048593          	addi	a1,s1,0
   16b70:	02810513          	addi	a0,sp,40
   16b74:	d5cff0ef          	jal	ra,160d0 <emovo.isra.6>
   16b78:	db5ff06f          	jal	zero,1692c <ediv+0x54>
   16b7c:	02810793          	addi	a5,sp,40
   16b80:	03c10713          	addi	a4,sp,60
   16b84:	e6e788e3          	beq	a5,a4,169f4 <ediv+0x11c>
   16b88:	00278793          	addi	a5,a5,2
   16b8c:	0027d683          	lhu	a3,2(a5)
   16b90:	fe068ae3          	beq	a3,zero,16b84 <ediv+0x2ac>
   16b94:	02810513          	addi	a0,sp,40
   16b98:	c40ff0ef          	jal	ra,15fd8 <enormlz>
   16b9c:	40a00933          	sub	s2,zero,a0
   16ba0:	e85ff06f          	jal	zero,16a24 <ediv+0x14c>
   16ba4:	00278793          	addi	a5,a5,2
   16ba8:	0027d683          	lhu	a3,2(a5)
   16bac:	00068e63          	beq	a3,zero,16bc8 <ediv+0x2f0>
   16bb0:	00c10513          	addi	a0,sp,12
   16bb4:	c24ff0ef          	jal	ra,15fd8 <enormlz>
   16bb8:	40a40cb3          	sub	s9,s0,a0
   16bbc:	e75ff06f          	jal	zero,16a30 <ediv+0x158>
   16bc0:	00c10793          	addi	a5,sp,12
   16bc4:	02010713          	addi	a4,sp,32
   16bc8:	fce79ee3          	bne	a5,a4,16ba4 <ediv+0x2cc>
   16bcc:	00c15703          	lhu	a4,12(sp)
   16bd0:	02815783          	lhu	a5,40(sp)
   16bd4:	def716e3          	bne	a4,a5,169c0 <ediv+0xe8>
   16bd8:	00049923          	sh	zero,18(s1)
   16bdc:	dedff06f          	jal	zero,169c8 <ediv+0xf0>
   16be0:	ffe40413          	addi	s0,s0,-2
   16be4:	01041413          	slli	s0,s0,0x10
   16be8:	04410593          	addi	a1,sp,68
   16bec:	00c10513          	addi	a0,sp,12
   16bf0:	01045413          	srli	s0,s0,0x10
   16bf4:	ef1fe0ef          	jal	ra,15ae4 <esubm>
   16bf8:	ee5ff06f          	jal	zero,16adc <ediv+0x204>
   16bfc:	fff00793          	addi	a5,zero,-1
   16c00:	02f11423          	sh	a5,40(sp)
   16c04:	f69ff06f          	jal	zero,16b6c <ediv+0x294>

00016c08 <_ldtoa_r>:
   16c08:	0005ae03          	lw	t3,0(a1)
   16c0c:	0045a303          	lw	t1,4(a1)
   16c10:	0085a883          	lw	a7,8(a1)
   16c14:	00c5a583          	lw	a1,12(a1)
   16c18:	e2010113          	addi	sp,sp,-480
   16c1c:	1c812c23          	sw	s0,472(sp)
   16c20:	02b12623          	sw	a1,44(sp)
   16c24:	00078413          	addi	s0,a5,0
   16c28:	04052583          	lw	a1,64(a0)
   16c2c:	fff00793          	addi	a5,zero,-1
   16c30:	14f12823          	sw	a5,336(sp)
   16c34:	09000793          	addi	a5,zero,144
   16c38:	1d412423          	sw	s4,456(sp)
   16c3c:	1d612023          	sw	s6,448(sp)
   16c40:	1b912a23          	sw	s9,436(sp)
   16c44:	1ba12823          	sw	s10,432(sp)
   16c48:	1c112e23          	sw	ra,476(sp)
   16c4c:	1c912a23          	sw	s1,468(sp)
   16c50:	1d212823          	sw	s2,464(sp)
   16c54:	1d312623          	sw	s3,460(sp)
   16c58:	1d512223          	sw	s5,452(sp)
   16c5c:	1b712e23          	sw	s7,444(sp)
   16c60:	1b812c23          	sw	s8,440(sp)
   16c64:	1bb12623          	sw	s11,428(sp)
   16c68:	01012823          	sw	a6,16(sp)
   16c6c:	03c12023          	sw	t3,32(sp)
   16c70:	02612223          	sw	t1,36(sp)
   16c74:	03112423          	sw	a7,40(sp)
   16c78:	14f12a23          	sw	a5,340(sp)
   16c7c:	00050a13          	addi	s4,a0,0
   16c80:	00060b13          	addi	s6,a2,0
   16c84:	00068c93          	addi	s9,a3,0
   16c88:	00070d13          	addi	s10,a4,0
   16c8c:	02058063          	beq	a1,zero,16cac <_ldtoa_r+0xa4>
   16c90:	04452783          	lw	a5,68(a0)
   16c94:	00100713          	addi	a4,zero,1
   16c98:	00f71733          	sll	a4,a4,a5
   16c9c:	00f5a223          	sw	a5,4(a1)
   16ca0:	00e5a423          	sw	a4,8(a1)
   16ca4:	634010ef          	jal	ra,182d8 <_Bfree>
   16ca8:	040a2023          	sw	zero,64(s4)
   16cac:	02010513          	addi	a0,sp,32
   16cb0:	05010593          	addi	a1,sp,80
   16cb4:	c8cff0ef          	jal	ra,16140 <e113toe.isra.8>
   16cb8:	05010513          	addi	a0,sp,80
   16cbc:	f71fe0ef          	jal	ra,15c2c <eisneg>
   16cc0:	0e050063          	beq	a0,zero,16da0 <_ldtoa_r+0x198>
   16cc4:	00100793          	addi	a5,zero,1
   16cc8:	00f42023          	sw	a5,0(s0)
   16ccc:	00300793          	addi	a5,zero,3
   16cd0:	0cfb0c63          	beq	s6,a5,16da8 <_ldtoa_r+0x1a0>
   16cd4:	01400993          	addi	s3,zero,20
   16cd8:	000b0a63          	beq	s6,zero,16cec <_ldtoa_r+0xe4>
   16cdc:	fffc8993          	addi	s3,s9,-1
   16ce0:	02a00793          	addi	a5,zero,42
   16ce4:	0137d463          	bge	a5,s3,16cec <_ldtoa_r+0xe4>
   16ce8:	02a00993          	addi	s3,zero,42
   16cec:	15412783          	lw	a5,340(sp)
   16cf0:	05010513          	addi	a0,sp,80
   16cf4:	00f12a23          	sw	a5,20(sp)
   16cf8:	f01fe0ef          	jal	ra,15bf8 <eisnan>
   16cfc:	00050b93          	addi	s7,a0,0
   16d00:	0a050863          	beq	a0,zero,16db0 <_ldtoa_r+0x1a8>
   16d04:	000245b7          	lui	a1,0x24
   16d08:	85858593          	addi	a1,a1,-1960 # 23858 <emtens+0x104>
   16d0c:	11410513          	addi	a0,sp,276
   16d10:	00002437          	lui	s0,0x2
   16d14:	2f5020ef          	jal	ra,19808 <sprintf>
   16d18:	70f40413          	addi	s0,s0,1807 # 270f <main-0xd965>
   16d1c:	01412783          	lw	a5,20(sp)
   16d20:	05010513          	addi	a0,sp,80
   16d24:	16812023          	sw	s0,352(sp)
   16d28:	14f12a23          	sw	a5,340(sp)
   16d2c:	910ff0ef          	jal	ra,15e3c <eisinf>
   16d30:	11410913          	addi	s2,sp,276
   16d34:	00051863          	bne	a0,zero,16d44 <_ldtoa_r+0x13c>
   16d38:	05010513          	addi	a0,sp,80
   16d3c:	ebdfe0ef          	jal	ra,15bf8 <eisnan>
   16d40:	14050ce3          	beq	a0,zero,17698 <_ldtoa_r+0xa90>
   16d44:	000027b7          	lui	a5,0x2
   16d48:	70f78793          	addi	a5,a5,1807 # 270f <main-0xd965>
   16d4c:	00fd2023          	sw	a5,0(s10)
   16d50:	00090793          	addi	a5,s2,0
   16d54:	02000613          	addi	a2,zero,32
   16d58:	02d00693          	addi	a3,zero,45
   16d5c:	0007c703          	lbu	a4,0(a5)
   16d60:	18c70ae3          	beq	a4,a2,176f4 <_ldtoa_r+0xaec>
   16d64:	18d708e3          	beq	a4,a3,176f4 <_ldtoa_r+0xaec>
   16d68:	00090493          	addi	s1,s2,0
   16d6c:	00178793          	addi	a5,a5,1
   16d70:	fff7c703          	lbu	a4,-1(a5)
   16d74:	00148693          	addi	a3,s1,1
   16d78:	fee68fa3          	sb	a4,-1(a3)
   16d7c:	180710e3          	bne	a4,zero,176fc <_ldtoa_r+0xaf4>
   16d80:	00200713          	addi	a4,zero,2
   16d84:	00100793          	addi	a5,zero,1
   16d88:	00eb0863          	beq	s6,a4,16d98 <_ldtoa_r+0x190>
   16d8c:	00098793          	addi	a5,s3,0
   16d90:	0089d463          	bge	s3,s0,16d98 <_ldtoa_r+0x190>
   16d94:	00040793          	addi	a5,s0,0
   16d98:	03000693          	addi	a3,zero,48
   16d9c:	1710006f          	jal	zero,1770c <_ldtoa_r+0xb04>
   16da0:	00042023          	sw	zero,0(s0)
   16da4:	f29ff06f          	jal	zero,16ccc <_ldtoa_r+0xc4>
   16da8:	000c8993          	addi	s3,s9,0
   16dac:	f35ff06f          	jal	zero,16ce0 <_ldtoa_r+0xd8>
   16db0:	09000793          	addi	a5,zero,144
   16db4:	06c10593          	addi	a1,sp,108
   16db8:	05010513          	addi	a0,sp,80
   16dbc:	14f12a23          	sw	a5,340(sp)
   16dc0:	b11fe0ef          	jal	ra,158d0 <emov>
   16dc4:	07e15783          	lhu	a5,126(sp)
   16dc8:	00012023          	sw	zero,0(sp)
   16dcc:	01079713          	slli	a4,a5,0x10
   16dd0:	41075713          	srai	a4,a4,0x10
   16dd4:	00075e63          	bge	a4,zero,16df0 <_ldtoa_r+0x1e8>
   16dd8:	01179793          	slli	a5,a5,0x11
   16ddc:	0117d793          	srli	a5,a5,0x11
   16de0:	06f11f23          	sh	a5,126(sp)
   16de4:	000107b7          	lui	a5,0x10
   16de8:	fff78793          	addi	a5,a5,-1 # ffff <main-0x75>
   16dec:	00f12023          	sw	a5,0(sp)
   16df0:	00023437          	lui	s0,0x23
   16df4:	60440513          	addi	a0,s0,1540 # 23604 <ezero>
   16df8:	08810593          	addi	a1,sp,136
   16dfc:	11850513          	addi	a0,a0,280
   16e00:	ad1fe0ef          	jal	ra,158d0 <emov>
   16e04:	07e15703          	lhu	a4,126(sp)
   16e08:	00023937          	lui	s2,0x23
   16e0c:	00812423          	sw	s0,8(sp)
   16e10:	60440493          	addi	s1,s0,1540
   16e14:	71c90913          	addi	s2,s2,1820 # 2371c <eone>
   16e18:	1c0710e3          	bne	a4,zero,177d8 <_ldtoa_r+0xbd0>
   16e1c:	06c10793          	addi	a5,sp,108
   16e20:	07e10713          	addi	a4,sp,126
   16e24:	0007d683          	lhu	a3,0(a5)
   16e28:	10069463          	bne	a3,zero,16f30 <_ldtoa_r+0x328>
   16e2c:	00278793          	addi	a5,a5,2
   16e30:	fef71ae3          	bne	a4,a5,16e24 <_ldtoa_r+0x21c>
   16e34:	00000413          	addi	s0,zero,0
   16e38:	0c010593          	addi	a1,sp,192
   16e3c:	08810513          	addi	a0,sp,136
   16e40:	e25fe0ef          	jal	ra,15c64 <emovi>
   16e44:	08810593          	addi	a1,sp,136
   16e48:	0c010513          	addi	a0,sp,192
   16e4c:	abdfe0ef          	jal	ra,15908 <emovz>
   16e50:	0c010593          	addi	a1,sp,192
   16e54:	06c10513          	addi	a0,sp,108
   16e58:	e0dfe0ef          	jal	ra,15c64 <emovi>
   16e5c:	06c10593          	addi	a1,sp,108
   16e60:	0c010513          	addi	a0,sp,192
   16e64:	aa5fe0ef          	jal	ra,15908 <emovz>
   16e68:	15010613          	addi	a2,sp,336
   16e6c:	06c10593          	addi	a1,sp,108
   16e70:	08810513          	addi	a0,sp,136
   16e74:	ef0ff0ef          	jal	ra,16564 <eiremain>
   16e78:	19c15483          	lhu	s1,412(sp)
   16e7c:	00049c63          	bne	s1,zero,16e94 <_ldtoa_r+0x28c>
   16e80:	00812783          	lw	a5,8(sp)
   16e84:	06c10513          	addi	a0,sp,108
   16e88:	60478593          	addi	a1,a5,1540
   16e8c:	ea9fe0ef          	jal	ra,15d34 <ecmp>
   16e90:	66051a63          	bne	a0,zero,17504 <_ldtoa_r+0x8fc>
   16e94:	00012783          	lw	a5,0(sp)
   16e98:	6a078c63          	beq	a5,zero,17550 <_ldtoa_r+0x948>
   16e9c:	02d00793          	addi	a5,zero,45
   16ea0:	10f10a23          	sb	a5,276(sp)
   16ea4:	00300793          	addi	a5,zero,3
   16ea8:	00098913          	addi	s2,s3,0
   16eac:	00fb1a63          	bne	s6,a5,16ec0 <_ldtoa_r+0x2b8>
   16eb0:	00898933          	add	s2,s3,s0
   16eb4:	02a00793          	addi	a5,zero,42
   16eb8:	0127d463          	bge	a5,s2,16ec0 <_ldtoa_r+0x2b8>
   16ebc:	02a00913          	addi	s2,zero,42
   16ec0:	00a00793          	addi	a5,zero,10
   16ec4:	68f49a63          	bne	s1,a5,17558 <_ldtoa_r+0x950>
   16ec8:	03100793          	addi	a5,zero,49
   16ecc:	10f10aa3          	sb	a5,277(sp)
   16ed0:	02e00793          	addi	a5,zero,46
   16ed4:	10f10b23          	sb	a5,278(sp)
   16ed8:	11710493          	addi	s1,sp,279
   16edc:	01205a63          	bge	zero,s2,16ef0 <_ldtoa_r+0x2e8>
   16ee0:	03000793          	addi	a5,zero,48
   16ee4:	10f10ba3          	sb	a5,279(sp)
   16ee8:	fff90913          	addi	s2,s2,-1
   16eec:	11810493          	addi	s1,sp,280
   16ef0:	00140413          	addi	s0,s0,1
   16ef4:	66095c63          	bge	s2,zero,1756c <_ldtoa_r+0x964>
   16ef8:	000245b7          	lui	a1,0x24
   16efc:	00040613          	addi	a2,s0,0
   16f00:	87c58593          	addi	a1,a1,-1924 # 2387c <emtens+0x128>
   16f04:	00048513          	addi	a0,s1,0
   16f08:	101020ef          	jal	ra,19808 <sprintf>
   16f0c:	e11ff06f          	jal	zero,16d1c <_ldtoa_r+0x114>
   16f10:	000245b7          	lui	a1,0x24
   16f14:	86c58593          	addi	a1,a1,-1940 # 2386c <emtens+0x118>
   16f18:	df5ff06f          	jal	zero,16d0c <_ldtoa_r+0x104>
   16f1c:	07c11783          	lh	a5,124(sp)
   16f20:	0007c863          	blt	a5,zero,16f30 <_ldtoa_r+0x328>
   16f24:	000245b7          	lui	a1,0x24
   16f28:	87858593          	addi	a1,a1,-1928 # 23878 <emtens+0x124>
   16f2c:	de1ff06f          	jal	zero,16d0c <_ldtoa_r+0x104>
   16f30:	06c10593          	addi	a1,sp,108
   16f34:	00090513          	addi	a0,s2,0
   16f38:	dfdfe0ef          	jal	ra,15d34 <ecmp>
   16f3c:	ee050ce3          	beq	a0,zero,16e34 <_ldtoa_r+0x22c>
   16f40:	42055863          	bge	a0,zero,17370 <_ldtoa_r+0x768>
   16f44:	0a410593          	addi	a1,sp,164
   16f48:	06c10513          	addi	a0,sp,108
   16f4c:	985fe0ef          	jal	ra,158d0 <emov>
   16f50:	000047b7          	lui	a5,0x4
   16f54:	08e78793          	addi	a5,a5,142 # 408e <main-0xbfe6>
   16f58:	0af11b23          	sh	a5,182(sp)
   16f5c:	01000793          	addi	a5,zero,16
   16f60:	00f12223          	sw	a5,4(sp)
   16f64:	000087b7          	lui	a5,0x8
   16f68:	fff78793          	addi	a5,a5,-1 # 7fff <main-0x8075>
   16f6c:	00f12c23          	sw	a5,24(sp)
   16f70:	ffffc7b7          	lui	a5,0xffffc
   16f74:	00278793          	addi	a5,a5,2 # ffffc002 <__BSS_END__+0xfffd640a>
   16f78:	00000413          	addi	s0,zero,0
   16f7c:	0b448c13          	addi	s8,s1,180
   16f80:	00f12e23          	sw	a5,28(sp)
   16f84:	15010693          	addi	a3,sp,336
   16f88:	08810613          	addi	a2,sp,136
   16f8c:	0a410593          	addi	a1,sp,164
   16f90:	000c0513          	addi	a0,s8,0
   16f94:	945ff0ef          	jal	ra,168d8 <ediv>
   16f98:	03c10593          	addi	a1,sp,60
   16f9c:	08810513          	addi	a0,sp,136
   16fa0:	931fe0ef          	jal	ra,158d0 <emov>
   16fa4:	01812783          	lw	a5,24(sp)
   16fa8:	04e15a83          	lhu	s5,78(sp)
   16fac:	00fafdb3          	and	s11,s5,a5
   16fb0:	01c12783          	lw	a5,28(sp)
   16fb4:	00fd87b3          	add	a5,s11,a5
   16fb8:	04f04a63          	blt	zero,a5,1700c <_ldtoa_r+0x404>
   16fbc:	0c010513          	addi	a0,sp,192
   16fc0:	8fdfe0ef          	jal	ra,158bc <eclear>
   16fc4:	010a9a93          	slli	s5,s5,0x10
   16fc8:	410ada93          	srai	s5,s5,0x10
   16fcc:	100ad263          	bge	s5,zero,170d0 <_ldtoa_r+0x4c8>
   16fd0:	00000793          	addi	a5,zero,0
   16fd4:	03c10713          	addi	a4,sp,60
   16fd8:	00f70733          	add	a4,a4,a5
   16fdc:	00075683          	lhu	a3,0(a4)
   16fe0:	0c010713          	addi	a4,sp,192
   16fe4:	00f70733          	add	a4,a4,a5
   16fe8:	00075703          	lhu	a4,0(a4)
   16fec:	36e68a63          	beq	a3,a4,17360 <_ldtoa_r+0x758>
   16ff0:	00090513          	addi	a0,s2,0
   16ff4:	c05fe0ef          	jal	ra,15bf8 <eisnan>
   16ff8:	08050063          	beq	a0,zero,17078 <_ldtoa_r+0x470>
   16ffc:	0c010593          	addi	a1,sp,192
   17000:	00090513          	addi	a0,s2,0
   17004:	8cdfe0ef          	jal	ra,158d0 <emov>
   17008:	0c80006f          	jal	zero,170d0 <_ldtoa_r+0x4c8>
   1700c:	09000d93          	addi	s11,zero,144
   17010:	40fd8db3          	sub	s11,s11,a5
   17014:	0c010593          	addi	a1,sp,192
   17018:	03c10513          	addi	a0,sp,60
   1701c:	8b5fe0ef          	jal	ra,158d0 <emov>
   17020:	0bb05863          	bge	zero,s11,170d0 <_ldtoa_r+0x4c8>
   17024:	0c010713          	addi	a4,sp,192
   17028:	000d8793          	addi	a5,s11,0
   1702c:	00f00693          	addi	a3,zero,15
   17030:	02f6cc63          	blt	a3,a5,17068 <_ldtoa_r+0x460>
   17034:	004dd713          	srli	a4,s11,0x4
   17038:	00171793          	slli	a5,a4,0x1
   1703c:	00471713          	slli	a4,a4,0x4
   17040:	40ed8db3          	sub	s11,s11,a4
   17044:	0c010693          	addi	a3,sp,192
   17048:	001d9d93          	slli	s11,s11,0x1
   1704c:	00f687b3          	add	a5,a3,a5
   17050:	01b48db3          	add	s11,s1,s11
   17054:	0007d683          	lhu	a3,0(a5)
   17058:	12cdd703          	lhu	a4,300(s11)
   1705c:	00d77733          	and	a4,a4,a3
   17060:	00e79023          	sh	a4,0(a5)
   17064:	f61ff06f          	jal	zero,16fc4 <_ldtoa_r+0x3bc>
   17068:	00071023          	sh	zero,0(a4)
   1706c:	ff078793          	addi	a5,a5,-16
   17070:	00270713          	addi	a4,a4,2
   17074:	fbdff06f          	jal	zero,17030 <_ldtoa_r+0x428>
   17078:	0c010513          	addi	a0,sp,192
   1707c:	b7dfe0ef          	jal	ra,15bf8 <eisnan>
   17080:	00050863          	beq	a0,zero,17090 <_ldtoa_r+0x488>
   17084:	0c010593          	addi	a1,sp,192
   17088:	00058513          	addi	a0,a1,0
   1708c:	f79ff06f          	jal	zero,17004 <_ldtoa_r+0x3fc>
   17090:	00090513          	addi	a0,s2,0
   17094:	da9fe0ef          	jal	ra,15e3c <eisinf>
   17098:	00050a93          	addi	s5,a0,0
   1709c:	0c010513          	addi	a0,sp,192
   170a0:	d9dfe0ef          	jal	ra,15e3c <eisinf>
   170a4:	00050d93          	addi	s11,a0,0
   170a8:	140a8463          	beq	s5,zero,171f0 <_ldtoa_r+0x5e8>
   170ac:	10050c63          	beq	a0,zero,171c4 <_ldtoa_r+0x5bc>
   170b0:	00090513          	addi	a0,s2,0
   170b4:	b79fe0ef          	jal	ra,15c2c <eisneg>
   170b8:	00050a93          	addi	s5,a0,0
   170bc:	0c010513          	addi	a0,sp,192
   170c0:	b6dfe0ef          	jal	ra,15c2c <eisneg>
   170c4:	10aa9063          	bne	s5,a0,171c4 <_ldtoa_r+0x5bc>
   170c8:	0c010513          	addi	a0,sp,192
   170cc:	fe5fe0ef          	jal	ra,160b0 <enan.constprop.12>
   170d0:	00000793          	addi	a5,zero,0
   170d4:	08810713          	addi	a4,sp,136
   170d8:	00f70733          	add	a4,a4,a5
   170dc:	00075683          	lhu	a3,0(a4)
   170e0:	0c010713          	addi	a4,sp,192
   170e4:	00f70733          	add	a4,a4,a5
   170e8:	00075703          	lhu	a4,0(a4)
   170ec:	02e69263          	bne	a3,a4,17110 <_ldtoa_r+0x508>
   170f0:	00278793          	addi	a5,a5,2
   170f4:	01200713          	addi	a4,zero,18
   170f8:	fce79ee3          	bne	a5,a4,170d4 <_ldtoa_r+0x4cc>
   170fc:	0a410593          	addi	a1,sp,164
   17100:	08810513          	addi	a0,sp,136
   17104:	fccfe0ef          	jal	ra,158d0 <emov>
   17108:	00412783          	lw	a5,4(sp)
   1710c:	00f40433          	add	s0,s0,a5
   17110:	00412783          	lw	a5,4(sp)
   17114:	014c0c13          	addi	s8,s8,20
   17118:	01448d93          	addi	s11,s1,20
   1711c:	0017d793          	srli	a5,a5,0x1
   17120:	00f12223          	sw	a5,4(sp)
   17124:	11848793          	addi	a5,s1,280
   17128:	e4fc1ee3          	bne	s8,a5,16f84 <_ldtoa_r+0x37c>
   1712c:	0b615783          	lhu	a5,182(sp)
   17130:	07e15703          	lhu	a4,126(sp)
   17134:	06c10593          	addi	a1,sp,108
   17138:	0a410513          	addi	a0,sp,164
   1713c:	00e787b3          	add	a5,a5,a4
   17140:	ffffc737          	lui	a4,0xffffc
   17144:	f7270713          	addi	a4,a4,-142 # ffffbf72 <__BSS_END__+0xfffd637a>
   17148:	00e787b3          	add	a5,a5,a4
   1714c:	0af11b23          	sh	a5,182(sp)
   17150:	f80fe0ef          	jal	ra,158d0 <emov>
   17154:	08810593          	addi	a1,sp,136
   17158:	000c0513          	addi	a0,s8,0
   1715c:	f74fe0ef          	jal	ra,158d0 <emov>
   17160:	00001ab7          	lui	s5,0x1
   17164:	10448493          	addi	s1,s1,260
   17168:	0a410593          	addi	a1,sp,164
   1716c:	00048513          	addi	a0,s1,0
   17170:	bc5fe0ef          	jal	ra,15d34 <ecmp>
   17174:	cca042e3          	blt	zero,a0,16e38 <_ldtoa_r+0x230>
   17178:	0a410593          	addi	a1,sp,164
   1717c:	000d8513          	addi	a0,s11,0
   17180:	bb5fe0ef          	jal	ra,15d34 <ecmp>
   17184:	02a04863          	blt	zero,a0,171b4 <_ldtoa_r+0x5ac>
   17188:	0a410613          	addi	a2,sp,164
   1718c:	00060593          	addi	a1,a2,0
   17190:	15010693          	addi	a3,sp,336
   17194:	000d8513          	addi	a0,s11,0
   17198:	f40ff0ef          	jal	ra,168d8 <ediv>
   1719c:	08810613          	addi	a2,sp,136
   171a0:	15010693          	addi	a3,sp,336
   171a4:	00060593          	addi	a1,a2,0
   171a8:	000d8513          	addi	a0,s11,0
   171ac:	c9cff0ef          	jal	ra,16648 <emul>
   171b0:	01540433          	add	s0,s0,s5
   171b4:	001ada93          	srli	s5,s5,0x1
   171b8:	c89d80e3          	beq	s11,s1,16e38 <_ldtoa_r+0x230>
   171bc:	014d8d93          	addi	s11,s11,20
   171c0:	fa9ff06f          	jal	zero,17168 <_ldtoa_r+0x560>
   171c4:	00090513          	addi	a0,s2,0
   171c8:	0c010593          	addi	a1,sp,192
   171cc:	f04fe0ef          	jal	ra,158d0 <emov>
   171d0:	0c010513          	addi	a0,sp,192
   171d4:	a25fe0ef          	jal	ra,15bf8 <eisnan>
   171d8:	ee051ce3          	bne	a0,zero,170d0 <_ldtoa_r+0x4c8>
   171dc:	0d215783          	lhu	a5,210(sp)
   171e0:	ffff8737          	lui	a4,0xffff8
   171e4:	00e7c7b3          	xor	a5,a5,a4
   171e8:	0cf11923          	sh	a5,210(sp)
   171ec:	ee5ff06f          	jal	zero,170d0 <_ldtoa_r+0x4c8>
   171f0:	e8051ae3          	bne	a0,zero,17084 <_ldtoa_r+0x47c>
   171f4:	0dc10593          	addi	a1,sp,220
   171f8:	00090513          	addi	a0,s2,0
   171fc:	a69fe0ef          	jal	ra,15c64 <emovi>
   17200:	0f810593          	addi	a1,sp,248
   17204:	0c010513          	addi	a0,sp,192
   17208:	a5dfe0ef          	jal	ra,15c64 <emovi>
   1720c:	0dc15783          	lhu	a5,220(sp)
   17210:	0fa15a83          	lhu	s5,250(sp)
   17214:	fff7c793          	xori	a5,a5,-1
   17218:	0cf11e23          	sh	a5,220(sp)
   1721c:	0de15783          	lhu	a5,222(sp)
   17220:	415785b3          	sub	a1,a5,s5
   17224:	00f12623          	sw	a5,12(sp)
   17228:	02b05a63          	bge	zero,a1,1725c <_ldtoa_r+0x654>
   1722c:	11410593          	addi	a1,sp,276
   17230:	0f810513          	addi	a0,sp,248
   17234:	ed4fe0ef          	jal	ra,15908 <emovz>
   17238:	0f810593          	addi	a1,sp,248
   1723c:	0dc10513          	addi	a0,sp,220
   17240:	ec8fe0ef          	jal	ra,15908 <emovz>
   17244:	0dc10593          	addi	a1,sp,220
   17248:	11410513          	addi	a0,sp,276
   1724c:	ebcfe0ef          	jal	ra,15908 <emovz>
   17250:	00c12783          	lw	a5,12(sp)
   17254:	40fa85b3          	sub	a1,s5,a5
   17258:	0fa15a83          	lhu	s5,250(sp)
   1725c:	04058863          	beq	a1,zero,172ac <_ldtoa_r+0x6a4>
   17260:	f6f00793          	addi	a5,zero,-145
   17264:	08f5c463          	blt	a1,a5,172ec <_ldtoa_r+0x6e4>
   17268:	0dc10513          	addi	a0,sp,220
   1726c:	c31fe0ef          	jal	ra,15e9c <eshift.part.3>
   17270:	00a12623          	sw	a0,12(sp)
   17274:	0dc15703          	lhu	a4,220(sp)
   17278:	0f815783          	lhu	a5,248(sp)
   1727c:	0f810593          	addi	a1,sp,248
   17280:	0dc10513          	addi	a0,sp,220
   17284:	0cf71863          	bne	a4,a5,17354 <_ldtoa_r+0x74c>
   17288:	825fe0ef          	jal	ra,15aac <eaddm>
   1728c:	00c12583          	lw	a1,12(sp)
   17290:	15010793          	addi	a5,sp,336
   17294:	04000713          	addi	a4,zero,64
   17298:	000a8693          	addi	a3,s5,0 # 1000 <main-0xf074>
   1729c:	000d8613          	addi	a2,s11,0
   172a0:	0f810513          	addi	a0,sp,248
   172a4:	fa5fe0ef          	jal	ra,16248 <emdnorm>
   172a8:	0440006f          	jal	zero,172ec <_ldtoa_r+0x6e4>
   172ac:	0f810593          	addi	a1,sp,248
   172b0:	0dc10513          	addi	a0,sp,220
   172b4:	e7cfe0ef          	jal	ra,15930 <ecmpm>
   172b8:	06051663          	bne	a0,zero,17324 <_ldtoa_r+0x71c>
   172bc:	0dc15703          	lhu	a4,220(sp)
   172c0:	0f815783          	lhu	a5,248(sp)
   172c4:	00f70863          	beq	a4,a5,172d4 <_ldtoa_r+0x6cc>
   172c8:	0c010513          	addi	a0,sp,192
   172cc:	df0fe0ef          	jal	ra,158bc <eclear>
   172d0:	e01ff06f          	jal	zero,170d0 <_ldtoa_r+0x4c8>
   172d4:	0fa15783          	lhu	a5,250(sp)
   172d8:	02079263          	bne	a5,zero,172fc <_ldtoa_r+0x6f4>
   172dc:	0fe11783          	lh	a5,254(sp)
   172e0:	0007ce63          	blt	a5,zero,172fc <_ldtoa_r+0x6f4>
   172e4:	0f810513          	addi	a0,sp,248
   172e8:	ed4fe0ef          	jal	ra,159bc <eshup1>
   172ec:	0c010593          	addi	a1,sp,192
   172f0:	0f810513          	addi	a0,sp,248
   172f4:	dddfe0ef          	jal	ra,160d0 <emovo.isra.6>
   172f8:	dd9ff06f          	jal	zero,170d0 <_ldtoa_r+0x4c8>
   172fc:	0f810793          	addi	a5,sp,248
   17300:	10e10713          	addi	a4,sp,270
   17304:	0027d683          	lhu	a3,2(a5)
   17308:	00068863          	beq	a3,zero,17318 <_ldtoa_r+0x710>
   1730c:	001a8a93          	addi	s5,s5,1
   17310:	0f511d23          	sh	s5,250(sp)
   17314:	fd9ff06f          	jal	zero,172ec <_ldtoa_r+0x6e4>
   17318:	00278793          	addi	a5,a5,2
   1731c:	fef714e3          	bne	a4,a5,17304 <_ldtoa_r+0x6fc>
   17320:	ff1ff06f          	jal	zero,17310 <_ldtoa_r+0x708>
   17324:	00012623          	sw	zero,12(sp)
   17328:	f4a056e3          	bge	zero,a0,17274 <_ldtoa_r+0x66c>
   1732c:	11410593          	addi	a1,sp,276
   17330:	0f810513          	addi	a0,sp,248
   17334:	dd4fe0ef          	jal	ra,15908 <emovz>
   17338:	0f810593          	addi	a1,sp,248
   1733c:	0dc10513          	addi	a0,sp,220
   17340:	dc8fe0ef          	jal	ra,15908 <emovz>
   17344:	0dc10593          	addi	a1,sp,220
   17348:	11410513          	addi	a0,sp,276
   1734c:	dbcfe0ef          	jal	ra,15908 <emovz>
   17350:	f25ff06f          	jal	zero,17274 <_ldtoa_r+0x66c>
   17354:	f90fe0ef          	jal	ra,15ae4 <esubm>
   17358:	00100d93          	addi	s11,zero,1
   1735c:	f31ff06f          	jal	zero,1728c <_ldtoa_r+0x684>
   17360:	00278793          	addi	a5,a5,2
   17364:	01200713          	addi	a4,zero,18
   17368:	c6e796e3          	bne	a5,a4,16fd4 <_ldtoa_r+0x3cc>
   1736c:	d65ff06f          	jal	zero,170d0 <_ldtoa_r+0x4c8>
   17370:	07e15783          	lhu	a5,126(sp)
   17374:	00000413          	addi	s0,zero,0
   17378:	10448a93          	addi	s5,s1,260
   1737c:	0a078863          	beq	a5,zero,1742c <_ldtoa_r+0x824>
   17380:	0c010593          	addi	a1,sp,192
   17384:	06c10513          	addi	a0,sp,108
   17388:	00004ab7          	lui	s5,0x4
   1738c:	8d9fe0ef          	jal	ra,15c64 <emovi>
   17390:	ffea8a93          	addi	s5,s5,-2 # 3ffe <main-0xc076>
   17394:	fd500c13          	addi	s8,zero,-43
   17398:	0d815783          	lhu	a5,216(sp)
   1739c:	0077f793          	andi	a5,a5,7
   173a0:	06079263          	bne	a5,zero,17404 <_ldtoa_r+0x7fc>
   173a4:	0a410593          	addi	a1,sp,164
   173a8:	0c010513          	addi	a0,sp,192
   173ac:	d5cfe0ef          	jal	ra,15908 <emovz>
   173b0:	0a410513          	addi	a0,sp,164
   173b4:	db8fe0ef          	jal	ra,1596c <eshdn1>
   173b8:	0a410513          	addi	a0,sp,164
   173bc:	db0fe0ef          	jal	ra,1596c <eshdn1>
   173c0:	0a410593          	addi	a1,sp,164
   173c4:	0c010513          	addi	a0,sp,192
   173c8:	ee4fe0ef          	jal	ra,15aac <eaddm>
   173cc:	0a615783          	lhu	a5,166(sp)
   173d0:	00378793          	addi	a5,a5,3
   173d4:	0af11323          	sh	a5,166(sp)
   173d8:	0a815783          	lhu	a5,168(sp)
   173dc:	10079a63          	bne	a5,zero,174f0 <_ldtoa_r+0x8e8>
   173e0:	0bc15783          	lhu	a5,188(sp)
   173e4:	02079063          	bne	a5,zero,17404 <_ldtoa_r+0x7fc>
   173e8:	0a615783          	lhu	a5,166(sp)
   173ec:	00faec63          	bltu	s5,a5,17404 <_ldtoa_r+0x7fc>
   173f0:	0c010593          	addi	a1,sp,192
   173f4:	0a410513          	addi	a0,sp,164
   173f8:	fff40413          	addi	s0,s0,-1
   173fc:	d0cfe0ef          	jal	ra,15908 <emovz>
   17400:	f9841ce3          	bne	s0,s8,17398 <_ldtoa_r+0x790>
   17404:	06c10593          	addi	a1,sp,108
   17408:	0c010513          	addi	a0,sp,192
   1740c:	cc5fe0ef          	jal	ra,160d0 <emovo.isra.6>
   17410:	0240006f          	jal	zero,17434 <_ldtoa_r+0x82c>
   17414:	06c10613          	addi	a2,sp,108
   17418:	15010693          	addi	a3,sp,336
   1741c:	00060593          	addi	a1,a2,0
   17420:	000a8513          	addi	a0,s5,0
   17424:	a24ff0ef          	jal	ra,16648 <emul>
   17428:	fff40413          	addi	s0,s0,-1
   1742c:	07c11783          	lh	a5,124(sp)
   17430:	fe07d2e3          	bge	a5,zero,17414 <_ldtoa_r+0x80c>
   17434:	0c010593          	addi	a1,sp,192
   17438:	06c10513          	addi	a0,sp,108
   1743c:	c94fe0ef          	jal	ra,158d0 <emov>
   17440:	08810593          	addi	a1,sp,136
   17444:	00090513          	addi	a0,s2,0
   17448:	c88fe0ef          	jal	ra,158d0 <emov>
   1744c:	01448793          	addi	a5,s1,20
   17450:	00000c13          	addi	s8,zero,0
   17454:	fffffab7          	lui	s5,0xfffff
   17458:	15048d93          	addi	s11,s1,336
   1745c:	00f12223          	sw	a5,4(sp)
   17460:	00412783          	lw	a5,4(sp)
   17464:	018d8733          	add	a4,s11,s8
   17468:	0c010593          	addi	a1,sp,192
   1746c:	00090513          	addi	a0,s2,0
   17470:	00e12623          	sw	a4,12(sp)
   17474:	018784b3          	add	s1,a5,s8
   17478:	8bdfe0ef          	jal	ra,15d34 <ecmp>
   1747c:	00c12703          	lw	a4,12(sp)
   17480:	04a05c63          	bge	zero,a0,174d8 <_ldtoa_r+0x8d0>
   17484:	0c010593          	addi	a1,sp,192
   17488:	00070513          	addi	a0,a4,0 # ffff8000 <__BSS_END__+0xfffd2408>
   1748c:	8a9fe0ef          	jal	ra,15d34 <ecmp>
   17490:	02054863          	blt	a0,zero,174c0 <_ldtoa_r+0x8b8>
   17494:	0c010613          	addi	a2,sp,192
   17498:	00060593          	addi	a1,a2,0
   1749c:	15010693          	addi	a3,sp,336
   174a0:	00048513          	addi	a0,s1,0
   174a4:	9a4ff0ef          	jal	ra,16648 <emul>
   174a8:	08810613          	addi	a2,sp,136
   174ac:	15010693          	addi	a3,sp,336
   174b0:	00060593          	addi	a1,a2,0
   174b4:	00048513          	addi	a0,s1,0
   174b8:	990ff0ef          	jal	ra,16648 <emul>
   174bc:	01540433          	add	s0,s0,s5
   174c0:	01fad713          	srli	a4,s5,0x1f
   174c4:	01570ab3          	add	s5,a4,s5
   174c8:	014c0c13          	addi	s8,s8,20
   174cc:	10400793          	addi	a5,zero,260
   174d0:	401ada93          	srai	s5,s5,0x1
   174d4:	f8fc16e3          	bne	s8,a5,17460 <_ldtoa_r+0x858>
   174d8:	08810613          	addi	a2,sp,136
   174dc:	15010693          	addi	a3,sp,336
   174e0:	00090593          	addi	a1,s2,0
   174e4:	00060513          	addi	a0,a2,0
   174e8:	bf0ff0ef          	jal	ra,168d8 <ediv>
   174ec:	94dff06f          	jal	zero,16e38 <_ldtoa_r+0x230>
   174f0:	0a410513          	addi	a0,sp,164
   174f4:	c78fe0ef          	jal	ra,1596c <eshdn1>
   174f8:	0a615783          	lhu	a5,166(sp)
   174fc:	00178793          	addi	a5,a5,1
   17500:	ed5ff06f          	jal	zero,173d4 <_ldtoa_r+0x7cc>
   17504:	06c10513          	addi	a0,sp,108
   17508:	cb4fe0ef          	jal	ra,159bc <eshup1>
   1750c:	0a410593          	addi	a1,sp,164
   17510:	06c10513          	addi	a0,sp,108
   17514:	bf4fe0ef          	jal	ra,15908 <emovz>
   17518:	0a410513          	addi	a0,sp,164
   1751c:	ca0fe0ef          	jal	ra,159bc <eshup1>
   17520:	0a410513          	addi	a0,sp,164
   17524:	c98fe0ef          	jal	ra,159bc <eshup1>
   17528:	06c10593          	addi	a1,sp,108
   1752c:	0a410513          	addi	a0,sp,164
   17530:	d7cfe0ef          	jal	ra,15aac <eaddm>
   17534:	15010613          	addi	a2,sp,336
   17538:	06c10593          	addi	a1,sp,108
   1753c:	08810513          	addi	a0,sp,136
   17540:	824ff0ef          	jal	ra,16564 <eiremain>
   17544:	fff40413          	addi	s0,s0,-1
   17548:	19c15483          	lhu	s1,412(sp)
   1754c:	931ff06f          	jal	zero,16e7c <_ldtoa_r+0x274>
   17550:	02000793          	addi	a5,zero,32
   17554:	94dff06f          	jal	zero,16ea0 <_ldtoa_r+0x298>
   17558:	03048493          	addi	s1,s1,48
   1755c:	02e00793          	addi	a5,zero,46
   17560:	10910aa3          	sb	s1,277(sp)
   17564:	10f10b23          	sb	a5,278(sp)
   17568:	11710493          	addi	s1,sp,279
   1756c:	01748ab3          	add	s5,s1,s7
   17570:	05795663          	bge	s2,s7,175bc <_ldtoa_r+0x9b4>
   17574:	19c15783          	lhu	a5,412(sp)
   17578:	00400713          	addi	a4,zero,4
   1757c:	fffa8493          	addi	s1,s5,-1 # ffffefff <__BSS_END__+0xfffd9407>
   17580:	96f75ce3          	bge	a4,a5,16ef8 <_ldtoa_r+0x2f0>
   17584:	00500713          	addi	a4,zero,5
   17588:	08e78463          	beq	a5,a4,17610 <_ldtoa_r+0xa08>
   1758c:	00048793          	addi	a5,s1,0
   17590:	02e00613          	addi	a2,zero,46
   17594:	03800593          	addi	a1,zero,56
   17598:	03000693          	addi	a3,zero,48
   1759c:	fff78793          	addi	a5,a5,-1
   175a0:	0007c703          	lbu	a4,0(a5)
   175a4:	07f77713          	andi	a4,a4,127
   175a8:	0a095863          	bge	s2,zero,17658 <_ldtoa_r+0xa50>
   175ac:	03100713          	addi	a4,zero,49
   175b0:	00e78023          	sb	a4,0(a5)
   175b4:	00140413          	addi	s0,s0,1
   175b8:	941ff06f          	jal	zero,16ef8 <_ldtoa_r+0x2f0>
   175bc:	06c10513          	addi	a0,sp,108
   175c0:	bfcfe0ef          	jal	ra,159bc <eshup1>
   175c4:	0a410593          	addi	a1,sp,164
   175c8:	06c10513          	addi	a0,sp,108
   175cc:	b3cfe0ef          	jal	ra,15908 <emovz>
   175d0:	0a410513          	addi	a0,sp,164
   175d4:	be8fe0ef          	jal	ra,159bc <eshup1>
   175d8:	0a410513          	addi	a0,sp,164
   175dc:	be0fe0ef          	jal	ra,159bc <eshup1>
   175e0:	06c10593          	addi	a1,sp,108
   175e4:	0a410513          	addi	a0,sp,164
   175e8:	cc4fe0ef          	jal	ra,15aac <eaddm>
   175ec:	15010613          	addi	a2,sp,336
   175f0:	06c10593          	addi	a1,sp,108
   175f4:	08810513          	addi	a0,sp,136
   175f8:	f6dfe0ef          	jal	ra,16564 <eiremain>
   175fc:	19c14783          	lbu	a5,412(sp)
   17600:	001b8b93          	addi	s7,s7,1
   17604:	03078793          	addi	a5,a5,48
   17608:	00fa8023          	sb	a5,0(s5)
   1760c:	f61ff06f          	jal	zero,1756c <_ldtoa_r+0x964>
   17610:	08810593          	addi	a1,sp,136
   17614:	06c10513          	addi	a0,sp,108
   17618:	ab9fe0ef          	jal	ra,160d0 <emovo.isra.6>
   1761c:	00812783          	lw	a5,8(sp)
   17620:	08810513          	addi	a0,sp,136
   17624:	60478593          	addi	a1,a5,1540
   17628:	f0cfe0ef          	jal	ra,15d34 <ecmp>
   1762c:	f60510e3          	bne	a0,zero,1758c <_ldtoa_r+0x984>
   17630:	8c0944e3          	blt	s2,zero,16ef8 <_ldtoa_r+0x2f0>
   17634:	ffeac783          	lbu	a5,-2(s5)
   17638:	fd278793          	addi	a5,a5,-46
   1763c:	0017b793          	sltiu	a5,a5,1
   17640:	fff7c793          	xori	a5,a5,-1
   17644:	00f487b3          	add	a5,s1,a5
   17648:	0007c783          	lbu	a5,0(a5)
   1764c:	0017f793          	andi	a5,a5,1
   17650:	f2079ee3          	bne	a5,zero,1758c <_ldtoa_r+0x984>
   17654:	8a5ff06f          	jal	zero,16ef8 <_ldtoa_r+0x2f0>
   17658:	02c71463          	bne	a4,a2,17680 <_ldtoa_r+0xa78>
   1765c:	fff7c703          	lbu	a4,-1(a5)
   17660:	03800693          	addi	a3,zero,56
   17664:	00e6e863          	bltu	a3,a4,17674 <_ldtoa_r+0xa6c>
   17668:	00170713          	addi	a4,a4,1
   1766c:	fee78fa3          	sb	a4,-1(a5)
   17670:	889ff06f          	jal	zero,16ef8 <_ldtoa_r+0x2f0>
   17674:	00140413          	addi	s0,s0,1
   17678:	03100713          	addi	a4,zero,49
   1767c:	ff1ff06f          	jal	zero,1766c <_ldtoa_r+0xa64>
   17680:	00e5e863          	bltu	a1,a4,17690 <_ldtoa_r+0xa88>
   17684:	00170713          	addi	a4,a4,1
   17688:	00e78023          	sb	a4,0(a5)
   1768c:	86dff06f          	jal	zero,16ef8 <_ldtoa_r+0x2f0>
   17690:	00d78023          	sb	a3,0(a5)
   17694:	f09ff06f          	jal	zero,1759c <_ldtoa_r+0x994>
   17698:	00140793          	addi	a5,s0,1
   1769c:	00fd2023          	sw	a5,0(s10)
   176a0:	02e00693          	addi	a3,zero,46
   176a4:	00090793          	addi	a5,s2,0
   176a8:	0007c703          	lbu	a4,0(a5)
   176ac:	00071663          	bne	a4,zero,176b8 <_ldtoa_r+0xab0>
   176b0:	04500713          	addi	a4,zero,69
   176b4:	02c0006f          	jal	zero,176e0 <_ldtoa_r+0xad8>
   176b8:	00178613          	addi	a2,a5,1
   176bc:	00d70663          	beq	a4,a3,176c8 <_ldtoa_r+0xac0>
   176c0:	00060793          	addi	a5,a2,0
   176c4:	fe5ff06f          	jal	zero,176a8 <_ldtoa_r+0xaa0>
   176c8:	0017c703          	lbu	a4,1(a5)
   176cc:	00178793          	addi	a5,a5,1
   176d0:	fee78fa3          	sb	a4,-1(a5)
   176d4:	fe071ae3          	bne	a4,zero,176c8 <_ldtoa_r+0xac0>
   176d8:	fd9ff06f          	jal	zero,176b0 <_ldtoa_r+0xaa8>
   176dc:	fff78793          	addi	a5,a5,-1
   176e0:	0007c683          	lbu	a3,0(a5)
   176e4:	00e68463          	beq	a3,a4,176ec <_ldtoa_r+0xae4>
   176e8:	fef96ae3          	bltu	s2,a5,176dc <_ldtoa_r+0xad4>
   176ec:	00078023          	sb	zero,0(a5)
   176f0:	e60ff06f          	jal	zero,16d50 <_ldtoa_r+0x148>
   176f4:	00178793          	addi	a5,a5,1
   176f8:	e64ff06f          	jal	zero,16d5c <_ldtoa_r+0x154>
   176fc:	00068493          	addi	s1,a3,0
   17700:	e6cff06f          	jal	zero,16d6c <_ldtoa_r+0x164>
   17704:	fff48493          	addi	s1,s1,-1
   17708:	00048023          	sb	zero,0(s1)
   1770c:	fff4c703          	lbu	a4,-1(s1)
   17710:	00d71663          	bne	a4,a3,1771c <_ldtoa_r+0xb14>
   17714:	41248733          	sub	a4,s1,s2
   17718:	fee7c6e3          	blt	a5,a4,17704 <_ldtoa_r+0xafc>
   1771c:	00300713          	addi	a4,zero,3
   17720:	009c8793          	addi	a5,s9,9
   17724:	02eb1263          	bne	s6,a4,17748 <_ldtoa_r+0xb40>
   17728:	00898433          	add	s0,s3,s0
   1772c:	00045863          	bge	s0,zero,1773c <_ldtoa_r+0xb34>
   17730:	10010a23          	sb	zero,276(sp)
   17734:	000d2023          	sw	zero,0(s10)
   17738:	00090493          	addi	s1,s2,0
   1773c:	000d2783          	lw	a5,0(s10)
   17740:	00fc8cb3          	add	s9,s9,a5
   17744:	003c8793          	addi	a5,s9,3
   17748:	040a2223          	sw	zero,68(s4)
   1774c:	00400713          	addi	a4,zero,4
   17750:	01470693          	addi	a3,a4,20
   17754:	044a2583          	lw	a1,68(s4)
   17758:	06d7f863          	bgeu	a5,a3,177c8 <_ldtoa_r+0xbc0>
   1775c:	000a0513          	addi	a0,s4,0
   17760:	2d1000ef          	jal	ra,18230 <_Balloc>
   17764:	04aa2023          	sw	a0,64(s4)
   17768:	00090593          	addi	a1,s2,0
   1776c:	00050413          	addi	s0,a0,0
   17770:	3c0020ef          	jal	ra,19b30 <strcpy>
   17774:	01012783          	lw	a5,16(sp)
   17778:	00078863          	beq	a5,zero,17788 <_ldtoa_r+0xb80>
   1777c:	412484b3          	sub	s1,s1,s2
   17780:	009404b3          	add	s1,s0,s1
   17784:	0097a023          	sw	s1,0(a5)
   17788:	00040513          	addi	a0,s0,0
   1778c:	1dc12083          	lw	ra,476(sp)
   17790:	1d812403          	lw	s0,472(sp)
   17794:	1d412483          	lw	s1,468(sp)
   17798:	1d012903          	lw	s2,464(sp)
   1779c:	1cc12983          	lw	s3,460(sp)
   177a0:	1c812a03          	lw	s4,456(sp)
   177a4:	1c412a83          	lw	s5,452(sp)
   177a8:	1c012b03          	lw	s6,448(sp)
   177ac:	1bc12b83          	lw	s7,444(sp)
   177b0:	1b812c03          	lw	s8,440(sp)
   177b4:	1b412c83          	lw	s9,436(sp)
   177b8:	1b012d03          	lw	s10,432(sp)
   177bc:	1ac12d83          	lw	s11,428(sp)
   177c0:	1e010113          	addi	sp,sp,480
   177c4:	00008067          	jalr	zero,0(ra)
   177c8:	00158593          	addi	a1,a1,1
   177cc:	04ba2223          	sw	a1,68(s4)
   177d0:	00171713          	slli	a4,a4,0x1
   177d4:	f7dff06f          	jal	zero,17750 <_ldtoa_r+0xb48>
   177d8:	000087b7          	lui	a5,0x8
   177dc:	fff78793          	addi	a5,a5,-1 # 7fff <main-0x8075>
   177e0:	f2f71e63          	bne	a4,a5,16f1c <_ldtoa_r+0x314>
   177e4:	00012783          	lw	a5,0(sp)
   177e8:	f2078463          	beq	a5,zero,16f10 <_ldtoa_r+0x308>
   177ec:	000245b7          	lui	a1,0x24
   177f0:	86058593          	addi	a1,a1,-1952 # 23860 <emtens+0x10c>
   177f4:	d18ff06f          	jal	zero,16d0c <_ldtoa_r+0x104>

000177f8 <_ldcheck>:
   177f8:	00052783          	lw	a5,0(a0)
   177fc:	fc010113          	addi	sp,sp,-64
   17800:	01410593          	addi	a1,sp,20
   17804:	00f12023          	sw	a5,0(sp)
   17808:	00452783          	lw	a5,4(a0)
   1780c:	02112e23          	sw	ra,60(sp)
   17810:	00f12223          	sw	a5,4(sp)
   17814:	00852783          	lw	a5,8(a0)
   17818:	00f12423          	sw	a5,8(sp)
   1781c:	00c52783          	lw	a5,12(a0)
   17820:	00010513          	addi	a0,sp,0
   17824:	00f12623          	sw	a5,12(sp)
   17828:	919fe0ef          	jal	ra,16140 <e113toe.isra.8>
   1782c:	02615783          	lhu	a5,38(sp)
   17830:	00000513          	addi	a0,zero,0
   17834:	fff7c793          	xori	a5,a5,-1
   17838:	01179713          	slli	a4,a5,0x11
   1783c:	00071a63          	bne	a4,zero,17850 <_ldcheck+0x58>
   17840:	01410513          	addi	a0,sp,20
   17844:	bb4fe0ef          	jal	ra,15bf8 <eisnan>
   17848:	00153513          	sltiu	a0,a0,1
   1784c:	00150513          	addi	a0,a0,1
   17850:	03c12083          	lw	ra,60(sp)
   17854:	04010113          	addi	sp,sp,64
   17858:	00008067          	jalr	zero,0(ra)

0001785c <__localeconv_l>:
   1785c:	0f050513          	addi	a0,a0,240
   17860:	00008067          	jalr	zero,0(ra)

00017864 <_localeconv_r>:
   17864:	1c01a783          	lw	a5,448(gp) # 25b90 <_impure_ptr>
   17868:	0347a503          	lw	a0,52(a5)
   1786c:	00051463          	bne	a0,zero,17874 <_localeconv_r+0x10>
   17870:	c2818513          	addi	a0,gp,-984 # 255f8 <__global_locale>
   17874:	0f050513          	addi	a0,a0,240
   17878:	00008067          	jalr	zero,0(ra)

0001787c <localeconv>:
   1787c:	1c01a783          	lw	a5,448(gp) # 25b90 <_impure_ptr>
   17880:	0347a503          	lw	a0,52(a5)
   17884:	00051463          	bne	a0,zero,1788c <localeconv+0x10>
   17888:	c2818513          	addi	a0,gp,-984 # 255f8 <__global_locale>
   1788c:	0f050513          	addi	a0,a0,240
   17890:	00008067          	jalr	zero,0(ra)

00017894 <_setlocale_r>:
   17894:	ff010113          	addi	sp,sp,-16
   17898:	00912223          	sw	s1,4(sp)
   1789c:	00112623          	sw	ra,12(sp)
   178a0:	00812423          	sw	s0,8(sp)
   178a4:	000244b7          	lui	s1,0x24
   178a8:	00061e63          	bne	a2,zero,178c4 <_setlocale_r+0x30>
   178ac:	88048513          	addi	a0,s1,-1920 # 23880 <emtens+0x12c>
   178b0:	00c12083          	lw	ra,12(sp)
   178b4:	00812403          	lw	s0,8(sp)
   178b8:	00412483          	lw	s1,4(sp)
   178bc:	01010113          	addi	sp,sp,16
   178c0:	00008067          	jalr	zero,0(ra)
   178c4:	000245b7          	lui	a1,0x24
   178c8:	88458593          	addi	a1,a1,-1916 # 23884 <emtens+0x130>
   178cc:	00060513          	addi	a0,a2,0
   178d0:	00060413          	addi	s0,a2,0
   178d4:	0e0020ef          	jal	ra,199b4 <strcmp>
   178d8:	fc050ae3          	beq	a0,zero,178ac <_setlocale_r+0x18>
   178dc:	88048593          	addi	a1,s1,-1920
   178e0:	00040513          	addi	a0,s0,0
   178e4:	0d0020ef          	jal	ra,199b4 <strcmp>
   178e8:	fc0502e3          	beq	a0,zero,178ac <_setlocale_r+0x18>
   178ec:	000235b7          	lui	a1,0x23
   178f0:	40858593          	addi	a1,a1,1032 # 23408 <rsbox+0x2a4>
   178f4:	00040513          	addi	a0,s0,0
   178f8:	0bc020ef          	jal	ra,199b4 <strcmp>
   178fc:	fa0508e3          	beq	a0,zero,178ac <_setlocale_r+0x18>
   17900:	00000513          	addi	a0,zero,0
   17904:	fadff06f          	jal	zero,178b0 <_setlocale_r+0x1c>

00017908 <__locale_mb_cur_max>:
   17908:	1c01a783          	lw	a5,448(gp) # 25b90 <_impure_ptr>
   1790c:	0347a783          	lw	a5,52(a5)
   17910:	00079463          	bne	a5,zero,17918 <__locale_mb_cur_max+0x10>
   17914:	c2818793          	addi	a5,gp,-984 # 255f8 <__global_locale>
   17918:	1287c503          	lbu	a0,296(a5)
   1791c:	00008067          	jalr	zero,0(ra)

00017920 <__locale_ctype_ptr_l>:
   17920:	0ec52503          	lw	a0,236(a0)
   17924:	00008067          	jalr	zero,0(ra)

00017928 <__locale_ctype_ptr>:
   17928:	1c01a783          	lw	a5,448(gp) # 25b90 <_impure_ptr>
   1792c:	0347a783          	lw	a5,52(a5)
   17930:	00079463          	bne	a5,zero,17938 <__locale_ctype_ptr+0x10>
   17934:	c2818793          	addi	a5,gp,-984 # 255f8 <__global_locale>
   17938:	0ec7a503          	lw	a0,236(a5)
   1793c:	00008067          	jalr	zero,0(ra)

00017940 <setlocale>:
   17940:	00058613          	addi	a2,a1,0
   17944:	00050593          	addi	a1,a0,0
   17948:	1c01a503          	lw	a0,448(gp) # 25b90 <_impure_ptr>
   1794c:	f49ff06f          	jal	zero,17894 <_setlocale_r>

00017950 <__swhatbuf_r>:
   17950:	f8010113          	addi	sp,sp,-128
   17954:	06912a23          	sw	s1,116(sp)
   17958:	00058493          	addi	s1,a1,0
   1795c:	00e59583          	lh	a1,14(a1)
   17960:	06812c23          	sw	s0,120(sp)
   17964:	06112e23          	sw	ra,124(sp)
   17968:	00060413          	addi	s0,a2,0
   1796c:	0005de63          	bge	a1,zero,17988 <__swhatbuf_r+0x38>
   17970:	00c4d783          	lhu	a5,12(s1)
   17974:	0006a023          	sw	zero,0(a3)
   17978:	0807f793          	andi	a5,a5,128
   1797c:	04079863          	bne	a5,zero,179cc <__swhatbuf_r+0x7c>
   17980:	40000793          	addi	a5,zero,1024
   17984:	04c0006f          	jal	zero,179d0 <__swhatbuf_r+0x80>
   17988:	01810613          	addi	a2,sp,24
   1798c:	00d12623          	sw	a3,12(sp)
   17990:	3b0050ef          	jal	ra,1cd40 <_fstat_r>
   17994:	00c12683          	lw	a3,12(sp)
   17998:	fc054ce3          	blt	a0,zero,17970 <__swhatbuf_r+0x20>
   1799c:	01c12703          	lw	a4,28(sp)
   179a0:	0000f7b7          	lui	a5,0xf
   179a4:	00001537          	lui	a0,0x1
   179a8:	00e7f7b3          	and	a5,a5,a4
   179ac:	ffffe737          	lui	a4,0xffffe
   179b0:	00e787b3          	add	a5,a5,a4
   179b4:	0017b793          	sltiu	a5,a5,1
   179b8:	00f6a023          	sw	a5,0(a3)
   179bc:	40000793          	addi	a5,zero,1024
   179c0:	00f42023          	sw	a5,0(s0)
   179c4:	80050513          	addi	a0,a0,-2048 # 800 <main-0xf874>
   179c8:	0100006f          	jal	zero,179d8 <__swhatbuf_r+0x88>
   179cc:	04000793          	addi	a5,zero,64
   179d0:	00f42023          	sw	a5,0(s0)
   179d4:	00000513          	addi	a0,zero,0
   179d8:	07c12083          	lw	ra,124(sp)
   179dc:	07812403          	lw	s0,120(sp)
   179e0:	07412483          	lw	s1,116(sp)
   179e4:	08010113          	addi	sp,sp,128
   179e8:	00008067          	jalr	zero,0(ra)

000179ec <__smakebuf_r>:
   179ec:	00c5d783          	lhu	a5,12(a1)
   179f0:	fe010113          	addi	sp,sp,-32
   179f4:	00812c23          	sw	s0,24(sp)
   179f8:	00112e23          	sw	ra,28(sp)
   179fc:	00912a23          	sw	s1,20(sp)
   17a00:	01212823          	sw	s2,16(sp)
   17a04:	0027f793          	andi	a5,a5,2
   17a08:	00058413          	addi	s0,a1,0
   17a0c:	02078863          	beq	a5,zero,17a3c <__smakebuf_r+0x50>
   17a10:	04340793          	addi	a5,s0,67
   17a14:	00f42023          	sw	a5,0(s0)
   17a18:	00f42823          	sw	a5,16(s0)
   17a1c:	00100793          	addi	a5,zero,1
   17a20:	00f42a23          	sw	a5,20(s0)
   17a24:	01c12083          	lw	ra,28(sp)
   17a28:	01812403          	lw	s0,24(sp)
   17a2c:	01412483          	lw	s1,20(sp)
   17a30:	01012903          	lw	s2,16(sp)
   17a34:	02010113          	addi	sp,sp,32
   17a38:	00008067          	jalr	zero,0(ra)
   17a3c:	00c10693          	addi	a3,sp,12
   17a40:	00810613          	addi	a2,sp,8
   17a44:	00050493          	addi	s1,a0,0
   17a48:	f09ff0ef          	jal	ra,17950 <__swhatbuf_r>
   17a4c:	00812583          	lw	a1,8(sp)
   17a50:	00050913          	addi	s2,a0,0
   17a54:	00048513          	addi	a0,s1,0
   17a58:	084000ef          	jal	ra,17adc <_malloc_r>
   17a5c:	02051063          	bne	a0,zero,17a7c <__smakebuf_r+0x90>
   17a60:	00c41783          	lh	a5,12(s0)
   17a64:	2007f713          	andi	a4,a5,512
   17a68:	fa071ee3          	bne	a4,zero,17a24 <__smakebuf_r+0x38>
   17a6c:	ffc7f793          	andi	a5,a5,-4
   17a70:	0027e793          	ori	a5,a5,2
   17a74:	00f41623          	sh	a5,12(s0)
   17a78:	f99ff06f          	jal	zero,17a10 <__smakebuf_r+0x24>
   17a7c:	000157b7          	lui	a5,0x15
   17a80:	d8078793          	addi	a5,a5,-640 # 14d80 <_cleanup_r>
   17a84:	02f4ae23          	sw	a5,60(s1)
   17a88:	00c45783          	lhu	a5,12(s0)
   17a8c:	00a42023          	sw	a0,0(s0)
   17a90:	00a42823          	sw	a0,16(s0)
   17a94:	0807e793          	ori	a5,a5,128
   17a98:	00f41623          	sh	a5,12(s0)
   17a9c:	00812783          	lw	a5,8(sp)
   17aa0:	00f42a23          	sw	a5,20(s0)
   17aa4:	00c12783          	lw	a5,12(sp)
   17aa8:	02078263          	beq	a5,zero,17acc <__smakebuf_r+0xe0>
   17aac:	00e41583          	lh	a1,14(s0)
   17ab0:	00048513          	addi	a0,s1,0
   17ab4:	2d8050ef          	jal	ra,1cd8c <_isatty_r>
   17ab8:	00050a63          	beq	a0,zero,17acc <__smakebuf_r+0xe0>
   17abc:	00c45783          	lhu	a5,12(s0)
   17ac0:	ffc7f793          	andi	a5,a5,-4
   17ac4:	0017e793          	ori	a5,a5,1
   17ac8:	00f41623          	sh	a5,12(s0)
   17acc:	00c45783          	lhu	a5,12(s0)
   17ad0:	00f96933          	or	s2,s2,a5
   17ad4:	01241623          	sh	s2,12(s0)
   17ad8:	f4dff06f          	jal	zero,17a24 <__smakebuf_r+0x38>

00017adc <_malloc_r>:
   17adc:	fd010113          	addi	sp,sp,-48
   17ae0:	02112623          	sw	ra,44(sp)
   17ae4:	02812423          	sw	s0,40(sp)
   17ae8:	02912223          	sw	s1,36(sp)
   17aec:	03212023          	sw	s2,32(sp)
   17af0:	01312e23          	sw	s3,28(sp)
   17af4:	01412c23          	sw	s4,24(sp)
   17af8:	01512a23          	sw	s5,20(sp)
   17afc:	01612823          	sw	s6,16(sp)
   17b00:	01712623          	sw	s7,12(sp)
   17b04:	01812423          	sw	s8,8(sp)
   17b08:	01912223          	sw	s9,4(sp)
   17b0c:	00b58793          	addi	a5,a1,11
   17b10:	01600713          	addi	a4,zero,22
   17b14:	04f77663          	bgeu	a4,a5,17b60 <_malloc_r+0x84>
   17b18:	ff87f493          	andi	s1,a5,-8
   17b1c:	0404d463          	bge	s1,zero,17b64 <_malloc_r+0x88>
   17b20:	00c00793          	addi	a5,zero,12
   17b24:	00f52023          	sw	a5,0(a0)
   17b28:	00000513          	addi	a0,zero,0
   17b2c:	02c12083          	lw	ra,44(sp)
   17b30:	02812403          	lw	s0,40(sp)
   17b34:	02412483          	lw	s1,36(sp)
   17b38:	02012903          	lw	s2,32(sp)
   17b3c:	01c12983          	lw	s3,28(sp)
   17b40:	01812a03          	lw	s4,24(sp)
   17b44:	01412a83          	lw	s5,20(sp)
   17b48:	01012b03          	lw	s6,16(sp)
   17b4c:	00c12b83          	lw	s7,12(sp)
   17b50:	00812c03          	lw	s8,8(sp)
   17b54:	00412c83          	lw	s9,4(sp)
   17b58:	03010113          	addi	sp,sp,48
   17b5c:	00008067          	jalr	zero,0(ra)
   17b60:	01000493          	addi	s1,zero,16
   17b64:	fab4eee3          	bltu	s1,a1,17b20 <_malloc_r+0x44>
   17b68:	00050993          	addi	s3,a0,0
   17b6c:	6bc000ef          	jal	ra,18228 <__malloc_lock>
   17b70:	1f700793          	addi	a5,zero,503
   17b74:	d9418913          	addi	s2,gp,-620 # 25764 <__malloc_av_>
   17b78:	0497ea63          	bltu	a5,s1,17bcc <_malloc_r+0xf0>
   17b7c:	00848713          	addi	a4,s1,8
   17b80:	00e90733          	add	a4,s2,a4
   17b84:	00472403          	lw	s0,4(a4) # ffffe004 <__BSS_END__+0xfffd840c>
   17b88:	ff870693          	addi	a3,a4,-8
   17b8c:	0034d793          	srli	a5,s1,0x3
   17b90:	00d41863          	bne	s0,a3,17ba0 <_malloc_r+0xc4>
   17b94:	00c72403          	lw	s0,12(a4)
   17b98:	00278793          	addi	a5,a5,2
   17b9c:	08870063          	beq	a4,s0,17c1c <_malloc_r+0x140>
   17ba0:	00442783          	lw	a5,4(s0)
   17ba4:	00c42703          	lw	a4,12(s0)
   17ba8:	00842683          	lw	a3,8(s0)
   17bac:	ffc7f793          	andi	a5,a5,-4
   17bb0:	00f407b3          	add	a5,s0,a5
   17bb4:	00e6a623          	sw	a4,12(a3)
   17bb8:	00d72423          	sw	a3,8(a4)
   17bbc:	0047a703          	lw	a4,4(a5)
   17bc0:	00176713          	ori	a4,a4,1
   17bc4:	00e7a223          	sw	a4,4(a5)
   17bc8:	0a40006f          	jal	zero,17c6c <_malloc_r+0x190>
   17bcc:	0094d713          	srli	a4,s1,0x9
   17bd0:	03f00793          	addi	a5,zero,63
   17bd4:	00070a63          	beq	a4,zero,17be8 <_malloc_r+0x10c>
   17bd8:	00400793          	addi	a5,zero,4
   17bdc:	0ae7e063          	bltu	a5,a4,17c7c <_malloc_r+0x1a0>
   17be0:	0064d793          	srli	a5,s1,0x6
   17be4:	03878793          	addi	a5,a5,56
   17be8:	00178713          	addi	a4,a5,1
   17bec:	00371713          	slli	a4,a4,0x3
   17bf0:	00e90733          	add	a4,s2,a4
   17bf4:	00472403          	lw	s0,4(a4)
   17bf8:	ff870593          	addi	a1,a4,-8
   17bfc:	00f00513          	addi	a0,zero,15
   17c00:	00b40c63          	beq	s0,a1,17c18 <_malloc_r+0x13c>
   17c04:	00442703          	lw	a4,4(s0)
   17c08:	ffc77713          	andi	a4,a4,-4
   17c0c:	40970633          	sub	a2,a4,s1
   17c10:	0ac55e63          	bge	a0,a2,17ccc <_malloc_r+0x1f0>
   17c14:	fff78793          	addi	a5,a5,-1
   17c18:	00178793          	addi	a5,a5,1
   17c1c:	01092403          	lw	s0,16(s2)
   17c20:	00890693          	addi	a3,s2,8
   17c24:	d9c18593          	addi	a1,gp,-612 # 2576c <__malloc_av_+0x8>
   17c28:	12d40863          	beq	s0,a3,17d58 <_malloc_r+0x27c>
   17c2c:	00442703          	lw	a4,4(s0)
   17c30:	00f00613          	addi	a2,zero,15
   17c34:	ffc77713          	andi	a4,a4,-4
   17c38:	40970533          	sub	a0,a4,s1
   17c3c:	0aa65a63          	bge	a2,a0,17cf0 <_malloc_r+0x214>
   17c40:	0014e793          	ori	a5,s1,1
   17c44:	00f42223          	sw	a5,4(s0)
   17c48:	00940633          	add	a2,s0,s1
   17c4c:	00c92a23          	sw	a2,20(s2)
   17c50:	00c92823          	sw	a2,16(s2)
   17c54:	00156793          	ori	a5,a0,1
   17c58:	00d62623          	sw	a3,12(a2)
   17c5c:	00d62423          	sw	a3,8(a2)
   17c60:	00f62223          	sw	a5,4(a2)
   17c64:	00e40733          	add	a4,s0,a4
   17c68:	00a72023          	sw	a0,0(a4)
   17c6c:	00098513          	addi	a0,s3,0
   17c70:	5bc000ef          	jal	ra,1822c <__malloc_unlock>
   17c74:	00840513          	addi	a0,s0,8
   17c78:	eb5ff06f          	jal	zero,17b2c <_malloc_r+0x50>
   17c7c:	01400793          	addi	a5,zero,20
   17c80:	00e7e663          	bltu	a5,a4,17c8c <_malloc_r+0x1b0>
   17c84:	05b70793          	addi	a5,a4,91
   17c88:	f61ff06f          	jal	zero,17be8 <_malloc_r+0x10c>
   17c8c:	05400793          	addi	a5,zero,84
   17c90:	00e7e863          	bltu	a5,a4,17ca0 <_malloc_r+0x1c4>
   17c94:	00c4d793          	srli	a5,s1,0xc
   17c98:	06e78793          	addi	a5,a5,110
   17c9c:	f4dff06f          	jal	zero,17be8 <_malloc_r+0x10c>
   17ca0:	15400793          	addi	a5,zero,340
   17ca4:	00e7e863          	bltu	a5,a4,17cb4 <_malloc_r+0x1d8>
   17ca8:	00f4d793          	srli	a5,s1,0xf
   17cac:	07778793          	addi	a5,a5,119
   17cb0:	f39ff06f          	jal	zero,17be8 <_malloc_r+0x10c>
   17cb4:	55400693          	addi	a3,zero,1364
   17cb8:	07e00793          	addi	a5,zero,126
   17cbc:	f2e6e6e3          	bltu	a3,a4,17be8 <_malloc_r+0x10c>
   17cc0:	0124d793          	srli	a5,s1,0x12
   17cc4:	07c78793          	addi	a5,a5,124
   17cc8:	f21ff06f          	jal	zero,17be8 <_malloc_r+0x10c>
   17ccc:	00c42683          	lw	a3,12(s0)
   17cd0:	00064c63          	blt	a2,zero,17ce8 <_malloc_r+0x20c>
   17cd4:	00842783          	lw	a5,8(s0)
   17cd8:	00d7a623          	sw	a3,12(a5)
   17cdc:	00f6a423          	sw	a5,8(a3)
   17ce0:	00e407b3          	add	a5,s0,a4
   17ce4:	ed9ff06f          	jal	zero,17bbc <_malloc_r+0xe0>
   17ce8:	00068413          	addi	s0,a3,0
   17cec:	f15ff06f          	jal	zero,17c00 <_malloc_r+0x124>
   17cf0:	00d92a23          	sw	a3,20(s2)
   17cf4:	00d92823          	sw	a3,16(s2)
   17cf8:	00054c63          	blt	a0,zero,17d10 <_malloc_r+0x234>
   17cfc:	00e40733          	add	a4,s0,a4
   17d00:	00472783          	lw	a5,4(a4)
   17d04:	0017e793          	ori	a5,a5,1
   17d08:	00f72223          	sw	a5,4(a4)
   17d0c:	f61ff06f          	jal	zero,17c6c <_malloc_r+0x190>
   17d10:	1ff00693          	addi	a3,zero,511
   17d14:	00492803          	lw	a6,4(s2)
   17d18:	16e6e663          	bltu	a3,a4,17e84 <_malloc_r+0x3a8>
   17d1c:	00375713          	srli	a4,a4,0x3
   17d20:	40275613          	srai	a2,a4,0x2
   17d24:	00100693          	addi	a3,zero,1
   17d28:	00170713          	addi	a4,a4,1
   17d2c:	00c696b3          	sll	a3,a3,a2
   17d30:	00371713          	slli	a4,a4,0x3
   17d34:	00e90733          	add	a4,s2,a4
   17d38:	0106e6b3          	or	a3,a3,a6
   17d3c:	00d92223          	sw	a3,4(s2)
   17d40:	00072683          	lw	a3,0(a4)
   17d44:	ff870613          	addi	a2,a4,-8
   17d48:	00c42623          	sw	a2,12(s0)
   17d4c:	00d42423          	sw	a3,8(s0)
   17d50:	00872023          	sw	s0,0(a4)
   17d54:	0086a623          	sw	s0,12(a3)
   17d58:	4027d713          	srai	a4,a5,0x2
   17d5c:	00100313          	addi	t1,zero,1
   17d60:	00e31333          	sll	t1,t1,a4
   17d64:	00492703          	lw	a4,4(s2)
   17d68:	06676a63          	bltu	a4,t1,17ddc <_malloc_r+0x300>
   17d6c:	006776b3          	and	a3,a4,t1
   17d70:	00069c63          	bne	a3,zero,17d88 <_malloc_r+0x2ac>
   17d74:	ffc7f793          	andi	a5,a5,-4
   17d78:	00131313          	slli	t1,t1,0x1
   17d7c:	006776b3          	and	a3,a4,t1
   17d80:	00478793          	addi	a5,a5,4
   17d84:	fe068ae3          	beq	a3,zero,17d78 <_malloc_r+0x29c>
   17d88:	00f00e13          	addi	t3,zero,15
   17d8c:	00379693          	slli	a3,a5,0x3
   17d90:	00d906b3          	add	a3,s2,a3
   17d94:	00068813          	addi	a6,a3,0
   17d98:	00078513          	addi	a0,a5,0
   17d9c:	00c82403          	lw	s0,12(a6)
   17da0:	1b041263          	bne	s0,a6,17f44 <_malloc_r+0x468>
   17da4:	00150513          	addi	a0,a0,1
   17da8:	00357713          	andi	a4,a0,3
   17dac:	00880813          	addi	a6,a6,8
   17db0:	fe0716e3          	bne	a4,zero,17d9c <_malloc_r+0x2c0>
   17db4:	0037f713          	andi	a4,a5,3
   17db8:	20071463          	bne	a4,zero,17fc0 <_malloc_r+0x4e4>
   17dbc:	00492703          	lw	a4,4(s2)
   17dc0:	fff34793          	xori	a5,t1,-1
   17dc4:	00f777b3          	and	a5,a4,a5
   17dc8:	00f92223          	sw	a5,4(s2)
   17dcc:	00492703          	lw	a4,4(s2)
   17dd0:	00131313          	slli	t1,t1,0x1
   17dd4:	00676463          	bltu	a4,t1,17ddc <_malloc_r+0x300>
   17dd8:	20031863          	bne	t1,zero,17fe8 <_malloc_r+0x50c>
   17ddc:	00892b83          	lw	s7,8(s2)
   17de0:	004ba403          	lw	s0,4(s7)
   17de4:	ffc47a93          	andi	s5,s0,-4
   17de8:	009ae863          	bltu	s5,s1,17df8 <_malloc_r+0x31c>
   17dec:	409a8733          	sub	a4,s5,s1
   17df0:	00f00793          	addi	a5,zero,15
   17df4:	32e7c463          	blt	a5,a4,1811c <_malloc_r+0x640>
   17df8:	1d81a403          	lw	s0,472(gp) # 25ba8 <__malloc_top_pad>
   17dfc:	1c41a703          	lw	a4,452(gp) # 25b94 <__malloc_sbrk_base>
   17e00:	fff00793          	addi	a5,zero,-1
   17e04:	015b8cb3          	add	s9,s7,s5
   17e08:	00848433          	add	s0,s1,s0
   17e0c:	1ef71263          	bne	a4,a5,17ff0 <_malloc_r+0x514>
   17e10:	01040413          	addi	s0,s0,16
   17e14:	00040593          	addi	a1,s0,0
   17e18:	00098513          	addi	a0,s3,0
   17e1c:	091010ef          	jal	ra,196ac <_sbrk_r>
   17e20:	fff00793          	addi	a5,zero,-1
   17e24:	00050b13          	addi	s6,a0,0
   17e28:	28f50063          	beq	a0,a5,180a8 <_malloc_r+0x5cc>
   17e2c:	01957463          	bgeu	a0,s9,17e34 <_malloc_r+0x358>
   17e30:	272b9c63          	bne	s7,s2,180a8 <_malloc_r+0x5cc>
   17e34:	1fc18693          	addi	a3,gp,508 # 25bcc <__malloc_current_mallinfo>
   17e38:	0006a703          	lw	a4,0(a3)
   17e3c:	1fc18c13          	addi	s8,gp,508 # 25bcc <__malloc_current_mallinfo>
   17e40:	00e40733          	add	a4,s0,a4
   17e44:	00e6a023          	sw	a4,0(a3)
   17e48:	1d6c9063          	bne	s9,s6,18008 <_malloc_r+0x52c>
   17e4c:	014c9793          	slli	a5,s9,0x14
   17e50:	1a079c63          	bne	a5,zero,18008 <_malloc_r+0x52c>
   17e54:	00892783          	lw	a5,8(s2)
   17e58:	008a8433          	add	s0,s5,s0
   17e5c:	00146413          	ori	s0,s0,1
   17e60:	0087a223          	sw	s0,4(a5)
   17e64:	000c2783          	lw	a5,0(s8)
   17e68:	1d41a683          	lw	a3,468(gp) # 25ba4 <__malloc_max_sbrked_mem>
   17e6c:	00f6f463          	bgeu	a3,a5,17e74 <_malloc_r+0x398>
   17e70:	1cf1aa23          	sw	a5,468(gp) # 25ba4 <__malloc_max_sbrked_mem>
   17e74:	1d01a683          	lw	a3,464(gp) # 25ba0 <__malloc_max_total_mem>
   17e78:	22f6f863          	bgeu	a3,a5,180a8 <_malloc_r+0x5cc>
   17e7c:	1cf1a823          	sw	a5,464(gp) # 25ba0 <__malloc_max_total_mem>
   17e80:	2280006f          	jal	zero,180a8 <_malloc_r+0x5cc>
   17e84:	00975613          	srli	a2,a4,0x9
   17e88:	00400693          	addi	a3,zero,4
   17e8c:	04c6e663          	bltu	a3,a2,17ed8 <_malloc_r+0x3fc>
   17e90:	00675693          	srli	a3,a4,0x6
   17e94:	03868693          	addi	a3,a3,56
   17e98:	00168613          	addi	a2,a3,1
   17e9c:	00361613          	slli	a2,a2,0x3
   17ea0:	00c90633          	add	a2,s2,a2
   17ea4:	ff860513          	addi	a0,a2,-8
   17ea8:	00062603          	lw	a2,0(a2)
   17eac:	08c51263          	bne	a0,a2,17f30 <_malloc_r+0x454>
   17eb0:	4026d693          	srai	a3,a3,0x2
   17eb4:	00100713          	addi	a4,zero,1
   17eb8:	00d716b3          	sll	a3,a4,a3
   17ebc:	0106e6b3          	or	a3,a3,a6
   17ec0:	00d92223          	sw	a3,4(s2)
   17ec4:	00a42623          	sw	a0,12(s0)
   17ec8:	00c42423          	sw	a2,8(s0)
   17ecc:	00852423          	sw	s0,8(a0)
   17ed0:	00862623          	sw	s0,12(a2)
   17ed4:	e85ff06f          	jal	zero,17d58 <_malloc_r+0x27c>
   17ed8:	01400693          	addi	a3,zero,20
   17edc:	00c6e663          	bltu	a3,a2,17ee8 <_malloc_r+0x40c>
   17ee0:	05b60693          	addi	a3,a2,91
   17ee4:	fb5ff06f          	jal	zero,17e98 <_malloc_r+0x3bc>
   17ee8:	05400693          	addi	a3,zero,84
   17eec:	00c6e863          	bltu	a3,a2,17efc <_malloc_r+0x420>
   17ef0:	00c75693          	srli	a3,a4,0xc
   17ef4:	06e68693          	addi	a3,a3,110
   17ef8:	fa1ff06f          	jal	zero,17e98 <_malloc_r+0x3bc>
   17efc:	15400693          	addi	a3,zero,340
   17f00:	00c6e863          	bltu	a3,a2,17f10 <_malloc_r+0x434>
   17f04:	00f75693          	srli	a3,a4,0xf
   17f08:	07768693          	addi	a3,a3,119
   17f0c:	f8dff06f          	jal	zero,17e98 <_malloc_r+0x3bc>
   17f10:	55400513          	addi	a0,zero,1364
   17f14:	07e00693          	addi	a3,zero,126
   17f18:	f8c560e3          	bltu	a0,a2,17e98 <_malloc_r+0x3bc>
   17f1c:	01275693          	srli	a3,a4,0x12
   17f20:	07c68693          	addi	a3,a3,124
   17f24:	f75ff06f          	jal	zero,17e98 <_malloc_r+0x3bc>
   17f28:	00862603          	lw	a2,8(a2)
   17f2c:	00c50863          	beq	a0,a2,17f3c <_malloc_r+0x460>
   17f30:	00462683          	lw	a3,4(a2)
   17f34:	ffc6f693          	andi	a3,a3,-4
   17f38:	fed768e3          	bltu	a4,a3,17f28 <_malloc_r+0x44c>
   17f3c:	00c62503          	lw	a0,12(a2)
   17f40:	f85ff06f          	jal	zero,17ec4 <_malloc_r+0x3e8>
   17f44:	00442703          	lw	a4,4(s0)
   17f48:	00c42603          	lw	a2,12(s0)
   17f4c:	ffc77713          	andi	a4,a4,-4
   17f50:	409708b3          	sub	a7,a4,s1
   17f54:	051e5063          	bge	t3,a7,17f94 <_malloc_r+0x4b8>
   17f58:	0014e793          	ori	a5,s1,1
   17f5c:	00f42223          	sw	a5,4(s0)
   17f60:	00842783          	lw	a5,8(s0)
   17f64:	009406b3          	add	a3,s0,s1
   17f68:	00e40733          	add	a4,s0,a4
   17f6c:	00c7a623          	sw	a2,12(a5)
   17f70:	00f62423          	sw	a5,8(a2)
   17f74:	00d92a23          	sw	a3,20(s2)
   17f78:	00d92823          	sw	a3,16(s2)
   17f7c:	0018e793          	ori	a5,a7,1
   17f80:	00b6a623          	sw	a1,12(a3)
   17f84:	00b6a423          	sw	a1,8(a3)
   17f88:	00f6a223          	sw	a5,4(a3)
   17f8c:	01172023          	sw	a7,0(a4)
   17f90:	cddff06f          	jal	zero,17c6c <_malloc_r+0x190>
   17f94:	0208c263          	blt	a7,zero,17fb8 <_malloc_r+0x4dc>
   17f98:	00e40733          	add	a4,s0,a4
   17f9c:	00472783          	lw	a5,4(a4)
   17fa0:	0017e793          	ori	a5,a5,1
   17fa4:	00f72223          	sw	a5,4(a4)
   17fa8:	00842783          	lw	a5,8(s0)
   17fac:	00c7a623          	sw	a2,12(a5)
   17fb0:	00f62423          	sw	a5,8(a2)
   17fb4:	cb9ff06f          	jal	zero,17c6c <_malloc_r+0x190>
   17fb8:	00060413          	addi	s0,a2,0
   17fbc:	de5ff06f          	jal	zero,17da0 <_malloc_r+0x2c4>
   17fc0:	ff868693          	addi	a3,a3,-8
   17fc4:	0086a703          	lw	a4,8(a3)
   17fc8:	fff78793          	addi	a5,a5,-1
   17fcc:	ded704e3          	beq	a4,a3,17db4 <_malloc_r+0x2d8>
   17fd0:	dfdff06f          	jal	zero,17dcc <_malloc_r+0x2f0>
   17fd4:	00478793          	addi	a5,a5,4
   17fd8:	00131313          	slli	t1,t1,0x1
   17fdc:	006776b3          	and	a3,a4,t1
   17fe0:	fe068ae3          	beq	a3,zero,17fd4 <_malloc_r+0x4f8>
   17fe4:	da9ff06f          	jal	zero,17d8c <_malloc_r+0x2b0>
   17fe8:	00050793          	addi	a5,a0,0
   17fec:	ff1ff06f          	jal	zero,17fdc <_malloc_r+0x500>
   17ff0:	00001737          	lui	a4,0x1
   17ff4:	00f70713          	addi	a4,a4,15 # 100f <main-0xf065>
   17ff8:	00e40433          	add	s0,s0,a4
   17ffc:	fffff7b7          	lui	a5,0xfffff
   18000:	00f47433          	and	s0,s0,a5
   18004:	e11ff06f          	jal	zero,17e14 <_malloc_r+0x338>
   18008:	1c41a683          	lw	a3,452(gp) # 25b94 <__malloc_sbrk_base>
   1800c:	fff00793          	addi	a5,zero,-1
   18010:	0cf69063          	bne	a3,a5,180d0 <_malloc_r+0x5f4>
   18014:	1d61a223          	sw	s6,452(gp) # 25b94 <__malloc_sbrk_base>
   18018:	007b7c93          	andi	s9,s6,7
   1801c:	00000793          	addi	a5,zero,0
   18020:	000c8863          	beq	s9,zero,18030 <_malloc_r+0x554>
   18024:	00800793          	addi	a5,zero,8
   18028:	419787b3          	sub	a5,a5,s9
   1802c:	00fb0b33          	add	s6,s6,a5
   18030:	00001537          	lui	a0,0x1
   18034:	00a78a33          	add	s4,a5,a0
   18038:	008b0433          	add	s0,s6,s0
   1803c:	fff50513          	addi	a0,a0,-1 # fff <main-0xf075>
   18040:	00a477b3          	and	a5,s0,a0
   18044:	40fa0a33          	sub	s4,s4,a5
   18048:	00aa7a33          	and	s4,s4,a0
   1804c:	000a0593          	addi	a1,s4,0
   18050:	00098513          	addi	a0,s3,0
   18054:	658010ef          	jal	ra,196ac <_sbrk_r>
   18058:	fff00793          	addi	a5,zero,-1
   1805c:	00f51c63          	bne	a0,a5,18074 <_malloc_r+0x598>
   18060:	00040513          	addi	a0,s0,0
   18064:	000c8663          	beq	s9,zero,18070 <_malloc_r+0x594>
   18068:	ff8c8513          	addi	a0,s9,-8
   1806c:	00a40533          	add	a0,s0,a0
   18070:	00000a13          	addi	s4,zero,0
   18074:	000c2783          	lw	a5,0(s8)
   18078:	41650533          	sub	a0,a0,s6
   1807c:	01692423          	sw	s6,8(s2)
   18080:	014787b3          	add	a5,a5,s4
   18084:	01450a33          	add	s4,a0,s4
   18088:	001a6a13          	ori	s4,s4,1
   1808c:	00fc2023          	sw	a5,0(s8)
   18090:	014b2223          	sw	s4,4(s6)
   18094:	dd2b88e3          	beq	s7,s2,17e64 <_malloc_r+0x388>
   18098:	00f00713          	addi	a4,zero,15
   1809c:	05576263          	bltu	a4,s5,180e0 <_malloc_r+0x604>
   180a0:	00100793          	addi	a5,zero,1
   180a4:	00fb2223          	sw	a5,4(s6)
   180a8:	00892783          	lw	a5,8(s2)
   180ac:	0047a783          	lw	a5,4(a5) # fffff004 <__BSS_END__+0xfffd940c>
   180b0:	ffc7f793          	andi	a5,a5,-4
   180b4:	40978733          	sub	a4,a5,s1
   180b8:	0097e663          	bltu	a5,s1,180c4 <_malloc_r+0x5e8>
   180bc:	00f00793          	addi	a5,zero,15
   180c0:	04e7ce63          	blt	a5,a4,1811c <_malloc_r+0x640>
   180c4:	00098513          	addi	a0,s3,0
   180c8:	164000ef          	jal	ra,1822c <__malloc_unlock>
   180cc:	a5dff06f          	jal	zero,17b28 <_malloc_r+0x4c>
   180d0:	419b07b3          	sub	a5,s6,s9
   180d4:	00e787b3          	add	a5,a5,a4
   180d8:	00fc2023          	sw	a5,0(s8)
   180dc:	f3dff06f          	jal	zero,18018 <_malloc_r+0x53c>
   180e0:	004ba783          	lw	a5,4(s7)
   180e4:	ff4a8413          	addi	s0,s5,-12
   180e8:	ff847413          	andi	s0,s0,-8
   180ec:	0017f793          	andi	a5,a5,1
   180f0:	0087e7b3          	or	a5,a5,s0
   180f4:	00fba223          	sw	a5,4(s7)
   180f8:	00500693          	addi	a3,zero,5
   180fc:	008b87b3          	add	a5,s7,s0
   18100:	00d7a223          	sw	a3,4(a5)
   18104:	00d7a423          	sw	a3,8(a5)
   18108:	d4877ee3          	bgeu	a4,s0,17e64 <_malloc_r+0x388>
   1810c:	008b8593          	addi	a1,s7,8
   18110:	00098513          	addi	a0,s3,0
   18114:	fa5fc0ef          	jal	ra,150b8 <_free_r>
   18118:	d4dff06f          	jal	zero,17e64 <_malloc_r+0x388>
   1811c:	00892403          	lw	s0,8(s2)
   18120:	0014e793          	ori	a5,s1,1
   18124:	00f42223          	sw	a5,4(s0)
   18128:	009407b3          	add	a5,s0,s1
   1812c:	00f92423          	sw	a5,8(s2)
   18130:	a91ff06f          	jal	zero,17bc0 <_malloc_r+0xe4>

00018134 <_mbtowc_r>:
   18134:	1c01a783          	lw	a5,448(gp) # 25b90 <_impure_ptr>
   18138:	0347a783          	lw	a5,52(a5)
   1813c:	00079463          	bne	a5,zero,18144 <_mbtowc_r+0x10>
   18140:	c2818793          	addi	a5,gp,-984 # 255f8 <__global_locale>
   18144:	0e47a303          	lw	t1,228(a5)
   18148:	00030067          	jalr	zero,0(t1)

0001814c <__ascii_mbtowc>:
   1814c:	02059a63          	bne	a1,zero,18180 <__ascii_mbtowc+0x34>
   18150:	ff010113          	addi	sp,sp,-16
   18154:	00c10593          	addi	a1,sp,12
   18158:	00000513          	addi	a0,zero,0
   1815c:	00060e63          	beq	a2,zero,18178 <__ascii_mbtowc+0x2c>
   18160:	ffe00513          	addi	a0,zero,-2
   18164:	00068a63          	beq	a3,zero,18178 <__ascii_mbtowc+0x2c>
   18168:	00064783          	lbu	a5,0(a2)
   1816c:	00f5a023          	sw	a5,0(a1)
   18170:	00064503          	lbu	a0,0(a2)
   18174:	00a03533          	sltu	a0,zero,a0
   18178:	01010113          	addi	sp,sp,16
   1817c:	00008067          	jalr	zero,0(ra)
   18180:	00000513          	addi	a0,zero,0
   18184:	02060063          	beq	a2,zero,181a4 <__ascii_mbtowc+0x58>
   18188:	ffe00513          	addi	a0,zero,-2
   1818c:	00068c63          	beq	a3,zero,181a4 <__ascii_mbtowc+0x58>
   18190:	00064783          	lbu	a5,0(a2)
   18194:	00f5a023          	sw	a5,0(a1)
   18198:	00064503          	lbu	a0,0(a2)
   1819c:	00a03533          	sltu	a0,zero,a0
   181a0:	00008067          	jalr	zero,0(ra)
   181a4:	00008067          	jalr	zero,0(ra)

000181a8 <memchr>:
   181a8:	0ff5f593          	andi	a1,a1,255
   181ac:	00c50633          	add	a2,a0,a2
   181b0:	00c51663          	bne	a0,a2,181bc <memchr+0x14>
   181b4:	00000513          	addi	a0,zero,0
   181b8:	00008067          	jalr	zero,0(ra)
   181bc:	00054783          	lbu	a5,0(a0)
   181c0:	feb78ce3          	beq	a5,a1,181b8 <memchr+0x10>
   181c4:	00150513          	addi	a0,a0,1
   181c8:	fe9ff06f          	jal	zero,181b0 <memchr+0x8>

000181cc <memmove>:
   181cc:	04a5fa63          	bgeu	a1,a0,18220 <memmove+0x54>
   181d0:	00c586b3          	add	a3,a1,a2
   181d4:	04d57663          	bgeu	a0,a3,18220 <memmove+0x54>
   181d8:	fff64593          	xori	a1,a2,-1
   181dc:	00000793          	addi	a5,zero,0
   181e0:	fff78793          	addi	a5,a5,-1
   181e4:	00f59463          	bne	a1,a5,181ec <memmove+0x20>
   181e8:	00008067          	jalr	zero,0(ra)
   181ec:	00f68733          	add	a4,a3,a5
   181f0:	00074803          	lbu	a6,0(a4)
   181f4:	00c78733          	add	a4,a5,a2
   181f8:	00e50733          	add	a4,a0,a4
   181fc:	01070023          	sb	a6,0(a4)
   18200:	fe1ff06f          	jal	zero,181e0 <memmove+0x14>
   18204:	00f58733          	add	a4,a1,a5
   18208:	00074683          	lbu	a3,0(a4)
   1820c:	00f50733          	add	a4,a0,a5
   18210:	00178793          	addi	a5,a5,1
   18214:	00d70023          	sb	a3,0(a4)
   18218:	fef616e3          	bne	a2,a5,18204 <memmove+0x38>
   1821c:	00008067          	jalr	zero,0(ra)
   18220:	00000793          	addi	a5,zero,0
   18224:	ff5ff06f          	jal	zero,18218 <memmove+0x4c>

00018228 <__malloc_lock>:
   18228:	00008067          	jalr	zero,0(ra)

0001822c <__malloc_unlock>:
   1822c:	00008067          	jalr	zero,0(ra)

00018230 <_Balloc>:
   18230:	04c52783          	lw	a5,76(a0)
   18234:	ff010113          	addi	sp,sp,-16
   18238:	00912223          	sw	s1,4(sp)
   1823c:	01212023          	sw	s2,0(sp)
   18240:	00112623          	sw	ra,12(sp)
   18244:	00812423          	sw	s0,8(sp)
   18248:	00050493          	addi	s1,a0,0
   1824c:	00058913          	addi	s2,a1,0
   18250:	04078263          	beq	a5,zero,18294 <_Balloc+0x64>
   18254:	04c4a703          	lw	a4,76(s1)
   18258:	00291793          	slli	a5,s2,0x2
   1825c:	00f707b3          	add	a5,a4,a5
   18260:	0007a503          	lw	a0,0(a5)
   18264:	06051063          	bne	a0,zero,182c4 <_Balloc+0x94>
   18268:	00100413          	addi	s0,zero,1
   1826c:	01241433          	sll	s0,s0,s2
   18270:	00540613          	addi	a2,s0,5
   18274:	00261613          	slli	a2,a2,0x2
   18278:	00100593          	addi	a1,zero,1
   1827c:	00048513          	addi	a0,s1,0
   18280:	74c040ef          	jal	ra,1c9cc <_calloc_r>
   18284:	02050263          	beq	a0,zero,182a8 <_Balloc+0x78>
   18288:	01252223          	sw	s2,4(a0)
   1828c:	00852423          	sw	s0,8(a0)
   18290:	03c0006f          	jal	zero,182cc <_Balloc+0x9c>
   18294:	02100613          	addi	a2,zero,33
   18298:	00400593          	addi	a1,zero,4
   1829c:	730040ef          	jal	ra,1c9cc <_calloc_r>
   182a0:	04a4a623          	sw	a0,76(s1)
   182a4:	fa0518e3          	bne	a0,zero,18254 <_Balloc+0x24>
   182a8:	00000513          	addi	a0,zero,0
   182ac:	00c12083          	lw	ra,12(sp)
   182b0:	00812403          	lw	s0,8(sp)
   182b4:	00412483          	lw	s1,4(sp)
   182b8:	00012903          	lw	s2,0(sp)
   182bc:	01010113          	addi	sp,sp,16
   182c0:	00008067          	jalr	zero,0(ra)
   182c4:	00052703          	lw	a4,0(a0)
   182c8:	00e7a023          	sw	a4,0(a5)
   182cc:	00052823          	sw	zero,16(a0)
   182d0:	00052623          	sw	zero,12(a0)
   182d4:	fd9ff06f          	jal	zero,182ac <_Balloc+0x7c>

000182d8 <_Bfree>:
   182d8:	02058063          	beq	a1,zero,182f8 <_Bfree+0x20>
   182dc:	0045a783          	lw	a5,4(a1)
   182e0:	00279713          	slli	a4,a5,0x2
   182e4:	04c52783          	lw	a5,76(a0)
   182e8:	00e787b3          	add	a5,a5,a4
   182ec:	0007a703          	lw	a4,0(a5)
   182f0:	00e5a023          	sw	a4,0(a1)
   182f4:	00b7a023          	sw	a1,0(a5)
   182f8:	00008067          	jalr	zero,0(ra)

000182fc <__multadd>:
   182fc:	fd010113          	addi	sp,sp,-48
   18300:	02912223          	sw	s1,36(sp)
   18304:	0105a483          	lw	s1,16(a1)
   18308:	01512a23          	sw	s5,20(sp)
   1830c:	00010ab7          	lui	s5,0x10
   18310:	02812423          	sw	s0,40(sp)
   18314:	03212023          	sw	s2,32(sp)
   18318:	01312e23          	sw	s3,28(sp)
   1831c:	01612823          	sw	s6,16(sp)
   18320:	01712623          	sw	s7,12(sp)
   18324:	01812423          	sw	s8,8(sp)
   18328:	02112623          	sw	ra,44(sp)
   1832c:	01412c23          	sw	s4,24(sp)
   18330:	01912223          	sw	s9,4(sp)
   18334:	00050b13          	addi	s6,a0,0
   18338:	00058413          	addi	s0,a1,0
   1833c:	00060b93          	addi	s7,a2,0
   18340:	00068913          	addi	s2,a3,0
   18344:	01458993          	addi	s3,a1,20
   18348:	00000c13          	addi	s8,zero,0
   1834c:	fffa8a93          	addi	s5,s5,-1 # ffff <main-0x75>
   18350:	0009ac83          	lw	s9,0(s3)
   18354:	000b8593          	addi	a1,s7,0
   18358:	00498993          	addi	s3,s3,4
   1835c:	015cf533          	and	a0,s9,s5
   18360:	3d50a0ef          	jal	ra,22f34 <__mulsi3>
   18364:	01250a33          	add	s4,a0,s2
   18368:	000b8593          	addi	a1,s7,0
   1836c:	010cd513          	srli	a0,s9,0x10
   18370:	3c50a0ef          	jal	ra,22f34 <__mulsi3>
   18374:	010a5793          	srli	a5,s4,0x10
   18378:	00f50533          	add	a0,a0,a5
   1837c:	01055913          	srli	s2,a0,0x10
   18380:	015a7a33          	and	s4,s4,s5
   18384:	01051513          	slli	a0,a0,0x10
   18388:	01450533          	add	a0,a0,s4
   1838c:	fea9ae23          	sw	a0,-4(s3)
   18390:	001c0c13          	addi	s8,s8,1
   18394:	fa9c4ee3          	blt	s8,s1,18350 <__multadd+0x54>
   18398:	06090063          	beq	s2,zero,183f8 <__multadd+0xfc>
   1839c:	00842783          	lw	a5,8(s0)
   183a0:	04f4c063          	blt	s1,a5,183e0 <__multadd+0xe4>
   183a4:	00442583          	lw	a1,4(s0)
   183a8:	000b0513          	addi	a0,s6,0
   183ac:	00158593          	addi	a1,a1,1
   183b0:	e81ff0ef          	jal	ra,18230 <_Balloc>
   183b4:	01042603          	lw	a2,16(s0)
   183b8:	00c40593          	addi	a1,s0,12
   183bc:	00050993          	addi	s3,a0,0
   183c0:	00260613          	addi	a2,a2,2
   183c4:	00261613          	slli	a2,a2,0x2
   183c8:	00c50513          	addi	a0,a0,12
   183cc:	8a0fa0ef          	jal	ra,1246c <memcpy>
   183d0:	00040593          	addi	a1,s0,0
   183d4:	000b0513          	addi	a0,s6,0
   183d8:	f01ff0ef          	jal	ra,182d8 <_Bfree>
   183dc:	00098413          	addi	s0,s3,0
   183e0:	00448793          	addi	a5,s1,4
   183e4:	00279793          	slli	a5,a5,0x2
   183e8:	00f407b3          	add	a5,s0,a5
   183ec:	0127a223          	sw	s2,4(a5)
   183f0:	00148493          	addi	s1,s1,1
   183f4:	00942823          	sw	s1,16(s0)
   183f8:	00040513          	addi	a0,s0,0
   183fc:	02c12083          	lw	ra,44(sp)
   18400:	02812403          	lw	s0,40(sp)
   18404:	02412483          	lw	s1,36(sp)
   18408:	02012903          	lw	s2,32(sp)
   1840c:	01c12983          	lw	s3,28(sp)
   18410:	01812a03          	lw	s4,24(sp)
   18414:	01412a83          	lw	s5,20(sp)
   18418:	01012b03          	lw	s6,16(sp)
   1841c:	00c12b83          	lw	s7,12(sp)
   18420:	00812c03          	lw	s8,8(sp)
   18424:	00412c83          	lw	s9,4(sp)
   18428:	03010113          	addi	sp,sp,48
   1842c:	00008067          	jalr	zero,0(ra)

00018430 <__s2b>:
   18430:	fe010113          	addi	sp,sp,-32
   18434:	00812c23          	sw	s0,24(sp)
   18438:	01312623          	sw	s3,12(sp)
   1843c:	00058413          	addi	s0,a1,0
   18440:	00050993          	addi	s3,a0,0
   18444:	00900593          	addi	a1,zero,9
   18448:	00868513          	addi	a0,a3,8
   1844c:	00912a23          	sw	s1,20(sp)
   18450:	01212823          	sw	s2,16(sp)
   18454:	01412423          	sw	s4,8(sp)
   18458:	00112e23          	sw	ra,28(sp)
   1845c:	01512223          	sw	s5,4(sp)
   18460:	00060493          	addi	s1,a2,0
   18464:	00068a13          	addi	s4,a3,0
   18468:	00070913          	addi	s2,a4,0
   1846c:	2ed0a0ef          	jal	ra,22f58 <__divsi3>
   18470:	00100793          	addi	a5,zero,1
   18474:	00000593          	addi	a1,zero,0
   18478:	08a7c063          	blt	a5,a0,184f8 <__s2b+0xc8>
   1847c:	00098513          	addi	a0,s3,0
   18480:	db1ff0ef          	jal	ra,18230 <_Balloc>
   18484:	00100793          	addi	a5,zero,1
   18488:	00f52823          	sw	a5,16(a0)
   1848c:	01252a23          	sw	s2,20(a0)
   18490:	00900793          	addi	a5,zero,9
   18494:	0697d863          	bge	a5,s1,18504 <__s2b+0xd4>
   18498:	00940a93          	addi	s5,s0,9
   1849c:	000a8913          	addi	s2,s5,0
   184a0:	00940433          	add	s0,s0,s1
   184a4:	00190913          	addi	s2,s2,1
   184a8:	fff94683          	lbu	a3,-1(s2)
   184ac:	00050593          	addi	a1,a0,0
   184b0:	00a00613          	addi	a2,zero,10
   184b4:	fd068693          	addi	a3,a3,-48
   184b8:	00098513          	addi	a0,s3,0
   184bc:	e41ff0ef          	jal	ra,182fc <__multadd>
   184c0:	fe8912e3          	bne	s2,s0,184a4 <__s2b+0x74>
   184c4:	ff848413          	addi	s0,s1,-8
   184c8:	008a8433          	add	s0,s5,s0
   184cc:	00048913          	addi	s2,s1,0
   184d0:	05494063          	blt	s2,s4,18510 <__s2b+0xe0>
   184d4:	01c12083          	lw	ra,28(sp)
   184d8:	01812403          	lw	s0,24(sp)
   184dc:	01412483          	lw	s1,20(sp)
   184e0:	01012903          	lw	s2,16(sp)
   184e4:	00c12983          	lw	s3,12(sp)
   184e8:	00812a03          	lw	s4,8(sp)
   184ec:	00412a83          	lw	s5,4(sp)
   184f0:	02010113          	addi	sp,sp,32
   184f4:	00008067          	jalr	zero,0(ra)
   184f8:	00179793          	slli	a5,a5,0x1
   184fc:	00158593          	addi	a1,a1,1
   18500:	f79ff06f          	jal	zero,18478 <__s2b+0x48>
   18504:	00a40413          	addi	s0,s0,10
   18508:	00900493          	addi	s1,zero,9
   1850c:	fc1ff06f          	jal	zero,184cc <__s2b+0x9c>
   18510:	409907b3          	sub	a5,s2,s1
   18514:	00f407b3          	add	a5,s0,a5
   18518:	0007c683          	lbu	a3,0(a5)
   1851c:	00050593          	addi	a1,a0,0
   18520:	00a00613          	addi	a2,zero,10
   18524:	fd068693          	addi	a3,a3,-48
   18528:	00098513          	addi	a0,s3,0
   1852c:	dd1ff0ef          	jal	ra,182fc <__multadd>
   18530:	00190913          	addi	s2,s2,1
   18534:	f9dff06f          	jal	zero,184d0 <__s2b+0xa0>

00018538 <__hi0bits>:
   18538:	ffff0737          	lui	a4,0xffff0
   1853c:	00e57733          	and	a4,a0,a4
   18540:	00050793          	addi	a5,a0,0
   18544:	00000513          	addi	a0,zero,0
   18548:	00071663          	bne	a4,zero,18554 <__hi0bits+0x1c>
   1854c:	01079793          	slli	a5,a5,0x10
   18550:	01000513          	addi	a0,zero,16
   18554:	ff000737          	lui	a4,0xff000
   18558:	00e7f733          	and	a4,a5,a4
   1855c:	00071663          	bne	a4,zero,18568 <__hi0bits+0x30>
   18560:	00850513          	addi	a0,a0,8
   18564:	00879793          	slli	a5,a5,0x8
   18568:	f0000737          	lui	a4,0xf0000
   1856c:	00e7f733          	and	a4,a5,a4
   18570:	00071663          	bne	a4,zero,1857c <__hi0bits+0x44>
   18574:	00450513          	addi	a0,a0,4
   18578:	00479793          	slli	a5,a5,0x4
   1857c:	c0000737          	lui	a4,0xc0000
   18580:	00e7f733          	and	a4,a5,a4
   18584:	00071663          	bne	a4,zero,18590 <__hi0bits+0x58>
   18588:	00250513          	addi	a0,a0,2
   1858c:	00279793          	slli	a5,a5,0x2
   18590:	0007ca63          	blt	a5,zero,185a4 <__hi0bits+0x6c>
   18594:	00179713          	slli	a4,a5,0x1
   18598:	00150513          	addi	a0,a0,1
   1859c:	00074463          	blt	a4,zero,185a4 <__hi0bits+0x6c>
   185a0:	02000513          	addi	a0,zero,32
   185a4:	00008067          	jalr	zero,0(ra)

000185a8 <__lo0bits>:
   185a8:	00052783          	lw	a5,0(a0)
   185ac:	0077f713          	andi	a4,a5,7
   185b0:	02070e63          	beq	a4,zero,185ec <__lo0bits+0x44>
   185b4:	0017f693          	andi	a3,a5,1
   185b8:	00000713          	addi	a4,zero,0
   185bc:	00069c63          	bne	a3,zero,185d4 <__lo0bits+0x2c>
   185c0:	0027f713          	andi	a4,a5,2
   185c4:	00070c63          	beq	a4,zero,185dc <__lo0bits+0x34>
   185c8:	0017d793          	srli	a5,a5,0x1
   185cc:	00f52023          	sw	a5,0(a0)
   185d0:	00100713          	addi	a4,zero,1
   185d4:	00070513          	addi	a0,a4,0 # c0000000 <__BSS_END__+0xbffda408>
   185d8:	00008067          	jalr	zero,0(ra)
   185dc:	0027d793          	srli	a5,a5,0x2
   185e0:	00f52023          	sw	a5,0(a0)
   185e4:	00200713          	addi	a4,zero,2
   185e8:	fedff06f          	jal	zero,185d4 <__lo0bits+0x2c>
   185ec:	01079693          	slli	a3,a5,0x10
   185f0:	0106d693          	srli	a3,a3,0x10
   185f4:	00000713          	addi	a4,zero,0
   185f8:	00069663          	bne	a3,zero,18604 <__lo0bits+0x5c>
   185fc:	0107d793          	srli	a5,a5,0x10
   18600:	01000713          	addi	a4,zero,16
   18604:	0ff7f693          	andi	a3,a5,255
   18608:	00069663          	bne	a3,zero,18614 <__lo0bits+0x6c>
   1860c:	00870713          	addi	a4,a4,8
   18610:	0087d793          	srli	a5,a5,0x8
   18614:	00f7f693          	andi	a3,a5,15
   18618:	00069663          	bne	a3,zero,18624 <__lo0bits+0x7c>
   1861c:	00470713          	addi	a4,a4,4
   18620:	0047d793          	srli	a5,a5,0x4
   18624:	0037f693          	andi	a3,a5,3
   18628:	00069663          	bne	a3,zero,18634 <__lo0bits+0x8c>
   1862c:	00270713          	addi	a4,a4,2
   18630:	0027d793          	srli	a5,a5,0x2
   18634:	0017f693          	andi	a3,a5,1
   18638:	00069863          	bne	a3,zero,18648 <__lo0bits+0xa0>
   1863c:	0017d793          	srli	a5,a5,0x1
   18640:	00170713          	addi	a4,a4,1
   18644:	00078663          	beq	a5,zero,18650 <__lo0bits+0xa8>
   18648:	00f52023          	sw	a5,0(a0)
   1864c:	f89ff06f          	jal	zero,185d4 <__lo0bits+0x2c>
   18650:	02000713          	addi	a4,zero,32
   18654:	f81ff06f          	jal	zero,185d4 <__lo0bits+0x2c>

00018658 <__i2b>:
   18658:	ff010113          	addi	sp,sp,-16
   1865c:	00812423          	sw	s0,8(sp)
   18660:	00058413          	addi	s0,a1,0
   18664:	00100593          	addi	a1,zero,1
   18668:	00112623          	sw	ra,12(sp)
   1866c:	bc5ff0ef          	jal	ra,18230 <_Balloc>
   18670:	00852a23          	sw	s0,20(a0)
   18674:	00c12083          	lw	ra,12(sp)
   18678:	00812403          	lw	s0,8(sp)
   1867c:	00100713          	addi	a4,zero,1
   18680:	00e52823          	sw	a4,16(a0)
   18684:	01010113          	addi	sp,sp,16
   18688:	00008067          	jalr	zero,0(ra)

0001868c <__multiply>:
   1868c:	0105a703          	lw	a4,16(a1)
   18690:	01062783          	lw	a5,16(a2)
   18694:	fb010113          	addi	sp,sp,-80
   18698:	04912223          	sw	s1,68(sp)
   1869c:	03412c23          	sw	s4,56(sp)
   186a0:	04112623          	sw	ra,76(sp)
   186a4:	04812423          	sw	s0,72(sp)
   186a8:	05212023          	sw	s2,64(sp)
   186ac:	03312e23          	sw	s3,60(sp)
   186b0:	03512a23          	sw	s5,52(sp)
   186b4:	03612823          	sw	s6,48(sp)
   186b8:	03712623          	sw	s7,44(sp)
   186bc:	03812423          	sw	s8,40(sp)
   186c0:	03912223          	sw	s9,36(sp)
   186c4:	03a12023          	sw	s10,32(sp)
   186c8:	01b12e23          	sw	s11,28(sp)
   186cc:	00058a13          	addi	s4,a1,0
   186d0:	00060493          	addi	s1,a2,0
   186d4:	00f75663          	bge	a4,a5,186e0 <__multiply+0x54>
   186d8:	00060a13          	addi	s4,a2,0
   186dc:	00058493          	addi	s1,a1,0
   186e0:	010a2903          	lw	s2,16(s4)
   186e4:	0104a983          	lw	s3,16(s1)
   186e8:	008a2783          	lw	a5,8(s4)
   186ec:	004a2583          	lw	a1,4(s4)
   186f0:	01390c33          	add	s8,s2,s3
   186f4:	0187d463          	bge	a5,s8,186fc <__multiply+0x70>
   186f8:	00158593          	addi	a1,a1,1
   186fc:	b35ff0ef          	jal	ra,18230 <_Balloc>
   18700:	01450b93          	addi	s7,a0,20
   18704:	002c1c93          	slli	s9,s8,0x2
   18708:	00050d13          	addi	s10,a0,0
   1870c:	019b8cb3          	add	s9,s7,s9
   18710:	000b8793          	addi	a5,s7,0
   18714:	0997e463          	bltu	a5,s9,1879c <__multiply+0x110>
   18718:	014a0a13          	addi	s4,s4,20
   1871c:	00291913          	slli	s2,s2,0x2
   18720:	012a07b3          	add	a5,s4,s2
   18724:	01448493          	addi	s1,s1,20
   18728:	00299993          	slli	s3,s3,0x2
   1872c:	00f12023          	sw	a5,0(sp)
   18730:	00010ab7          	lui	s5,0x10
   18734:	013487b3          	add	a5,s1,s3
   18738:	00f12223          	sw	a5,4(sp)
   1873c:	fffa8a93          	addi	s5,s5,-1 # ffff <main-0x75>
   18740:	00412783          	lw	a5,4(sp)
   18744:	06f4e263          	bltu	s1,a5,187a8 <__multiply+0x11c>
   18748:	01805863          	bge	zero,s8,18758 <__multiply+0xcc>
   1874c:	ffcc8c93          	addi	s9,s9,-4
   18750:	000ca783          	lw	a5,0(s9)
   18754:	16078a63          	beq	a5,zero,188c8 <__multiply+0x23c>
   18758:	04c12083          	lw	ra,76(sp)
   1875c:	04812403          	lw	s0,72(sp)
   18760:	018d2823          	sw	s8,16(s10)
   18764:	000d0513          	addi	a0,s10,0
   18768:	04412483          	lw	s1,68(sp)
   1876c:	04012903          	lw	s2,64(sp)
   18770:	03c12983          	lw	s3,60(sp)
   18774:	03812a03          	lw	s4,56(sp)
   18778:	03412a83          	lw	s5,52(sp)
   1877c:	03012b03          	lw	s6,48(sp)
   18780:	02c12b83          	lw	s7,44(sp)
   18784:	02812c03          	lw	s8,40(sp)
   18788:	02412c83          	lw	s9,36(sp)
   1878c:	02012d03          	lw	s10,32(sp)
   18790:	01c12d83          	lw	s11,28(sp)
   18794:	05010113          	addi	sp,sp,80
   18798:	00008067          	jalr	zero,0(ra)
   1879c:	0007a023          	sw	zero,0(a5)
   187a0:	00478793          	addi	a5,a5,4
   187a4:	f71ff06f          	jal	zero,18714 <__multiply+0x88>
   187a8:	0004a783          	lw	a5,0(s1)
   187ac:	0157f7b3          	and	a5,a5,s5
   187b0:	08078463          	beq	a5,zero,18838 <__multiply+0x1ac>
   187b4:	000b8d93          	addi	s11,s7,0
   187b8:	000a0993          	addi	s3,s4,0
   187bc:	00000913          	addi	s2,zero,0
   187c0:	0009a603          	lw	a2,0(s3)
   187c4:	00078593          	addi	a1,a5,0
   187c8:	000da403          	lw	s0,0(s11)
   187cc:	01567533          	and	a0,a2,s5
   187d0:	00f12423          	sw	a5,8(sp)
   187d4:	00c12623          	sw	a2,12(sp)
   187d8:	75c0a0ef          	jal	ra,22f34 <__mulsi3>
   187dc:	00812783          	lw	a5,8(sp)
   187e0:	00c12603          	lw	a2,12(sp)
   187e4:	01547b33          	and	s6,s0,s5
   187e8:	01650b33          	add	s6,a0,s6
   187ec:	00078593          	addi	a1,a5,0
   187f0:	01065513          	srli	a0,a2,0x10
   187f4:	7400a0ef          	jal	ra,22f34 <__mulsi3>
   187f8:	012b0b33          	add	s6,s6,s2
   187fc:	01045413          	srli	s0,s0,0x10
   18800:	00850533          	add	a0,a0,s0
   18804:	010b5413          	srli	s0,s6,0x10
   18808:	00850533          	add	a0,a0,s0
   1880c:	01055913          	srli	s2,a0,0x10
   18810:	015b7b33          	and	s6,s6,s5
   18814:	01051513          	slli	a0,a0,0x10
   18818:	00012703          	lw	a4,0(sp)
   1881c:	004d8d93          	addi	s11,s11,4
   18820:	01656533          	or	a0,a0,s6
   18824:	00498993          	addi	s3,s3,4
   18828:	feadae23          	sw	a0,-4(s11)
   1882c:	00812783          	lw	a5,8(sp)
   18830:	f8e9e8e3          	bltu	s3,a4,187c0 <__multiply+0x134>
   18834:	012da023          	sw	s2,0(s11)
   18838:	0024d903          	lhu	s2,2(s1)
   1883c:	08090063          	beq	s2,zero,188bc <__multiply+0x230>
   18840:	000ba403          	lw	s0,0(s7)
   18844:	000b8d93          	addi	s11,s7,0
   18848:	000a0993          	addi	s3,s4,0
   1884c:	00000693          	addi	a3,zero,0
   18850:	0009a503          	lw	a0,0(s3)
   18854:	00090593          	addi	a1,s2,0
   18858:	00d12423          	sw	a3,8(sp)
   1885c:	01557533          	and	a0,a0,s5
   18860:	6d40a0ef          	jal	ra,22f34 <__mulsi3>
   18864:	002ddb03          	lhu	s6,2(s11)
   18868:	00812683          	lw	a3,8(sp)
   1886c:	01547433          	and	s0,s0,s5
   18870:	01650b33          	add	s6,a0,s6
   18874:	00db0b33          	add	s6,s6,a3
   18878:	010b1513          	slli	a0,s6,0x10
   1887c:	00856433          	or	s0,a0,s0
   18880:	004d8d93          	addi	s11,s11,4
   18884:	fe8dae23          	sw	s0,-4(s11)
   18888:	00498993          	addi	s3,s3,4
   1888c:	ffe9d503          	lhu	a0,-2(s3)
   18890:	00090593          	addi	a1,s2,0
   18894:	010b5b13          	srli	s6,s6,0x10
   18898:	69c0a0ef          	jal	ra,22f34 <__mulsi3>
   1889c:	000da403          	lw	s0,0(s11)
   188a0:	00012783          	lw	a5,0(sp)
   188a4:	01547433          	and	s0,s0,s5
   188a8:	00850433          	add	s0,a0,s0
   188ac:	01640433          	add	s0,s0,s6
   188b0:	01045693          	srli	a3,s0,0x10
   188b4:	f8f9eee3          	bltu	s3,a5,18850 <__multiply+0x1c4>
   188b8:	008da023          	sw	s0,0(s11)
   188bc:	00448493          	addi	s1,s1,4
   188c0:	004b8b93          	addi	s7,s7,4
   188c4:	e7dff06f          	jal	zero,18740 <__multiply+0xb4>
   188c8:	fffc0c13          	addi	s8,s8,-1
   188cc:	e7dff06f          	jal	zero,18748 <__multiply+0xbc>

000188d0 <__pow5mult>:
   188d0:	fe010113          	addi	sp,sp,-32
   188d4:	00912a23          	sw	s1,20(sp)
   188d8:	01212823          	sw	s2,16(sp)
   188dc:	01312623          	sw	s3,12(sp)
   188e0:	00112e23          	sw	ra,28(sp)
   188e4:	00812c23          	sw	s0,24(sp)
   188e8:	01412423          	sw	s4,8(sp)
   188ec:	00367793          	andi	a5,a2,3
   188f0:	00050913          	addi	s2,a0,0
   188f4:	00060493          	addi	s1,a2,0
   188f8:	00058993          	addi	s3,a1,0
   188fc:	02078463          	beq	a5,zero,18924 <__pow5mult+0x54>
   18900:	fff78793          	addi	a5,a5,-1
   18904:	00024737          	lui	a4,0x24
   18908:	89070713          	addi	a4,a4,-1904 # 23890 <p05.3308>
   1890c:	00279793          	slli	a5,a5,0x2
   18910:	00f707b3          	add	a5,a4,a5
   18914:	0007a603          	lw	a2,0(a5)
   18918:	00000693          	addi	a3,zero,0
   1891c:	9e1ff0ef          	jal	ra,182fc <__multadd>
   18920:	00050993          	addi	s3,a0,0
   18924:	4024d493          	srai	s1,s1,0x2
   18928:	08048063          	beq	s1,zero,189a8 <__pow5mult+0xd8>
   1892c:	04892403          	lw	s0,72(s2)
   18930:	00041e63          	bne	s0,zero,1894c <__pow5mult+0x7c>
   18934:	27100593          	addi	a1,zero,625
   18938:	00090513          	addi	a0,s2,0
   1893c:	d1dff0ef          	jal	ra,18658 <__i2b>
   18940:	04a92423          	sw	a0,72(s2)
   18944:	00050413          	addi	s0,a0,0
   18948:	00052023          	sw	zero,0(a0)
   1894c:	0014f793          	andi	a5,s1,1
   18950:	02078463          	beq	a5,zero,18978 <__pow5mult+0xa8>
   18954:	00098593          	addi	a1,s3,0
   18958:	00040613          	addi	a2,s0,0
   1895c:	00090513          	addi	a0,s2,0
   18960:	d2dff0ef          	jal	ra,1868c <__multiply>
   18964:	00050a13          	addi	s4,a0,0
   18968:	00098593          	addi	a1,s3,0
   1896c:	00090513          	addi	a0,s2,0
   18970:	969ff0ef          	jal	ra,182d8 <_Bfree>
   18974:	000a0993          	addi	s3,s4,0
   18978:	4014d493          	srai	s1,s1,0x1
   1897c:	02048663          	beq	s1,zero,189a8 <__pow5mult+0xd8>
   18980:	00042503          	lw	a0,0(s0)
   18984:	00051e63          	bne	a0,zero,189a0 <__pow5mult+0xd0>
   18988:	00040613          	addi	a2,s0,0
   1898c:	00040593          	addi	a1,s0,0
   18990:	00090513          	addi	a0,s2,0
   18994:	cf9ff0ef          	jal	ra,1868c <__multiply>
   18998:	00a42023          	sw	a0,0(s0)
   1899c:	00052023          	sw	zero,0(a0)
   189a0:	00050413          	addi	s0,a0,0
   189a4:	fa9ff06f          	jal	zero,1894c <__pow5mult+0x7c>
   189a8:	01c12083          	lw	ra,28(sp)
   189ac:	01812403          	lw	s0,24(sp)
   189b0:	00098513          	addi	a0,s3,0
   189b4:	01412483          	lw	s1,20(sp)
   189b8:	01012903          	lw	s2,16(sp)
   189bc:	00c12983          	lw	s3,12(sp)
   189c0:	00812a03          	lw	s4,8(sp)
   189c4:	02010113          	addi	sp,sp,32
   189c8:	00008067          	jalr	zero,0(ra)

000189cc <__lshift>:
   189cc:	fd010113          	addi	sp,sp,-48
   189d0:	02912223          	sw	s1,36(sp)
   189d4:	00058493          	addi	s1,a1,0
   189d8:	01312e23          	sw	s3,28(sp)
   189dc:	0104a983          	lw	s3,16(s1)
   189e0:	02812423          	sw	s0,40(sp)
   189e4:	0045a583          	lw	a1,4(a1)
   189e8:	40565413          	srai	s0,a2,0x5
   189ec:	0084a783          	lw	a5,8(s1)
   189f0:	013409b3          	add	s3,s0,s3
   189f4:	03212023          	sw	s2,32(sp)
   189f8:	01512a23          	sw	s5,20(sp)
   189fc:	02112623          	sw	ra,44(sp)
   18a00:	01412c23          	sw	s4,24(sp)
   18a04:	00050a93          	addi	s5,a0,0
   18a08:	00198913          	addi	s2,s3,1
   18a0c:	0d27c663          	blt	a5,s2,18ad8 <__lshift+0x10c>
   18a10:	000a8513          	addi	a0,s5,0
   18a14:	00c12623          	sw	a2,12(sp)
   18a18:	819ff0ef          	jal	ra,18230 <_Balloc>
   18a1c:	00c12603          	lw	a2,12(sp)
   18a20:	01450793          	addi	a5,a0,20
   18a24:	00050a13          	addi	s4,a0,0
   18a28:	00078693          	addi	a3,a5,0
   18a2c:	00000713          	addi	a4,zero,0
   18a30:	00468693          	addi	a3,a3,4
   18a34:	0a874863          	blt	a4,s0,18ae4 <__lshift+0x118>
   18a38:	00045463          	bge	s0,zero,18a40 <__lshift+0x74>
   18a3c:	00000413          	addi	s0,zero,0
   18a40:	0104a683          	lw	a3,16(s1)
   18a44:	00241413          	slli	s0,s0,0x2
   18a48:	00878733          	add	a4,a5,s0
   18a4c:	00269693          	slli	a3,a3,0x2
   18a50:	01448793          	addi	a5,s1,20
   18a54:	01f67613          	andi	a2,a2,31
   18a58:	00d786b3          	add	a3,a5,a3
   18a5c:	08060a63          	beq	a2,zero,18af0 <__lshift+0x124>
   18a60:	02000813          	addi	a6,zero,32
   18a64:	40c80833          	sub	a6,a6,a2
   18a68:	00000593          	addi	a1,zero,0
   18a6c:	0007a503          	lw	a0,0(a5)
   18a70:	00470713          	addi	a4,a4,4
   18a74:	00478793          	addi	a5,a5,4
   18a78:	00c51533          	sll	a0,a0,a2
   18a7c:	00b565b3          	or	a1,a0,a1
   18a80:	feb72e23          	sw	a1,-4(a4)
   18a84:	ffc7a583          	lw	a1,-4(a5)
   18a88:	0105d5b3          	srl	a1,a1,a6
   18a8c:	fed7e0e3          	bltu	a5,a3,18a6c <__lshift+0xa0>
   18a90:	00b72023          	sw	a1,0(a4)
   18a94:	00058463          	beq	a1,zero,18a9c <__lshift+0xd0>
   18a98:	00298913          	addi	s2,s3,2
   18a9c:	fff90913          	addi	s2,s2,-1
   18aa0:	012a2823          	sw	s2,16(s4)
   18aa4:	000a8513          	addi	a0,s5,0
   18aa8:	00048593          	addi	a1,s1,0
   18aac:	82dff0ef          	jal	ra,182d8 <_Bfree>
   18ab0:	02c12083          	lw	ra,44(sp)
   18ab4:	02812403          	lw	s0,40(sp)
   18ab8:	000a0513          	addi	a0,s4,0
   18abc:	02412483          	lw	s1,36(sp)
   18ac0:	02012903          	lw	s2,32(sp)
   18ac4:	01c12983          	lw	s3,28(sp)
   18ac8:	01812a03          	lw	s4,24(sp)
   18acc:	01412a83          	lw	s5,20(sp)
   18ad0:	03010113          	addi	sp,sp,48
   18ad4:	00008067          	jalr	zero,0(ra)
   18ad8:	00158593          	addi	a1,a1,1
   18adc:	00179793          	slli	a5,a5,0x1
   18ae0:	f2dff06f          	jal	zero,18a0c <__lshift+0x40>
   18ae4:	fe06ae23          	sw	zero,-4(a3)
   18ae8:	00170713          	addi	a4,a4,1
   18aec:	f45ff06f          	jal	zero,18a30 <__lshift+0x64>
   18af0:	00478793          	addi	a5,a5,4
   18af4:	ffc7a603          	lw	a2,-4(a5)
   18af8:	00470713          	addi	a4,a4,4
   18afc:	fec72e23          	sw	a2,-4(a4)
   18b00:	fed7e8e3          	bltu	a5,a3,18af0 <__lshift+0x124>
   18b04:	f99ff06f          	jal	zero,18a9c <__lshift+0xd0>

00018b08 <__mcmp>:
   18b08:	01052783          	lw	a5,16(a0)
   18b0c:	0105a703          	lw	a4,16(a1)
   18b10:	40e787b3          	sub	a5,a5,a4
   18b14:	02079c63          	bne	a5,zero,18b4c <__mcmp+0x44>
   18b18:	00271713          	slli	a4,a4,0x2
   18b1c:	01450513          	addi	a0,a0,20
   18b20:	01458593          	addi	a1,a1,20
   18b24:	00e506b3          	add	a3,a0,a4
   18b28:	00e585b3          	add	a1,a1,a4
   18b2c:	ffc68693          	addi	a3,a3,-4
   18b30:	ffc58593          	addi	a1,a1,-4
   18b34:	0006a603          	lw	a2,0(a3)
   18b38:	0005a703          	lw	a4,0(a1)
   18b3c:	00e60c63          	beq	a2,a4,18b54 <__mcmp+0x4c>
   18b40:	fff00793          	addi	a5,zero,-1
   18b44:	00e66463          	bltu	a2,a4,18b4c <__mcmp+0x44>
   18b48:	00100793          	addi	a5,zero,1
   18b4c:	00078513          	addi	a0,a5,0
   18b50:	00008067          	jalr	zero,0(ra)
   18b54:	fcd56ce3          	bltu	a0,a3,18b2c <__mcmp+0x24>
   18b58:	ff5ff06f          	jal	zero,18b4c <__mcmp+0x44>

00018b5c <__mdiff>:
   18b5c:	fe010113          	addi	sp,sp,-32
   18b60:	00912a23          	sw	s1,20(sp)
   18b64:	00058493          	addi	s1,a1,0
   18b68:	01312623          	sw	s3,12(sp)
   18b6c:	00060593          	addi	a1,a2,0
   18b70:	00050993          	addi	s3,a0,0
   18b74:	00048513          	addi	a0,s1,0
   18b78:	00812c23          	sw	s0,24(sp)
   18b7c:	00112e23          	sw	ra,28(sp)
   18b80:	01212823          	sw	s2,16(sp)
   18b84:	00060413          	addi	s0,a2,0
   18b88:	f81ff0ef          	jal	ra,18b08 <__mcmp>
   18b8c:	02051c63          	bne	a0,zero,18bc4 <__mdiff+0x68>
   18b90:	00000593          	addi	a1,zero,0
   18b94:	00098513          	addi	a0,s3,0
   18b98:	e98ff0ef          	jal	ra,18230 <_Balloc>
   18b9c:	00100793          	addi	a5,zero,1
   18ba0:	00f52823          	sw	a5,16(a0)
   18ba4:	00052a23          	sw	zero,20(a0)
   18ba8:	01c12083          	lw	ra,28(sp)
   18bac:	01812403          	lw	s0,24(sp)
   18bb0:	01412483          	lw	s1,20(sp)
   18bb4:	01012903          	lw	s2,16(sp)
   18bb8:	00c12983          	lw	s3,12(sp)
   18bbc:	02010113          	addi	sp,sp,32
   18bc0:	00008067          	jalr	zero,0(ra)
   18bc4:	00100913          	addi	s2,zero,1
   18bc8:	00054a63          	blt	a0,zero,18bdc <__mdiff+0x80>
   18bcc:	00040793          	addi	a5,s0,0
   18bd0:	00000913          	addi	s2,zero,0
   18bd4:	00048413          	addi	s0,s1,0
   18bd8:	00078493          	addi	s1,a5,0
   18bdc:	00442583          	lw	a1,4(s0)
   18be0:	00098513          	addi	a0,s3,0
   18be4:	e4cff0ef          	jal	ra,18230 <_Balloc>
   18be8:	01042303          	lw	t1,16(s0)
   18bec:	0104a883          	lw	a7,16(s1)
   18bf0:	01440613          	addi	a2,s0,20
   18bf4:	00231e13          	slli	t3,t1,0x2
   18bf8:	01448813          	addi	a6,s1,20
   18bfc:	00289893          	slli	a7,a7,0x2
   18c00:	00010eb7          	lui	t4,0x10
   18c04:	01252623          	sw	s2,12(a0)
   18c08:	01c60e33          	add	t3,a2,t3
   18c0c:	011808b3          	add	a7,a6,a7
   18c10:	01450693          	addi	a3,a0,20
   18c14:	00000f13          	addi	t5,zero,0
   18c18:	fffe8e93          	addi	t4,t4,-1 # ffff <main-0x75>
   18c1c:	00062703          	lw	a4,0(a2)
   18c20:	00082f83          	lw	t6,0(a6)
   18c24:	00468693          	addi	a3,a3,4
   18c28:	01d775b3          	and	a1,a4,t4
   18c2c:	01dff7b3          	and	a5,t6,t4
   18c30:	01e585b3          	add	a1,a1,t5
   18c34:	40f585b3          	sub	a1,a1,a5
   18c38:	010fdf93          	srli	t6,t6,0x10
   18c3c:	01075793          	srli	a5,a4,0x10
   18c40:	41f787b3          	sub	a5,a5,t6
   18c44:	4105d713          	srai	a4,a1,0x10
   18c48:	00e787b3          	add	a5,a5,a4
   18c4c:	4107df13          	srai	t5,a5,0x10
   18c50:	01d5f5b3          	and	a1,a1,t4
   18c54:	01079793          	slli	a5,a5,0x10
   18c58:	00b7e7b3          	or	a5,a5,a1
   18c5c:	00480813          	addi	a6,a6,4
   18c60:	fef6ae23          	sw	a5,-4(a3)
   18c64:	00460613          	addi	a2,a2,4
   18c68:	fb186ae3          	bltu	a6,a7,18c1c <__mdiff+0xc0>
   18c6c:	000105b7          	lui	a1,0x10
   18c70:	fff58593          	addi	a1,a1,-1 # ffff <main-0x75>
   18c74:	01c66c63          	bltu	a2,t3,18c8c <__mdiff+0x130>
   18c78:	ffc68693          	addi	a3,a3,-4
   18c7c:	0006a783          	lw	a5,0(a3)
   18c80:	04078263          	beq	a5,zero,18cc4 <__mdiff+0x168>
   18c84:	00652823          	sw	t1,16(a0)
   18c88:	f21ff06f          	jal	zero,18ba8 <__mdiff+0x4c>
   18c8c:	00062783          	lw	a5,0(a2)
   18c90:	00468693          	addi	a3,a3,4
   18c94:	00460613          	addi	a2,a2,4
   18c98:	00b7f733          	and	a4,a5,a1
   18c9c:	01e70733          	add	a4,a4,t5
   18ca0:	41075813          	srai	a6,a4,0x10
   18ca4:	0107d793          	srli	a5,a5,0x10
   18ca8:	010787b3          	add	a5,a5,a6
   18cac:	4107df13          	srai	t5,a5,0x10
   18cb0:	00b77733          	and	a4,a4,a1
   18cb4:	01079793          	slli	a5,a5,0x10
   18cb8:	00e7e7b3          	or	a5,a5,a4
   18cbc:	fef6ae23          	sw	a5,-4(a3)
   18cc0:	fb5ff06f          	jal	zero,18c74 <__mdiff+0x118>
   18cc4:	fff30313          	addi	t1,t1,-1
   18cc8:	fb1ff06f          	jal	zero,18c78 <__mdiff+0x11c>

00018ccc <__ulp>:
   18ccc:	7ff007b7          	lui	a5,0x7ff00
   18cd0:	00b7f5b3          	and	a1,a5,a1
   18cd4:	fcc007b7          	lui	a5,0xfcc00
   18cd8:	00f585b3          	add	a1,a1,a5
   18cdc:	00b05863          	bge	zero,a1,18cec <__ulp+0x20>
   18ce0:	00000793          	addi	a5,zero,0
   18ce4:	00078513          	addi	a0,a5,0 # fcc00000 <__BSS_END__+0xfcbda408>
   18ce8:	00008067          	jalr	zero,0(ra)
   18cec:	40b005b3          	sub	a1,zero,a1
   18cf0:	4145d793          	srai	a5,a1,0x14
   18cf4:	01300713          	addi	a4,zero,19
   18cf8:	00f74863          	blt	a4,a5,18d08 <__ulp+0x3c>
   18cfc:	000805b7          	lui	a1,0x80
   18d00:	40f5d5b3          	sra	a1,a1,a5
   18d04:	fddff06f          	jal	zero,18ce0 <__ulp+0x14>
   18d08:	fec78713          	addi	a4,a5,-20
   18d0c:	01e00693          	addi	a3,zero,30
   18d10:	00000593          	addi	a1,zero,0
   18d14:	00100793          	addi	a5,zero,1
   18d18:	fce6c6e3          	blt	a3,a4,18ce4 <__ulp+0x18>
   18d1c:	800007b7          	lui	a5,0x80000
   18d20:	00e7d7b3          	srl	a5,a5,a4
   18d24:	fc1ff06f          	jal	zero,18ce4 <__ulp+0x18>

00018d28 <__b2d>:
   18d28:	fd010113          	addi	sp,sp,-48
   18d2c:	02912223          	sw	s1,36(sp)
   18d30:	01052483          	lw	s1,16(a0)
   18d34:	01312e23          	sw	s3,28(sp)
   18d38:	01450993          	addi	s3,a0,20
   18d3c:	00249493          	slli	s1,s1,0x2
   18d40:	009984b3          	add	s1,s3,s1
   18d44:	02812423          	sw	s0,40(sp)
   18d48:	ffc4a403          	lw	s0,-4(s1)
   18d4c:	03212023          	sw	s2,32(sp)
   18d50:	00b12623          	sw	a1,12(sp)
   18d54:	00040513          	addi	a0,s0,0
   18d58:	02112623          	sw	ra,44(sp)
   18d5c:	fdcff0ef          	jal	ra,18538 <__hi0bits>
   18d60:	00c12583          	lw	a1,12(sp)
   18d64:	02000793          	addi	a5,zero,32
   18d68:	40a787b3          	sub	a5,a5,a0
   18d6c:	00f5a023          	sw	a5,0(a1) # 80000 <__BSS_END__+0x5a408>
   18d70:	00a00793          	addi	a5,zero,10
   18d74:	ffc48913          	addi	s2,s1,-4
   18d78:	04a7cc63          	blt	a5,a0,18dd0 <__b2d+0xa8>
   18d7c:	00b00793          	addi	a5,zero,11
   18d80:	40a787b3          	sub	a5,a5,a0
   18d84:	3ff00737          	lui	a4,0x3ff00
   18d88:	00f456b3          	srl	a3,s0,a5
   18d8c:	00e6e6b3          	or	a3,a3,a4
   18d90:	00000713          	addi	a4,zero,0
   18d94:	0129f463          	bgeu	s3,s2,18d9c <__b2d+0x74>
   18d98:	ff84a703          	lw	a4,-8(s1)
   18d9c:	01550513          	addi	a0,a0,21
   18da0:	00a41533          	sll	a0,s0,a0
   18da4:	00f757b3          	srl	a5,a4,a5
   18da8:	00f567b3          	or	a5,a0,a5
   18dac:	02c12083          	lw	ra,44(sp)
   18db0:	02812403          	lw	s0,40(sp)
   18db4:	02412483          	lw	s1,36(sp)
   18db8:	02012903          	lw	s2,32(sp)
   18dbc:	01c12983          	lw	s3,28(sp)
   18dc0:	00078513          	addi	a0,a5,0 # 80000000 <__BSS_END__+0x7ffda408>
   18dc4:	00068593          	addi	a1,a3,0
   18dc8:	03010113          	addi	sp,sp,48
   18dcc:	00008067          	jalr	zero,0(ra)
   18dd0:	00000793          	addi	a5,zero,0
   18dd4:	0129f663          	bgeu	s3,s2,18de0 <__b2d+0xb8>
   18dd8:	ff84a783          	lw	a5,-8(s1)
   18ddc:	ff848913          	addi	s2,s1,-8
   18de0:	ff550513          	addi	a0,a0,-11
   18de4:	02050e63          	beq	a0,zero,18e20 <__b2d+0xf8>
   18de8:	02000713          	addi	a4,zero,32
   18dec:	40a70633          	sub	a2,a4,a0
   18df0:	00c7d733          	srl	a4,a5,a2
   18df4:	00a41433          	sll	s0,s0,a0
   18df8:	00e46433          	or	s0,s0,a4
   18dfc:	3ff006b7          	lui	a3,0x3ff00
   18e00:	00d466b3          	or	a3,s0,a3
   18e04:	00000713          	addi	a4,zero,0
   18e08:	0129f463          	bgeu	s3,s2,18e10 <__b2d+0xe8>
   18e0c:	ffc92703          	lw	a4,-4(s2)
   18e10:	00a797b3          	sll	a5,a5,a0
   18e14:	00c75733          	srl	a4,a4,a2
   18e18:	00e7e7b3          	or	a5,a5,a4
   18e1c:	f91ff06f          	jal	zero,18dac <__b2d+0x84>
   18e20:	3ff006b7          	lui	a3,0x3ff00
   18e24:	00d466b3          	or	a3,s0,a3
   18e28:	f85ff06f          	jal	zero,18dac <__b2d+0x84>

00018e2c <__d2b>:
   18e2c:	fd010113          	addi	sp,sp,-48
   18e30:	02812423          	sw	s0,40(sp)
   18e34:	00058413          	addi	s0,a1,0
   18e38:	00100593          	addi	a1,zero,1
   18e3c:	02912223          	sw	s1,36(sp)
   18e40:	03212023          	sw	s2,32(sp)
   18e44:	00060493          	addi	s1,a2,0
   18e48:	01312e23          	sw	s3,28(sp)
   18e4c:	01412c23          	sw	s4,24(sp)
   18e50:	00070913          	addi	s2,a4,0 # 3ff00000 <__BSS_END__+0x3feda408>
   18e54:	02112623          	sw	ra,44(sp)
   18e58:	00068a13          	addi	s4,a3,0 # 3ff00000 <__BSS_END__+0x3feda408>
   18e5c:	bd4ff0ef          	jal	ra,18230 <_Balloc>
   18e60:	00100737          	lui	a4,0x100
   18e64:	fff70793          	addi	a5,a4,-1 # fffff <__BSS_END__+0xda407>
   18e68:	0097f7b3          	and	a5,a5,s1
   18e6c:	0144d493          	srli	s1,s1,0x14
   18e70:	7ff4f493          	andi	s1,s1,2047
   18e74:	00050993          	addi	s3,a0,0
   18e78:	08049a63          	bne	s1,zero,18f0c <__d2b+0xe0>
   18e7c:	00f12623          	sw	a5,12(sp)
   18e80:	08040e63          	beq	s0,zero,18f1c <__d2b+0xf0>
   18e84:	00810513          	addi	a0,sp,8
   18e88:	00812423          	sw	s0,8(sp)
   18e8c:	f1cff0ef          	jal	ra,185a8 <__lo0bits>
   18e90:	00812683          	lw	a3,8(sp)
   18e94:	08050063          	beq	a0,zero,18f14 <__d2b+0xe8>
   18e98:	00c12703          	lw	a4,12(sp)
   18e9c:	02000793          	addi	a5,zero,32
   18ea0:	40a787b3          	sub	a5,a5,a0
   18ea4:	00f717b3          	sll	a5,a4,a5
   18ea8:	00d7e7b3          	or	a5,a5,a3
   18eac:	00a75733          	srl	a4,a4,a0
   18eb0:	00f9aa23          	sw	a5,20(s3)
   18eb4:	00e12623          	sw	a4,12(sp)
   18eb8:	00c12403          	lw	s0,12(sp)
   18ebc:	0089ac23          	sw	s0,24(s3)
   18ec0:	00803433          	sltu	s0,zero,s0
   18ec4:	00140413          	addi	s0,s0,1
   18ec8:	0089a823          	sw	s0,16(s3)
   18ecc:	06048a63          	beq	s1,zero,18f40 <__d2b+0x114>
   18ed0:	bcd48493          	addi	s1,s1,-1075
   18ed4:	00a484b3          	add	s1,s1,a0
   18ed8:	03500793          	addi	a5,zero,53
   18edc:	009a2023          	sw	s1,0(s4)
   18ee0:	40a78533          	sub	a0,a5,a0
   18ee4:	00a92023          	sw	a0,0(s2)
   18ee8:	02c12083          	lw	ra,44(sp)
   18eec:	02812403          	lw	s0,40(sp)
   18ef0:	00098513          	addi	a0,s3,0
   18ef4:	02412483          	lw	s1,36(sp)
   18ef8:	02012903          	lw	s2,32(sp)
   18efc:	01c12983          	lw	s3,28(sp)
   18f00:	01812a03          	lw	s4,24(sp)
   18f04:	03010113          	addi	sp,sp,48
   18f08:	00008067          	jalr	zero,0(ra)
   18f0c:	00e7e7b3          	or	a5,a5,a4
   18f10:	f6dff06f          	jal	zero,18e7c <__d2b+0x50>
   18f14:	00d9aa23          	sw	a3,20(s3)
   18f18:	fa1ff06f          	jal	zero,18eb8 <__d2b+0x8c>
   18f1c:	00c10513          	addi	a0,sp,12
   18f20:	e88ff0ef          	jal	ra,185a8 <__lo0bits>
   18f24:	00c12783          	lw	a5,12(sp)
   18f28:	02050513          	addi	a0,a0,32
   18f2c:	00100413          	addi	s0,zero,1
   18f30:	00f9aa23          	sw	a5,20(s3)
   18f34:	00100793          	addi	a5,zero,1
   18f38:	00f9a823          	sw	a5,16(s3)
   18f3c:	f91ff06f          	jal	zero,18ecc <__d2b+0xa0>
   18f40:	00241793          	slli	a5,s0,0x2
   18f44:	bce50513          	addi	a0,a0,-1074
   18f48:	00f987b3          	add	a5,s3,a5
   18f4c:	00aa2023          	sw	a0,0(s4)
   18f50:	0107a503          	lw	a0,16(a5)
   18f54:	00541413          	slli	s0,s0,0x5
   18f58:	de0ff0ef          	jal	ra,18538 <__hi0bits>
   18f5c:	40a40433          	sub	s0,s0,a0
   18f60:	00892023          	sw	s0,0(s2)
   18f64:	f85ff06f          	jal	zero,18ee8 <__d2b+0xbc>

00018f68 <__ratio>:
   18f68:	fd010113          	addi	sp,sp,-48
   18f6c:	03212023          	sw	s2,32(sp)
   18f70:	00058913          	addi	s2,a1,0
   18f74:	00810593          	addi	a1,sp,8
   18f78:	02112623          	sw	ra,44(sp)
   18f7c:	02812423          	sw	s0,40(sp)
   18f80:	02912223          	sw	s1,36(sp)
   18f84:	01312e23          	sw	s3,28(sp)
   18f88:	01412c23          	sw	s4,24(sp)
   18f8c:	00050a13          	addi	s4,a0,0
   18f90:	d99ff0ef          	jal	ra,18d28 <__b2d>
   18f94:	00050993          	addi	s3,a0,0
   18f98:	00058493          	addi	s1,a1,0
   18f9c:	00058413          	addi	s0,a1,0
   18fa0:	00090513          	addi	a0,s2,0
   18fa4:	00c10593          	addi	a1,sp,12
   18fa8:	d81ff0ef          	jal	ra,18d28 <__b2d>
   18fac:	01092783          	lw	a5,16(s2)
   18fb0:	010a2703          	lw	a4,16(s4)
   18fb4:	00812683          	lw	a3,8(sp)
   18fb8:	40f70733          	sub	a4,a4,a5
   18fbc:	00c12783          	lw	a5,12(sp)
   18fc0:	00571713          	slli	a4,a4,0x5
   18fc4:	40f686b3          	sub	a3,a3,a5
   18fc8:	00d707b3          	add	a5,a4,a3
   18fcc:	04f05463          	bge	zero,a5,19014 <__ratio+0xac>
   18fd0:	01479793          	slli	a5,a5,0x14
   18fd4:	00058613          	addi	a2,a1,0
   18fd8:	00978433          	add	s0,a5,s1
   18fdc:	00060713          	addi	a4,a2,0
   18fe0:	00040593          	addi	a1,s0,0
   18fe4:	00050613          	addi	a2,a0,0
   18fe8:	00070693          	addi	a3,a4,0
   18fec:	00098513          	addi	a0,s3,0
   18ff0:	48d050ef          	jal	ra,1ec7c <__divdf3>
   18ff4:	02c12083          	lw	ra,44(sp)
   18ff8:	02812403          	lw	s0,40(sp)
   18ffc:	02412483          	lw	s1,36(sp)
   19000:	02012903          	lw	s2,32(sp)
   19004:	01c12983          	lw	s3,28(sp)
   19008:	01812a03          	lw	s4,24(sp)
   1900c:	03010113          	addi	sp,sp,48
   19010:	00008067          	jalr	zero,0(ra)
   19014:	01479793          	slli	a5,a5,0x14
   19018:	40f58633          	sub	a2,a1,a5
   1901c:	fc1ff06f          	jal	zero,18fdc <__ratio+0x74>

00019020 <_mprec_log10>:
   19020:	ff010113          	addi	sp,sp,-16
   19024:	00812423          	sw	s0,8(sp)
   19028:	00112623          	sw	ra,12(sp)
   1902c:	01212223          	sw	s2,4(sp)
   19030:	01312023          	sw	s3,0(sp)
   19034:	01700793          	addi	a5,zero,23
   19038:	00050413          	addi	s0,a0,0
   1903c:	02a7ca63          	blt	a5,a0,19070 <_mprec_log10+0x50>
   19040:	000247b7          	lui	a5,0x24
   19044:	00351413          	slli	s0,a0,0x3
   19048:	89078793          	addi	a5,a5,-1904 # 23890 <p05.3308>
   1904c:	00878433          	add	s0,a5,s0
   19050:	01042503          	lw	a0,16(s0)
   19054:	01442583          	lw	a1,20(s0)
   19058:	00c12083          	lw	ra,12(sp)
   1905c:	00812403          	lw	s0,8(sp)
   19060:	00412903          	lw	s2,4(sp)
   19064:	00012983          	lw	s3,0(sp)
   19068:	01010113          	addi	sp,sp,16
   1906c:	00008067          	jalr	zero,0(ra)
   19070:	000267b7          	lui	a5,0x26
   19074:	b707a503          	lw	a0,-1168(a5) # 25b70 <__SDATA_BEGIN__>
   19078:	b747a583          	lw	a1,-1164(a5)
   1907c:	000267b7          	lui	a5,0x26
   19080:	b787a903          	lw	s2,-1160(a5) # 25b78 <__SDATA_BEGIN__+0x8>
   19084:	b7c7a983          	lw	s3,-1156(a5)
   19088:	00090613          	addi	a2,s2,0
   1908c:	00098693          	addi	a3,s3,0
   19090:	fff40413          	addi	s0,s0,-1
   19094:	3b8060ef          	jal	ra,1f44c <__muldf3>
   19098:	fe0418e3          	bne	s0,zero,19088 <_mprec_log10+0x68>
   1909c:	fbdff06f          	jal	zero,19058 <_mprec_log10+0x38>

000190a0 <__copybits>:
   190a0:	fff58793          	addi	a5,a1,-1
   190a4:	01062703          	lw	a4,16(a2)
   190a8:	4057d793          	srai	a5,a5,0x5
   190ac:	00178793          	addi	a5,a5,1
   190b0:	00279793          	slli	a5,a5,0x2
   190b4:	01460693          	addi	a3,a2,20
   190b8:	00271713          	slli	a4,a4,0x2
   190bc:	00f507b3          	add	a5,a0,a5
   190c0:	00e68733          	add	a4,a3,a4
   190c4:	00e6e663          	bltu	a3,a4,190d0 <__copybits+0x30>
   190c8:	00f56e63          	bltu	a0,a5,190e4 <__copybits+0x44>
   190cc:	00008067          	jalr	zero,0(ra)
   190d0:	00468693          	addi	a3,a3,4
   190d4:	ffc6a603          	lw	a2,-4(a3)
   190d8:	00450513          	addi	a0,a0,4
   190dc:	fec52e23          	sw	a2,-4(a0)
   190e0:	fe5ff06f          	jal	zero,190c4 <__copybits+0x24>
   190e4:	00450513          	addi	a0,a0,4
   190e8:	fe052e23          	sw	zero,-4(a0)
   190ec:	fddff06f          	jal	zero,190c8 <__copybits+0x28>

000190f0 <__any_on>:
   190f0:	01052683          	lw	a3,16(a0)
   190f4:	4055d793          	srai	a5,a1,0x5
   190f8:	01450713          	addi	a4,a0,20
   190fc:	04f6c063          	blt	a3,a5,1913c <__any_on+0x4c>
   19100:	02d7d463          	bge	a5,a3,19128 <__any_on+0x38>
   19104:	01f5f593          	andi	a1,a1,31
   19108:	02058063          	beq	a1,zero,19128 <__any_on+0x38>
   1910c:	00279693          	slli	a3,a5,0x2
   19110:	00d706b3          	add	a3,a4,a3
   19114:	0006a603          	lw	a2,0(a3)
   19118:	00100513          	addi	a0,zero,1
   1911c:	00b656b3          	srl	a3,a2,a1
   19120:	00b695b3          	sll	a1,a3,a1
   19124:	02b61863          	bne	a2,a1,19154 <__any_on+0x64>
   19128:	00279793          	slli	a5,a5,0x2
   1912c:	00f707b3          	add	a5,a4,a5
   19130:	00f76a63          	bltu	a4,a5,19144 <__any_on+0x54>
   19134:	00000513          	addi	a0,zero,0
   19138:	00008067          	jalr	zero,0(ra)
   1913c:	00068793          	addi	a5,a3,0
   19140:	fe9ff06f          	jal	zero,19128 <__any_on+0x38>
   19144:	ffc78793          	addi	a5,a5,-4
   19148:	0007a683          	lw	a3,0(a5)
   1914c:	fe0682e3          	beq	a3,zero,19130 <__any_on+0x40>
   19150:	00100513          	addi	a0,zero,1
   19154:	00008067          	jalr	zero,0(ra)

00019158 <_realloc_r>:
   19158:	fc010113          	addi	sp,sp,-64
   1915c:	02812c23          	sw	s0,56(sp)
   19160:	02112e23          	sw	ra,60(sp)
   19164:	00058413          	addi	s0,a1,0
   19168:	02912a23          	sw	s1,52(sp)
   1916c:	03212823          	sw	s2,48(sp)
   19170:	03312623          	sw	s3,44(sp)
   19174:	03412423          	sw	s4,40(sp)
   19178:	03512223          	sw	s5,36(sp)
   1917c:	03612023          	sw	s6,32(sp)
   19180:	01712e23          	sw	s7,28(sp)
   19184:	01812c23          	sw	s8,24(sp)
   19188:	00060593          	addi	a1,a2,0
   1918c:	02041a63          	bne	s0,zero,191c0 <_realloc_r+0x68>
   19190:	03812403          	lw	s0,56(sp)
   19194:	03c12083          	lw	ra,60(sp)
   19198:	03412483          	lw	s1,52(sp)
   1919c:	03012903          	lw	s2,48(sp)
   191a0:	02c12983          	lw	s3,44(sp)
   191a4:	02812a03          	lw	s4,40(sp)
   191a8:	02412a83          	lw	s5,36(sp)
   191ac:	02012b03          	lw	s6,32(sp)
   191b0:	01c12b83          	lw	s7,28(sp)
   191b4:	01812c03          	lw	s8,24(sp)
   191b8:	04010113          	addi	sp,sp,64
   191bc:	921fe06f          	jal	zero,17adc <_malloc_r>
   191c0:	00050a93          	addi	s5,a0,0
   191c4:	00c12623          	sw	a2,12(sp)
   191c8:	860ff0ef          	jal	ra,18228 <__malloc_lock>
   191cc:	00c12583          	lw	a1,12(sp)
   191d0:	01600793          	addi	a5,zero,22
   191d4:	00b58993          	addi	s3,a1,11
   191d8:	0537f663          	bgeu	a5,s3,19224 <_realloc_r+0xcc>
   191dc:	ff89fb13          	andi	s6,s3,-8
   191e0:	040b5463          	bge	s6,zero,19228 <_realloc_r+0xd0>
   191e4:	00c00793          	addi	a5,zero,12
   191e8:	00faa023          	sw	a5,0(s5)
   191ec:	00000a13          	addi	s4,zero,0
   191f0:	03c12083          	lw	ra,60(sp)
   191f4:	03812403          	lw	s0,56(sp)
   191f8:	000a0513          	addi	a0,s4,0
   191fc:	03412483          	lw	s1,52(sp)
   19200:	03012903          	lw	s2,48(sp)
   19204:	02c12983          	lw	s3,44(sp)
   19208:	02812a03          	lw	s4,40(sp)
   1920c:	02412a83          	lw	s5,36(sp)
   19210:	02012b03          	lw	s6,32(sp)
   19214:	01c12b83          	lw	s7,28(sp)
   19218:	01812c03          	lw	s8,24(sp)
   1921c:	04010113          	addi	sp,sp,64
   19220:	00008067          	jalr	zero,0(ra)
   19224:	01000b13          	addi	s6,zero,16
   19228:	fabb6ee3          	bltu	s6,a1,191e4 <_realloc_r+0x8c>
   1922c:	ffc42683          	lw	a3,-4(s0)
   19230:	ff840b93          	addi	s7,s0,-8
   19234:	ffc6f913          	andi	s2,a3,-4
   19238:	45695a63          	bge	s2,s6,1968c <_realloc_r+0x534>
   1923c:	d9418713          	addi	a4,gp,-620 # 25764 <__malloc_av_>
   19240:	00872603          	lw	a2,8(a4)
   19244:	012b87b3          	add	a5,s7,s2
   19248:	0047a703          	lw	a4,4(a5)
   1924c:	d9418c13          	addi	s8,gp,-620 # 25764 <__malloc_av_>
   19250:	00f60c63          	beq	a2,a5,19268 <_realloc_r+0x110>
   19254:	ffe77513          	andi	a0,a4,-2
   19258:	00a78533          	add	a0,a5,a0
   1925c:	00452503          	lw	a0,4(a0)
   19260:	00157513          	andi	a0,a0,1
   19264:	06051463          	bne	a0,zero,192cc <_realloc_r+0x174>
   19268:	ffc77713          	andi	a4,a4,-4
   1926c:	00e909b3          	add	s3,s2,a4
   19270:	04f61063          	bne	a2,a5,192b0 <_realloc_r+0x158>
   19274:	010b0513          	addi	a0,s6,16
   19278:	04a9ce63          	blt	s3,a0,192d4 <_realloc_r+0x17c>
   1927c:	016b8bb3          	add	s7,s7,s6
   19280:	416989b3          	sub	s3,s3,s6
   19284:	017c2423          	sw	s7,8(s8)
   19288:	0019e993          	ori	s3,s3,1
   1928c:	013ba223          	sw	s3,4(s7)
   19290:	ffc42983          	lw	s3,-4(s0)
   19294:	000a8513          	addi	a0,s5,0
   19298:	00040a13          	addi	s4,s0,0
   1929c:	0019f993          	andi	s3,s3,1
   192a0:	0169e9b3          	or	s3,s3,s6
   192a4:	ff342e23          	sw	s3,-4(s0)
   192a8:	f85fe0ef          	jal	ra,1822c <__malloc_unlock>
   192ac:	f45ff06f          	jal	zero,191f0 <_realloc_r+0x98>
   192b0:	0369c263          	blt	s3,s6,192d4 <_realloc_r+0x17c>
   192b4:	00c7a703          	lw	a4,12(a5)
   192b8:	0087a783          	lw	a5,8(a5)
   192bc:	00e7a623          	sw	a4,12(a5)
   192c0:	00f72423          	sw	a5,8(a4)
   192c4:	000b8493          	addi	s1,s7,0
   192c8:	1900006f          	jal	zero,19458 <_realloc_r+0x300>
   192cc:	00000713          	addi	a4,zero,0
   192d0:	00000793          	addi	a5,zero,0
   192d4:	0016f693          	andi	a3,a3,1
   192d8:	2c069863          	bne	a3,zero,195a8 <_realloc_r+0x450>
   192dc:	ff842483          	lw	s1,-8(s0)
   192e0:	409b84b3          	sub	s1,s7,s1
   192e4:	0044aa03          	lw	s4,4(s1)
   192e8:	ffca7a13          	andi	s4,s4,-4
   192ec:	012a0a33          	add	s4,s4,s2
   192f0:	20078263          	beq	a5,zero,194f4 <_realloc_r+0x39c>
   192f4:	014709b3          	add	s3,a4,s4
   192f8:	0ef61663          	bne	a2,a5,193e4 <_realloc_r+0x28c>
   192fc:	010b0793          	addi	a5,s6,16
   19300:	1ef9ca63          	blt	s3,a5,194f4 <_realloc_r+0x39c>
   19304:	0084a703          	lw	a4,8(s1)
   19308:	00c4a783          	lw	a5,12(s1)
   1930c:	ffc90613          	addi	a2,s2,-4
   19310:	00848a13          	addi	s4,s1,8
   19314:	00f72623          	sw	a5,12(a4)
   19318:	00e7a423          	sw	a4,8(a5)
   1931c:	02400713          	addi	a4,zero,36
   19320:	0ac76a63          	bltu	a4,a2,193d4 <_realloc_r+0x27c>
   19324:	01300693          	addi	a3,zero,19
   19328:	000a0793          	addi	a5,s4,0
   1932c:	02c6f263          	bgeu	a3,a2,19350 <_realloc_r+0x1f8>
   19330:	00042783          	lw	a5,0(s0)
   19334:	00f4a423          	sw	a5,8(s1)
   19338:	00442783          	lw	a5,4(s0)
   1933c:	00f4a623          	sw	a5,12(s1)
   19340:	01b00793          	addi	a5,zero,27
   19344:	04c7ea63          	bltu	a5,a2,19398 <_realloc_r+0x240>
   19348:	00840413          	addi	s0,s0,8
   1934c:	01048793          	addi	a5,s1,16
   19350:	00042703          	lw	a4,0(s0)
   19354:	00e7a023          	sw	a4,0(a5)
   19358:	00442703          	lw	a4,4(s0)
   1935c:	00e7a223          	sw	a4,4(a5)
   19360:	00842703          	lw	a4,8(s0)
   19364:	00e7a423          	sw	a4,8(a5)
   19368:	016487b3          	add	a5,s1,s6
   1936c:	416989b3          	sub	s3,s3,s6
   19370:	00fc2423          	sw	a5,8(s8)
   19374:	0019e993          	ori	s3,s3,1
   19378:	0137a223          	sw	s3,4(a5)
   1937c:	0044a783          	lw	a5,4(s1)
   19380:	0017f793          	andi	a5,a5,1
   19384:	0167e9b3          	or	s3,a5,s6
   19388:	0134a223          	sw	s3,4(s1)
   1938c:	000a8513          	addi	a0,s5,0
   19390:	e9dfe0ef          	jal	ra,1822c <__malloc_unlock>
   19394:	e5dff06f          	jal	zero,191f0 <_realloc_r+0x98>
   19398:	00842783          	lw	a5,8(s0)
   1939c:	00f4a823          	sw	a5,16(s1)
   193a0:	00c42783          	lw	a5,12(s0)
   193a4:	00f4aa23          	sw	a5,20(s1)
   193a8:	00e60863          	beq	a2,a4,193b8 <_realloc_r+0x260>
   193ac:	01040413          	addi	s0,s0,16
   193b0:	01848793          	addi	a5,s1,24
   193b4:	f9dff06f          	jal	zero,19350 <_realloc_r+0x1f8>
   193b8:	01042783          	lw	a5,16(s0)
   193bc:	01840413          	addi	s0,s0,24
   193c0:	00f4ac23          	sw	a5,24(s1)
   193c4:	ffc42703          	lw	a4,-4(s0)
   193c8:	02048793          	addi	a5,s1,32
   193cc:	00e4ae23          	sw	a4,28(s1)
   193d0:	f81ff06f          	jal	zero,19350 <_realloc_r+0x1f8>
   193d4:	00040593          	addi	a1,s0,0
   193d8:	000a0513          	addi	a0,s4,0
   193dc:	df1fe0ef          	jal	ra,181cc <memmove>
   193e0:	f89ff06f          	jal	zero,19368 <_realloc_r+0x210>
   193e4:	1169c863          	blt	s3,s6,194f4 <_realloc_r+0x39c>
   193e8:	00c7a703          	lw	a4,12(a5)
   193ec:	0087a783          	lw	a5,8(a5)
   193f0:	ffc90613          	addi	a2,s2,-4
   193f4:	00848513          	addi	a0,s1,8
   193f8:	00e7a623          	sw	a4,12(a5)
   193fc:	00f72423          	sw	a5,8(a4)
   19400:	0084a703          	lw	a4,8(s1)
   19404:	00c4a783          	lw	a5,12(s1)
   19408:	00f72623          	sw	a5,12(a4)
   1940c:	00e7a423          	sw	a4,8(a5)
   19410:	02400793          	addi	a5,zero,36
   19414:	0cc7ea63          	bltu	a5,a2,194e8 <_realloc_r+0x390>
   19418:	01300713          	addi	a4,zero,19
   1941c:	02c77263          	bgeu	a4,a2,19440 <_realloc_r+0x2e8>
   19420:	00042703          	lw	a4,0(s0)
   19424:	00e4a423          	sw	a4,8(s1)
   19428:	00442703          	lw	a4,4(s0)
   1942c:	00e4a623          	sw	a4,12(s1)
   19430:	01b00713          	addi	a4,zero,27
   19434:	06c76c63          	bltu	a4,a2,194ac <_realloc_r+0x354>
   19438:	00840413          	addi	s0,s0,8
   1943c:	01048513          	addi	a0,s1,16
   19440:	00042783          	lw	a5,0(s0)
   19444:	00f52023          	sw	a5,0(a0)
   19448:	00442783          	lw	a5,4(s0)
   1944c:	00f52223          	sw	a5,4(a0)
   19450:	00842783          	lw	a5,8(s0)
   19454:	00f52423          	sw	a5,8(a0)
   19458:	0044a703          	lw	a4,4(s1)
   1945c:	416986b3          	sub	a3,s3,s6
   19460:	00f00613          	addi	a2,zero,15
   19464:	00177713          	andi	a4,a4,1
   19468:	013487b3          	add	a5,s1,s3
   1946c:	22d67463          	bgeu	a2,a3,19694 <_realloc_r+0x53c>
   19470:	00eb69b3          	or	s3,s6,a4
   19474:	0134a223          	sw	s3,4(s1)
   19478:	016485b3          	add	a1,s1,s6
   1947c:	0016e693          	ori	a3,a3,1
   19480:	00d5a223          	sw	a3,4(a1)
   19484:	0047a703          	lw	a4,4(a5)
   19488:	00858593          	addi	a1,a1,8
   1948c:	000a8513          	addi	a0,s5,0
   19490:	00176713          	ori	a4,a4,1
   19494:	00e7a223          	sw	a4,4(a5)
   19498:	c21fb0ef          	jal	ra,150b8 <_free_r>
   1949c:	000a8513          	addi	a0,s5,0
   194a0:	d8dfe0ef          	jal	ra,1822c <__malloc_unlock>
   194a4:	00848a13          	addi	s4,s1,8
   194a8:	d49ff06f          	jal	zero,191f0 <_realloc_r+0x98>
   194ac:	00842703          	lw	a4,8(s0)
   194b0:	00e4a823          	sw	a4,16(s1)
   194b4:	00c42703          	lw	a4,12(s0)
   194b8:	00e4aa23          	sw	a4,20(s1)
   194bc:	00f60863          	beq	a2,a5,194cc <_realloc_r+0x374>
   194c0:	01040413          	addi	s0,s0,16
   194c4:	01848513          	addi	a0,s1,24
   194c8:	f79ff06f          	jal	zero,19440 <_realloc_r+0x2e8>
   194cc:	01042783          	lw	a5,16(s0)
   194d0:	02048513          	addi	a0,s1,32
   194d4:	01840413          	addi	s0,s0,24
   194d8:	00f4ac23          	sw	a5,24(s1)
   194dc:	ffc42783          	lw	a5,-4(s0)
   194e0:	00f4ae23          	sw	a5,28(s1)
   194e4:	f5dff06f          	jal	zero,19440 <_realloc_r+0x2e8>
   194e8:	00040593          	addi	a1,s0,0
   194ec:	ce1fe0ef          	jal	ra,181cc <memmove>
   194f0:	f69ff06f          	jal	zero,19458 <_realloc_r+0x300>
   194f4:	0b6a4a63          	blt	s4,s6,195a8 <_realloc_r+0x450>
   194f8:	00c4a783          	lw	a5,12(s1)
   194fc:	0084a703          	lw	a4,8(s1)
   19500:	ffc90613          	addi	a2,s2,-4
   19504:	00848513          	addi	a0,s1,8
   19508:	00f72623          	sw	a5,12(a4)
   1950c:	00e7a423          	sw	a4,8(a5)
   19510:	02400793          	addi	a5,zero,36
   19514:	08c7e463          	bltu	a5,a2,1959c <_realloc_r+0x444>
   19518:	01300713          	addi	a4,zero,19
   1951c:	02c77263          	bgeu	a4,a2,19540 <_realloc_r+0x3e8>
   19520:	00042703          	lw	a4,0(s0)
   19524:	00e4a423          	sw	a4,8(s1)
   19528:	00442703          	lw	a4,4(s0)
   1952c:	00e4a623          	sw	a4,12(s1)
   19530:	01b00713          	addi	a4,zero,27
   19534:	02c76663          	bltu	a4,a2,19560 <_realloc_r+0x408>
   19538:	00840413          	addi	s0,s0,8
   1953c:	01048513          	addi	a0,s1,16
   19540:	00042783          	lw	a5,0(s0)
   19544:	00f52023          	sw	a5,0(a0)
   19548:	00442783          	lw	a5,4(s0)
   1954c:	00f52223          	sw	a5,4(a0)
   19550:	00842783          	lw	a5,8(s0)
   19554:	00f52423          	sw	a5,8(a0)
   19558:	000a0993          	addi	s3,s4,0
   1955c:	efdff06f          	jal	zero,19458 <_realloc_r+0x300>
   19560:	00842703          	lw	a4,8(s0)
   19564:	00e4a823          	sw	a4,16(s1)
   19568:	00c42703          	lw	a4,12(s0)
   1956c:	00e4aa23          	sw	a4,20(s1)
   19570:	00f60863          	beq	a2,a5,19580 <_realloc_r+0x428>
   19574:	01040413          	addi	s0,s0,16
   19578:	01848513          	addi	a0,s1,24
   1957c:	fc5ff06f          	jal	zero,19540 <_realloc_r+0x3e8>
   19580:	01042783          	lw	a5,16(s0)
   19584:	02048513          	addi	a0,s1,32
   19588:	01840413          	addi	s0,s0,24
   1958c:	00f4ac23          	sw	a5,24(s1)
   19590:	ffc42783          	lw	a5,-4(s0)
   19594:	00f4ae23          	sw	a5,28(s1)
   19598:	fa9ff06f          	jal	zero,19540 <_realloc_r+0x3e8>
   1959c:	00040593          	addi	a1,s0,0
   195a0:	c2dfe0ef          	jal	ra,181cc <memmove>
   195a4:	fb5ff06f          	jal	zero,19558 <_realloc_r+0x400>
   195a8:	000a8513          	addi	a0,s5,0
   195ac:	d30fe0ef          	jal	ra,17adc <_malloc_r>
   195b0:	00050a13          	addi	s4,a0,0
   195b4:	dc050ce3          	beq	a0,zero,1938c <_realloc_r+0x234>
   195b8:	ffc42783          	lw	a5,-4(s0)
   195bc:	ff850713          	addi	a4,a0,-8
   195c0:	ffe7f793          	andi	a5,a5,-2
   195c4:	00fb87b3          	add	a5,s7,a5
   195c8:	00e79a63          	bne	a5,a4,195dc <_realloc_r+0x484>
   195cc:	ffc52983          	lw	s3,-4(a0)
   195d0:	ffc9f993          	andi	s3,s3,-4
   195d4:	012989b3          	add	s3,s3,s2
   195d8:	cedff06f          	jal	zero,192c4 <_realloc_r+0x16c>
   195dc:	ffc90613          	addi	a2,s2,-4
   195e0:	02400793          	addi	a5,zero,36
   195e4:	08c7ee63          	bltu	a5,a2,19680 <_realloc_r+0x528>
   195e8:	01300713          	addi	a4,zero,19
   195ec:	08c77463          	bgeu	a4,a2,19674 <_realloc_r+0x51c>
   195f0:	00042703          	lw	a4,0(s0)
   195f4:	00e52023          	sw	a4,0(a0)
   195f8:	00442703          	lw	a4,4(s0)
   195fc:	00e52223          	sw	a4,4(a0)
   19600:	01b00713          	addi	a4,zero,27
   19604:	02c76a63          	bltu	a4,a2,19638 <_realloc_r+0x4e0>
   19608:	00840713          	addi	a4,s0,8
   1960c:	00850793          	addi	a5,a0,8
   19610:	00072683          	lw	a3,0(a4)
   19614:	00d7a023          	sw	a3,0(a5)
   19618:	00472683          	lw	a3,4(a4)
   1961c:	00d7a223          	sw	a3,4(a5)
   19620:	00872703          	lw	a4,8(a4)
   19624:	00e7a423          	sw	a4,8(a5)
   19628:	00040593          	addi	a1,s0,0
   1962c:	000a8513          	addi	a0,s5,0
   19630:	a89fb0ef          	jal	ra,150b8 <_free_r>
   19634:	d59ff06f          	jal	zero,1938c <_realloc_r+0x234>
   19638:	00842703          	lw	a4,8(s0)
   1963c:	00e52423          	sw	a4,8(a0)
   19640:	00c42703          	lw	a4,12(s0)
   19644:	00e52623          	sw	a4,12(a0)
   19648:	00f60863          	beq	a2,a5,19658 <_realloc_r+0x500>
   1964c:	01040713          	addi	a4,s0,16
   19650:	01050793          	addi	a5,a0,16
   19654:	fbdff06f          	jal	zero,19610 <_realloc_r+0x4b8>
   19658:	01042783          	lw	a5,16(s0)
   1965c:	01840713          	addi	a4,s0,24
   19660:	00f52823          	sw	a5,16(a0)
   19664:	01442683          	lw	a3,20(s0)
   19668:	01850793          	addi	a5,a0,24
   1966c:	00d52a23          	sw	a3,20(a0)
   19670:	fa1ff06f          	jal	zero,19610 <_realloc_r+0x4b8>
   19674:	00050793          	addi	a5,a0,0
   19678:	00040713          	addi	a4,s0,0
   1967c:	f95ff06f          	jal	zero,19610 <_realloc_r+0x4b8>
   19680:	00040593          	addi	a1,s0,0
   19684:	b49fe0ef          	jal	ra,181cc <memmove>
   19688:	fa1ff06f          	jal	zero,19628 <_realloc_r+0x4d0>
   1968c:	00090993          	addi	s3,s2,0
   19690:	c35ff06f          	jal	zero,192c4 <_realloc_r+0x16c>
   19694:	00e9e9b3          	or	s3,s3,a4
   19698:	0134a223          	sw	s3,4(s1)
   1969c:	0047a703          	lw	a4,4(a5)
   196a0:	00176713          	ori	a4,a4,1
   196a4:	00e7a223          	sw	a4,4(a5)
   196a8:	df5ff06f          	jal	zero,1949c <_realloc_r+0x344>

000196ac <_sbrk_r>:
   196ac:	ff010113          	addi	sp,sp,-16
   196b0:	00812423          	sw	s0,8(sp)
   196b4:	00912223          	sw	s1,4(sp)
   196b8:	00050493          	addi	s1,a0,0
   196bc:	00058513          	addi	a0,a1,0
   196c0:	00112623          	sw	ra,12(sp)
   196c4:	2201a223          	sw	zero,548(gp) # 25bf4 <errno>
   196c8:	151040ef          	jal	ra,1e018 <_sbrk>
   196cc:	fff00793          	addi	a5,zero,-1
   196d0:	00f51863          	bne	a0,a5,196e0 <_sbrk_r+0x34>
   196d4:	2241a783          	lw	a5,548(gp) # 25bf4 <errno>
   196d8:	00078463          	beq	a5,zero,196e0 <_sbrk_r+0x34>
   196dc:	00f4a023          	sw	a5,0(s1)
   196e0:	00c12083          	lw	ra,12(sp)
   196e4:	00812403          	lw	s0,8(sp)
   196e8:	00412483          	lw	s1,4(sp)
   196ec:	01010113          	addi	sp,sp,16
   196f0:	00008067          	jalr	zero,0(ra)

000196f4 <frexp>:
   196f4:	ff010113          	addi	sp,sp,-16
   196f8:	00912223          	sw	s1,4(sp)
   196fc:	800004b7          	lui	s1,0x80000
   19700:	00812423          	sw	s0,8(sp)
   19704:	00112623          	sw	ra,12(sp)
   19708:	fff4c493          	xori	s1,s1,-1
   1970c:	00b4f733          	and	a4,s1,a1
   19710:	00062023          	sw	zero,0(a2)
   19714:	7ff00837          	lui	a6,0x7ff00
   19718:	00050693          	addi	a3,a0,0
   1971c:	00058793          	addi	a5,a1,0
   19720:	00060413          	addi	s0,a2,0
   19724:	07075263          	bge	a4,a6,19788 <frexp+0x94>
   19728:	00a768b3          	or	a7,a4,a0
   1972c:	04088e63          	beq	a7,zero,19788 <frexp+0x94>
   19730:	0105f833          	and	a6,a1,a6
   19734:	00058613          	addi	a2,a1,0
   19738:	02081463          	bne	a6,zero,19760 <frexp+0x6c>
   1973c:	000267b7          	lui	a5,0x26
   19740:	b807a603          	lw	a2,-1152(a5) # 25b80 <__SDATA_BEGIN__+0x10>
   19744:	b847a683          	lw	a3,-1148(a5)
   19748:	505050ef          	jal	ra,1f44c <__muldf3>
   1974c:	fca00793          	addi	a5,zero,-54
   19750:	00050693          	addi	a3,a0,0
   19754:	00058613          	addi	a2,a1,0
   19758:	00b4f733          	and	a4,s1,a1
   1975c:	00f42023          	sw	a5,0(s0)
   19760:	00042783          	lw	a5,0(s0)
   19764:	41475713          	srai	a4,a4,0x14
   19768:	c0270713          	addi	a4,a4,-1022
   1976c:	00e78733          	add	a4,a5,a4
   19770:	801007b7          	lui	a5,0x80100
   19774:	fff78793          	addi	a5,a5,-1 # 800fffff <__BSS_END__+0x800da407>
   19778:	00f67633          	and	a2,a2,a5
   1977c:	3fe007b7          	lui	a5,0x3fe00
   19780:	00e42023          	sw	a4,0(s0)
   19784:	00f667b3          	or	a5,a2,a5
   19788:	00c12083          	lw	ra,12(sp)
   1978c:	00812403          	lw	s0,8(sp)
   19790:	00412483          	lw	s1,4(sp)
   19794:	00068513          	addi	a0,a3,0
   19798:	00078593          	addi	a1,a5,0 # 3fe00000 <__BSS_END__+0x3fdda408>
   1979c:	01010113          	addi	sp,sp,16
   197a0:	00008067          	jalr	zero,0(ra)

000197a4 <_sprintf_r>:
   197a4:	f6010113          	addi	sp,sp,-160
   197a8:	08f12a23          	sw	a5,148(sp)
   197ac:	800007b7          	lui	a5,0x80000
   197b0:	fff7c793          	xori	a5,a5,-1
   197b4:	00f12e23          	sw	a5,28(sp)
   197b8:	00f12823          	sw	a5,16(sp)
   197bc:	ffff07b7          	lui	a5,0xffff0
   197c0:	08d12623          	sw	a3,140(sp)
   197c4:	00b12423          	sw	a1,8(sp)
   197c8:	00b12c23          	sw	a1,24(sp)
   197cc:	20878793          	addi	a5,a5,520 # ffff0208 <__BSS_END__+0xfffca610>
   197d0:	08c10693          	addi	a3,sp,140
   197d4:	00810593          	addi	a1,sp,8
   197d8:	06112e23          	sw	ra,124(sp)
   197dc:	00f12a23          	sw	a5,20(sp)
   197e0:	08e12823          	sw	a4,144(sp)
   197e4:	09012c23          	sw	a6,152(sp)
   197e8:	09112e23          	sw	a7,156(sp)
   197ec:	00d12223          	sw	a3,4(sp)
   197f0:	394000ef          	jal	ra,19b84 <_svfprintf_r>
   197f4:	00812783          	lw	a5,8(sp)
   197f8:	00078023          	sb	zero,0(a5)
   197fc:	07c12083          	lw	ra,124(sp)
   19800:	0a010113          	addi	sp,sp,160
   19804:	00008067          	jalr	zero,0(ra)

00019808 <sprintf>:
   19808:	f6010113          	addi	sp,sp,-160
   1980c:	08f12a23          	sw	a5,148(sp)
   19810:	800007b7          	lui	a5,0x80000
   19814:	fff7c793          	xori	a5,a5,-1
   19818:	00f12e23          	sw	a5,28(sp)
   1981c:	00f12823          	sw	a5,16(sp)
   19820:	ffff07b7          	lui	a5,0xffff0
   19824:	20878793          	addi	a5,a5,520 # ffff0208 <__BSS_END__+0xfffca610>
   19828:	00f12a23          	sw	a5,20(sp)
   1982c:	00a12423          	sw	a0,8(sp)
   19830:	00a12c23          	sw	a0,24(sp)
   19834:	1c01a503          	lw	a0,448(gp) # 25b90 <_impure_ptr>
   19838:	08c12423          	sw	a2,136(sp)
   1983c:	08d12623          	sw	a3,140(sp)
   19840:	00058613          	addi	a2,a1,0
   19844:	08810693          	addi	a3,sp,136
   19848:	00810593          	addi	a1,sp,8
   1984c:	06112e23          	sw	ra,124(sp)
   19850:	08e12823          	sw	a4,144(sp)
   19854:	09012c23          	sw	a6,152(sp)
   19858:	09112e23          	sw	a7,156(sp)
   1985c:	00d12223          	sw	a3,4(sp)
   19860:	324000ef          	jal	ra,19b84 <_svfprintf_r>
   19864:	00812783          	lw	a5,8(sp)
   19868:	00078023          	sb	zero,0(a5)
   1986c:	07c12083          	lw	ra,124(sp)
   19870:	0a010113          	addi	sp,sp,160
   19874:	00008067          	jalr	zero,0(ra)

00019878 <__sread>:
   19878:	ff010113          	addi	sp,sp,-16
   1987c:	00812423          	sw	s0,8(sp)
   19880:	00058413          	addi	s0,a1,0
   19884:	00e59583          	lh	a1,14(a1)
   19888:	00112623          	sw	ra,12(sp)
   1988c:	598030ef          	jal	ra,1ce24 <_read_r>
   19890:	02054063          	blt	a0,zero,198b0 <__sread+0x38>
   19894:	05042783          	lw	a5,80(s0)
   19898:	00a787b3          	add	a5,a5,a0
   1989c:	04f42823          	sw	a5,80(s0)
   198a0:	00c12083          	lw	ra,12(sp)
   198a4:	00812403          	lw	s0,8(sp)
   198a8:	01010113          	addi	sp,sp,16
   198ac:	00008067          	jalr	zero,0(ra)
   198b0:	00c45783          	lhu	a5,12(s0)
   198b4:	fffff737          	lui	a4,0xfffff
   198b8:	fff70713          	addi	a4,a4,-1 # ffffefff <__BSS_END__+0xfffd9407>
   198bc:	00e7f7b3          	and	a5,a5,a4
   198c0:	00f41623          	sh	a5,12(s0)
   198c4:	fddff06f          	jal	zero,198a0 <__sread+0x28>

000198c8 <__seofread>:
   198c8:	00000513          	addi	a0,zero,0
   198cc:	00008067          	jalr	zero,0(ra)

000198d0 <__swrite>:
   198d0:	00c5d783          	lhu	a5,12(a1)
   198d4:	fe010113          	addi	sp,sp,-32
   198d8:	00812c23          	sw	s0,24(sp)
   198dc:	00912a23          	sw	s1,20(sp)
   198e0:	01212823          	sw	s2,16(sp)
   198e4:	01312623          	sw	s3,12(sp)
   198e8:	00112e23          	sw	ra,28(sp)
   198ec:	1007f793          	andi	a5,a5,256
   198f0:	00050493          	addi	s1,a0,0
   198f4:	00058413          	addi	s0,a1,0
   198f8:	00060913          	addi	s2,a2,0
   198fc:	00068993          	addi	s3,a3,0
   19900:	00078a63          	beq	a5,zero,19914 <__swrite+0x44>
   19904:	00e59583          	lh	a1,14(a1)
   19908:	00200693          	addi	a3,zero,2
   1990c:	00000613          	addi	a2,zero,0
   19910:	4c4030ef          	jal	ra,1cdd4 <_lseek_r>
   19914:	00c45783          	lhu	a5,12(s0)
   19918:	fffff737          	lui	a4,0xfffff
   1991c:	fff70713          	addi	a4,a4,-1 # ffffefff <__BSS_END__+0xfffd9407>
   19920:	00e7f7b3          	and	a5,a5,a4
   19924:	00f41623          	sh	a5,12(s0)
   19928:	00e41583          	lh	a1,14(s0)
   1992c:	01812403          	lw	s0,24(sp)
   19930:	01c12083          	lw	ra,28(sp)
   19934:	00098693          	addi	a3,s3,0
   19938:	00090613          	addi	a2,s2,0
   1993c:	00c12983          	lw	s3,12(sp)
   19940:	01012903          	lw	s2,16(sp)
   19944:	00048513          	addi	a0,s1,0 # 80000000 <__BSS_END__+0x7ffda408>
   19948:	01412483          	lw	s1,20(sp)
   1994c:	02010113          	addi	sp,sp,32
   19950:	02c0306f          	jal	zero,1c97c <_write_r>

00019954 <__sseek>:
   19954:	ff010113          	addi	sp,sp,-16
   19958:	00812423          	sw	s0,8(sp)
   1995c:	00058413          	addi	s0,a1,0
   19960:	00e59583          	lh	a1,14(a1)
   19964:	00112623          	sw	ra,12(sp)
   19968:	46c030ef          	jal	ra,1cdd4 <_lseek_r>
   1996c:	fff00793          	addi	a5,zero,-1
   19970:	00c45703          	lhu	a4,12(s0)
   19974:	02f51263          	bne	a0,a5,19998 <__sseek+0x44>
   19978:	fffff7b7          	lui	a5,0xfffff
   1997c:	fff78793          	addi	a5,a5,-1 # ffffefff <__BSS_END__+0xfffd9407>
   19980:	00e7f7b3          	and	a5,a5,a4
   19984:	00f41623          	sh	a5,12(s0)
   19988:	00c12083          	lw	ra,12(sp)
   1998c:	00812403          	lw	s0,8(sp)
   19990:	01010113          	addi	sp,sp,16
   19994:	00008067          	jalr	zero,0(ra)
   19998:	000017b7          	lui	a5,0x1
   1999c:	00f767b3          	or	a5,a4,a5
   199a0:	00f41623          	sh	a5,12(s0)
   199a4:	04a42823          	sw	a0,80(s0)
   199a8:	fe1ff06f          	jal	zero,19988 <__sseek+0x34>

000199ac <__sclose>:
   199ac:	00e59583          	lh	a1,14(a1)
   199b0:	0cc0306f          	jal	zero,1ca7c <_close_r>

000199b4 <strcmp>:
   199b4:	00b56733          	or	a4,a0,a1
   199b8:	fff00393          	addi	t2,zero,-1
   199bc:	00377713          	andi	a4,a4,3
   199c0:	10071063          	bne	a4,zero,19ac0 <strcmp+0x10c>
   199c4:	7f7f87b7          	lui	a5,0x7f7f8
   199c8:	f7f78793          	addi	a5,a5,-129 # 7f7f7f7f <__BSS_END__+0x7f7d2387>
   199cc:	00052603          	lw	a2,0(a0)
   199d0:	0005a683          	lw	a3,0(a1)
   199d4:	00f672b3          	and	t0,a2,a5
   199d8:	00f66333          	or	t1,a2,a5
   199dc:	00f282b3          	add	t0,t0,a5
   199e0:	0062e2b3          	or	t0,t0,t1
   199e4:	10729263          	bne	t0,t2,19ae8 <strcmp+0x134>
   199e8:	08d61663          	bne	a2,a3,19a74 <strcmp+0xc0>
   199ec:	00452603          	lw	a2,4(a0)
   199f0:	0045a683          	lw	a3,4(a1)
   199f4:	00f672b3          	and	t0,a2,a5
   199f8:	00f66333          	or	t1,a2,a5
   199fc:	00f282b3          	add	t0,t0,a5
   19a00:	0062e2b3          	or	t0,t0,t1
   19a04:	0c729e63          	bne	t0,t2,19ae0 <strcmp+0x12c>
   19a08:	06d61663          	bne	a2,a3,19a74 <strcmp+0xc0>
   19a0c:	00852603          	lw	a2,8(a0)
   19a10:	0085a683          	lw	a3,8(a1)
   19a14:	00f672b3          	and	t0,a2,a5
   19a18:	00f66333          	or	t1,a2,a5
   19a1c:	00f282b3          	add	t0,t0,a5
   19a20:	0062e2b3          	or	t0,t0,t1
   19a24:	0c729863          	bne	t0,t2,19af4 <strcmp+0x140>
   19a28:	04d61663          	bne	a2,a3,19a74 <strcmp+0xc0>
   19a2c:	00c52603          	lw	a2,12(a0)
   19a30:	00c5a683          	lw	a3,12(a1)
   19a34:	00f672b3          	and	t0,a2,a5
   19a38:	00f66333          	or	t1,a2,a5
   19a3c:	00f282b3          	add	t0,t0,a5
   19a40:	0062e2b3          	or	t0,t0,t1
   19a44:	0c729263          	bne	t0,t2,19b08 <strcmp+0x154>
   19a48:	02d61663          	bne	a2,a3,19a74 <strcmp+0xc0>
   19a4c:	01052603          	lw	a2,16(a0)
   19a50:	0105a683          	lw	a3,16(a1)
   19a54:	00f672b3          	and	t0,a2,a5
   19a58:	00f66333          	or	t1,a2,a5
   19a5c:	00f282b3          	add	t0,t0,a5
   19a60:	0062e2b3          	or	t0,t0,t1
   19a64:	0a729c63          	bne	t0,t2,19b1c <strcmp+0x168>
   19a68:	01450513          	addi	a0,a0,20
   19a6c:	01458593          	addi	a1,a1,20
   19a70:	f4d60ee3          	beq	a2,a3,199cc <strcmp+0x18>
   19a74:	01061713          	slli	a4,a2,0x10
   19a78:	01069793          	slli	a5,a3,0x10
   19a7c:	00f71e63          	bne	a4,a5,19a98 <strcmp+0xe4>
   19a80:	01065713          	srli	a4,a2,0x10
   19a84:	0106d793          	srli	a5,a3,0x10
   19a88:	40f70533          	sub	a0,a4,a5
   19a8c:	0ff57593          	andi	a1,a0,255
   19a90:	02059063          	bne	a1,zero,19ab0 <strcmp+0xfc>
   19a94:	00008067          	jalr	zero,0(ra)
   19a98:	01075713          	srli	a4,a4,0x10
   19a9c:	0107d793          	srli	a5,a5,0x10
   19aa0:	40f70533          	sub	a0,a4,a5
   19aa4:	0ff57593          	andi	a1,a0,255
   19aa8:	00059463          	bne	a1,zero,19ab0 <strcmp+0xfc>
   19aac:	00008067          	jalr	zero,0(ra)
   19ab0:	0ff77713          	andi	a4,a4,255
   19ab4:	0ff7f793          	andi	a5,a5,255
   19ab8:	40f70533          	sub	a0,a4,a5
   19abc:	00008067          	jalr	zero,0(ra)
   19ac0:	00054603          	lbu	a2,0(a0)
   19ac4:	0005c683          	lbu	a3,0(a1)
   19ac8:	00150513          	addi	a0,a0,1
   19acc:	00158593          	addi	a1,a1,1
   19ad0:	00d61463          	bne	a2,a3,19ad8 <strcmp+0x124>
   19ad4:	fe0616e3          	bne	a2,zero,19ac0 <strcmp+0x10c>
   19ad8:	40d60533          	sub	a0,a2,a3
   19adc:	00008067          	jalr	zero,0(ra)
   19ae0:	00450513          	addi	a0,a0,4
   19ae4:	00458593          	addi	a1,a1,4
   19ae8:	fcd61ce3          	bne	a2,a3,19ac0 <strcmp+0x10c>
   19aec:	00000513          	addi	a0,zero,0
   19af0:	00008067          	jalr	zero,0(ra)
   19af4:	00850513          	addi	a0,a0,8
   19af8:	00858593          	addi	a1,a1,8
   19afc:	fcd612e3          	bne	a2,a3,19ac0 <strcmp+0x10c>
   19b00:	00000513          	addi	a0,zero,0
   19b04:	00008067          	jalr	zero,0(ra)
   19b08:	00c50513          	addi	a0,a0,12
   19b0c:	00c58593          	addi	a1,a1,12
   19b10:	fad618e3          	bne	a2,a3,19ac0 <strcmp+0x10c>
   19b14:	00000513          	addi	a0,zero,0
   19b18:	00008067          	jalr	zero,0(ra)
   19b1c:	01050513          	addi	a0,a0,16
   19b20:	01058593          	addi	a1,a1,16
   19b24:	f8d61ee3          	bne	a2,a3,19ac0 <strcmp+0x10c>
   19b28:	00000513          	addi	a0,zero,0
   19b2c:	00008067          	jalr	zero,0(ra)

00019b30 <strcpy>:
   19b30:	00050793          	addi	a5,a0,0
   19b34:	0005c703          	lbu	a4,0(a1)
   19b38:	00178793          	addi	a5,a5,1
   19b3c:	00158593          	addi	a1,a1,1
   19b40:	fee78fa3          	sb	a4,-1(a5)
   19b44:	fe0718e3          	bne	a4,zero,19b34 <strcpy+0x4>
   19b48:	00008067          	jalr	zero,0(ra)

00019b4c <strncpy>:
   19b4c:	00050793          	addi	a5,a0,0
   19b50:	00060e63          	beq	a2,zero,19b6c <strncpy+0x20>
   19b54:	00158593          	addi	a1,a1,1
   19b58:	fff5c703          	lbu	a4,-1(a1)
   19b5c:	00178793          	addi	a5,a5,1
   19b60:	fff60613          	addi	a2,a2,-1
   19b64:	fee78fa3          	sb	a4,-1(a5)
   19b68:	fe0714e3          	bne	a4,zero,19b50 <strncpy+0x4>
   19b6c:	00c78633          	add	a2,a5,a2
   19b70:	00c79463          	bne	a5,a2,19b78 <strncpy+0x2c>
   19b74:	00008067          	jalr	zero,0(ra)
   19b78:	00178793          	addi	a5,a5,1
   19b7c:	fe078fa3          	sb	zero,-1(a5)
   19b80:	ff1ff06f          	jal	zero,19b70 <strncpy+0x24>

00019b84 <_svfprintf_r>:
   19b84:	e2010113          	addi	sp,sp,-480
   19b88:	1c112e23          	sw	ra,476(sp)
   19b8c:	1c912a23          	sw	s1,468(sp)
   19b90:	1d212823          	sw	s2,464(sp)
   19b94:	1d312623          	sw	s3,460(sp)
   19b98:	1d512223          	sw	s5,452(sp)
   19b9c:	00058993          	addi	s3,a1,0
   19ba0:	00060493          	addi	s1,a2,0
   19ba4:	00068a93          	addi	s5,a3,0
   19ba8:	1c812c23          	sw	s0,472(sp)
   19bac:	1d412423          	sw	s4,456(sp)
   19bb0:	1d612023          	sw	s6,448(sp)
   19bb4:	1b712e23          	sw	s7,444(sp)
   19bb8:	1b812c23          	sw	s8,440(sp)
   19bbc:	1b912a23          	sw	s9,436(sp)
   19bc0:	1ba12823          	sw	s10,432(sp)
   19bc4:	1bb12623          	sw	s11,428(sp)
   19bc8:	00050913          	addi	s2,a0,0
   19bcc:	c99fd0ef          	jal	ra,17864 <_localeconv_r>
   19bd0:	00052783          	lw	a5,0(a0)
   19bd4:	00078513          	addi	a0,a5,0
   19bd8:	02f12a23          	sw	a5,52(sp)
   19bdc:	b81f80ef          	jal	ra,1275c <strlen>
   19be0:	00c9d783          	lhu	a5,12(s3)
   19be4:	02a12023          	sw	a0,32(sp)
   19be8:	0e012023          	sw	zero,224(sp)
   19bec:	0e012223          	sw	zero,228(sp)
   19bf0:	0e012423          	sw	zero,232(sp)
   19bf4:	0e012623          	sw	zero,236(sp)
   19bf8:	0807f793          	andi	a5,a5,128
   19bfc:	04078063          	beq	a5,zero,19c3c <_svfprintf_r+0xb8>
   19c00:	0109a783          	lw	a5,16(s3)
   19c04:	02079c63          	bne	a5,zero,19c3c <_svfprintf_r+0xb8>
   19c08:	04000593          	addi	a1,zero,64
   19c0c:	00090513          	addi	a0,s2,0
   19c10:	ecdfd0ef          	jal	ra,17adc <_malloc_r>
   19c14:	00a9a023          	sw	a0,0(s3)
   19c18:	00a9a823          	sw	a0,16(s3)
   19c1c:	00051c63          	bne	a0,zero,19c34 <_svfprintf_r+0xb0>
   19c20:	00c00793          	addi	a5,zero,12
   19c24:	00f92023          	sw	a5,0(s2)
   19c28:	fff00793          	addi	a5,zero,-1
   19c2c:	02f12223          	sw	a5,36(sp)
   19c30:	7ec0006f          	jal	zero,1a41c <_svfprintf_r+0x898>
   19c34:	04000793          	addi	a5,zero,64
   19c38:	00f9aa23          	sw	a5,20(s3)
   19c3c:	000247b7          	lui	a5,0x24
   19c40:	9b878793          	addi	a5,a5,-1608 # 239b8 <__mprec_bigtens+0x28>
   19c44:	00024bb7          	lui	s7,0x24
   19c48:	0fc10893          	addi	a7,sp,252
   19c4c:	04f12623          	sw	a5,76(sp)
   19c50:	b34b8793          	addi	a5,s7,-1228 # 23b34 <zeroes.4499>
   19c54:	0d112a23          	sw	a7,212(sp)
   19c58:	0c012e23          	sw	zero,220(sp)
   19c5c:	0c012c23          	sw	zero,216(sp)
   19c60:	00000a13          	addi	s4,zero,0
   19c64:	00088c13          	addi	s8,a7,0
   19c68:	04012023          	sw	zero,64(sp)
   19c6c:	02012e23          	sw	zero,60(sp)
   19c70:	00012823          	sw	zero,16(sp)
   19c74:	02012823          	sw	zero,48(sp)
   19c78:	02012c23          	sw	zero,56(sp)
   19c7c:	02012223          	sw	zero,36(sp)
   19c80:	00f12a23          	sw	a5,20(sp)
   19c84:	00048413          	addi	s0,s1,0
   19c88:	02500713          	addi	a4,zero,37
   19c8c:	00044783          	lbu	a5,0(s0)
   19c90:	00078463          	beq	a5,zero,19c98 <_svfprintf_r+0x114>
   19c94:	0ae79a63          	bne	a5,a4,19d48 <_svfprintf_r+0x1c4>
   19c98:	40940b33          	sub	s6,s0,s1
   19c9c:	040b0a63          	beq	s6,zero,19cf0 <_svfprintf_r+0x16c>
   19ca0:	0dc12783          	lw	a5,220(sp)
   19ca4:	009c2023          	sw	s1,0(s8)
   19ca8:	016c2223          	sw	s6,4(s8)
   19cac:	016787b3          	add	a5,a5,s6
   19cb0:	0cf12e23          	sw	a5,220(sp)
   19cb4:	0d812783          	lw	a5,216(sp)
   19cb8:	00700713          	addi	a4,zero,7
   19cbc:	008c0c13          	addi	s8,s8,8
   19cc0:	00178793          	addi	a5,a5,1
   19cc4:	0cf12c23          	sw	a5,216(sp)
   19cc8:	00f75e63          	bge	a4,a5,19ce4 <_svfprintf_r+0x160>
   19ccc:	0d410613          	addi	a2,sp,212
   19cd0:	00098593          	addi	a1,s3,0
   19cd4:	00090513          	addi	a0,s2,0
   19cd8:	2ec030ef          	jal	ra,1cfc4 <__ssprint_r>
   19cdc:	72051a63          	bne	a0,zero,1a410 <_svfprintf_r+0x88c>
   19ce0:	0fc10c13          	addi	s8,sp,252
   19ce4:	02412783          	lw	a5,36(sp)
   19ce8:	016787b3          	add	a5,a5,s6
   19cec:	02f12223          	sw	a5,36(sp)
   19cf0:	00044783          	lbu	a5,0(s0)
   19cf4:	00079463          	bne	a5,zero,19cfc <_svfprintf_r+0x178>
   19cf8:	5a10106f          	jal	zero,1ba98 <_svfprintf_r+0x1f14>
   19cfc:	00140793          	addi	a5,s0,1
   19d00:	0a010ba3          	sb	zero,183(sp)
   19d04:	fff00b93          	addi	s7,zero,-1
   19d08:	02012423          	sw	zero,40(sp)
   19d0c:	00000413          	addi	s0,zero,0
   19d10:	05a00c93          	addi	s9,zero,90
   19d14:	00900d93          	addi	s11,zero,9
   19d18:	02a00d13          	addi	s10,zero,42
   19d1c:	0007cb03          	lbu	s6,0(a5)
   19d20:	00178713          	addi	a4,a5,1
   19d24:	00e12e23          	sw	a4,28(sp)
   19d28:	fe0b0793          	addi	a5,s6,-32
   19d2c:	00fcf463          	bgeu	s9,a5,19d34 <_svfprintf_r+0x1b0>
   19d30:	2800106f          	jal	zero,1afb0 <_svfprintf_r+0x142c>
   19d34:	04c12703          	lw	a4,76(sp)
   19d38:	00279793          	slli	a5,a5,0x2
   19d3c:	00e787b3          	add	a5,a5,a4
   19d40:	0007a783          	lw	a5,0(a5)
   19d44:	00078067          	jalr	zero,0(a5)
   19d48:	00140413          	addi	s0,s0,1
   19d4c:	f41ff06f          	jal	zero,19c8c <_svfprintf_r+0x108>
   19d50:	00090513          	addi	a0,s2,0
   19d54:	b11fd0ef          	jal	ra,17864 <_localeconv_r>
   19d58:	00452783          	lw	a5,4(a0)
   19d5c:	00078513          	addi	a0,a5,0
   19d60:	02f12c23          	sw	a5,56(sp)
   19d64:	9f9f80ef          	jal	ra,1275c <strlen>
   19d68:	02a12823          	sw	a0,48(sp)
   19d6c:	00090513          	addi	a0,s2,0
   19d70:	af5fd0ef          	jal	ra,17864 <_localeconv_r>
   19d74:	00852783          	lw	a5,8(a0)
   19d78:	00f12823          	sw	a5,16(sp)
   19d7c:	03012783          	lw	a5,48(sp)
   19d80:	00078c63          	beq	a5,zero,19d98 <_svfprintf_r+0x214>
   19d84:	01012783          	lw	a5,16(sp)
   19d88:	00078863          	beq	a5,zero,19d98 <_svfprintf_r+0x214>
   19d8c:	0007c783          	lbu	a5,0(a5)
   19d90:	00078463          	beq	a5,zero,19d98 <_svfprintf_r+0x214>
   19d94:	40046413          	ori	s0,s0,1024
   19d98:	01c12783          	lw	a5,28(sp)
   19d9c:	f81ff06f          	jal	zero,19d1c <_svfprintf_r+0x198>
   19da0:	0b714783          	lbu	a5,183(sp)
   19da4:	fe079ae3          	bne	a5,zero,19d98 <_svfprintf_r+0x214>
   19da8:	02000793          	addi	a5,zero,32
   19dac:	0af10ba3          	sb	a5,183(sp)
   19db0:	fe9ff06f          	jal	zero,19d98 <_svfprintf_r+0x214>
   19db4:	00146413          	ori	s0,s0,1
   19db8:	fe1ff06f          	jal	zero,19d98 <_svfprintf_r+0x214>
   19dbc:	000aa783          	lw	a5,0(s5)
   19dc0:	004a8a93          	addi	s5,s5,4
   19dc4:	02f12423          	sw	a5,40(sp)
   19dc8:	fc07d8e3          	bge	a5,zero,19d98 <_svfprintf_r+0x214>
   19dcc:	40f007b3          	sub	a5,zero,a5
   19dd0:	02f12423          	sw	a5,40(sp)
   19dd4:	00446413          	ori	s0,s0,4
   19dd8:	fc1ff06f          	jal	zero,19d98 <_svfprintf_r+0x214>
   19ddc:	02b00793          	addi	a5,zero,43
   19de0:	fcdff06f          	jal	zero,19dac <_svfprintf_r+0x228>
   19de4:	01c12703          	lw	a4,28(sp)
   19de8:	01c12783          	lw	a5,28(sp)
   19dec:	00074b03          	lbu	s6,0(a4)
   19df0:	00178793          	addi	a5,a5,1
   19df4:	05ab1463          	bne	s6,s10,19e3c <_svfprintf_r+0x2b8>
   19df8:	000aab83          	lw	s7,0(s5)
   19dfc:	004a8713          	addi	a4,s5,4
   19e00:	000bd463          	bge	s7,zero,19e08 <_svfprintf_r+0x284>
   19e04:	fff00b93          	addi	s7,zero,-1
   19e08:	00070a93          	addi	s5,a4,0
   19e0c:	00f12e23          	sw	a5,28(sp)
   19e10:	f89ff06f          	jal	zero,19d98 <_svfprintf_r+0x214>
   19e14:	002b9713          	slli	a4,s7,0x2
   19e18:	00178793          	addi	a5,a5,1
   19e1c:	01770333          	add	t1,a4,s7
   19e20:	fff7cb03          	lbu	s6,-1(a5)
   19e24:	00131313          	slli	t1,t1,0x1
   19e28:	00d30bb3          	add	s7,t1,a3
   19e2c:	fd0b0693          	addi	a3,s6,-48
   19e30:	feddf2e3          	bgeu	s11,a3,19e14 <_svfprintf_r+0x290>
   19e34:	00f12e23          	sw	a5,28(sp)
   19e38:	ef1ff06f          	jal	zero,19d28 <_svfprintf_r+0x1a4>
   19e3c:	00000b93          	addi	s7,zero,0
   19e40:	fedff06f          	jal	zero,19e2c <_svfprintf_r+0x2a8>
   19e44:	08046413          	ori	s0,s0,128
   19e48:	f51ff06f          	jal	zero,19d98 <_svfprintf_r+0x214>
   19e4c:	01c12783          	lw	a5,28(sp)
   19e50:	02012423          	sw	zero,40(sp)
   19e54:	02812703          	lw	a4,40(sp)
   19e58:	02812683          	lw	a3,40(sp)
   19e5c:	fd0b0b13          	addi	s6,s6,-48
   19e60:	00271713          	slli	a4,a4,0x2
   19e64:	00d70733          	add	a4,a4,a3
   19e68:	00171713          	slli	a4,a4,0x1
   19e6c:	00178793          	addi	a5,a5,1
   19e70:	00eb0733          	add	a4,s6,a4
   19e74:	fff7cb03          	lbu	s6,-1(a5)
   19e78:	02e12423          	sw	a4,40(sp)
   19e7c:	fd0b0713          	addi	a4,s6,-48
   19e80:	fcedfae3          	bgeu	s11,a4,19e54 <_svfprintf_r+0x2d0>
   19e84:	fb1ff06f          	jal	zero,19e34 <_svfprintf_r+0x2b0>
   19e88:	00846413          	ori	s0,s0,8
   19e8c:	f0dff06f          	jal	zero,19d98 <_svfprintf_r+0x214>
   19e90:	01c12783          	lw	a5,28(sp)
   19e94:	0007c703          	lbu	a4,0(a5)
   19e98:	06800793          	addi	a5,zero,104
   19e9c:	00f71c63          	bne	a4,a5,19eb4 <_svfprintf_r+0x330>
   19ea0:	01c12783          	lw	a5,28(sp)
   19ea4:	20046413          	ori	s0,s0,512
   19ea8:	00178793          	addi	a5,a5,1
   19eac:	00f12e23          	sw	a5,28(sp)
   19eb0:	ee9ff06f          	jal	zero,19d98 <_svfprintf_r+0x214>
   19eb4:	04046413          	ori	s0,s0,64
   19eb8:	ee1ff06f          	jal	zero,19d98 <_svfprintf_r+0x214>
   19ebc:	01c12783          	lw	a5,28(sp)
   19ec0:	0007c703          	lbu	a4,0(a5)
   19ec4:	06c00793          	addi	a5,zero,108
   19ec8:	00f71c63          	bne	a4,a5,19ee0 <_svfprintf_r+0x35c>
   19ecc:	01c12783          	lw	a5,28(sp)
   19ed0:	00178793          	addi	a5,a5,1
   19ed4:	00f12e23          	sw	a5,28(sp)
   19ed8:	02046413          	ori	s0,s0,32
   19edc:	ebdff06f          	jal	zero,19d98 <_svfprintf_r+0x214>
   19ee0:	01046413          	ori	s0,s0,16
   19ee4:	eb5ff06f          	jal	zero,19d98 <_svfprintf_r+0x214>
   19ee8:	004a8793          	addi	a5,s5,4
   19eec:	00f12c23          	sw	a5,24(sp)
   19ef0:	000aa783          	lw	a5,0(s5)
   19ef4:	0a010ba3          	sb	zero,183(sp)
   19ef8:	12f10e23          	sb	a5,316(sp)
   19efc:	00012623          	sw	zero,12(sp)
   19f00:	00100b93          	addi	s7,zero,1
   19f04:	00000713          	addi	a4,zero,0
   19f08:	00000d13          	addi	s10,zero,0
   19f0c:	00000c93          	addi	s9,zero,0
   19f10:	00000d93          	addi	s11,zero,0
   19f14:	13c10493          	addi	s1,sp,316
   19f18:	02e12623          	sw	a4,44(sp)
   19f1c:	01775463          	bge	a4,s7,19f24 <_svfprintf_r+0x3a0>
   19f20:	03712623          	sw	s7,44(sp)
   19f24:	0b714683          	lbu	a3,183(sp)
   19f28:	00068863          	beq	a3,zero,19f38 <_svfprintf_r+0x3b4>
   19f2c:	02c12783          	lw	a5,44(sp)
   19f30:	00178793          	addi	a5,a5,1
   19f34:	02f12623          	sw	a5,44(sp)
   19f38:	00247a93          	andi	s5,s0,2
   19f3c:	000a8863          	beq	s5,zero,19f4c <_svfprintf_r+0x3c8>
   19f40:	02c12783          	lw	a5,44(sp)
   19f44:	00278793          	addi	a5,a5,2
   19f48:	02f12623          	sw	a5,44(sp)
   19f4c:	08447793          	andi	a5,s0,132
   19f50:	04f12223          	sw	a5,68(sp)
   19f54:	08079063          	bne	a5,zero,19fd4 <_svfprintf_r+0x450>
   19f58:	02812783          	lw	a5,40(sp)
   19f5c:	02c12683          	lw	a3,44(sp)
   19f60:	40d786b3          	sub	a3,a5,a3
   19f64:	06d05863          	bge	zero,a3,19fd4 <_svfprintf_r+0x450>
   19f68:	000247b7          	lui	a5,0x24
   19f6c:	01000e13          	addi	t3,zero,16
   19f70:	b2478813          	addi	a6,a5,-1244 # 23b24 <blanks.4498>
   19f74:	00700e93          	addi	t4,zero,7
   19f78:	0d812603          	lw	a2,216(sp)
   19f7c:	010c2023          	sw	a6,0(s8)
   19f80:	0dc12583          	lw	a1,220(sp)
   19f84:	00160613          	addi	a2,a2,1
   19f88:	008c0513          	addi	a0,s8,8
   19f8c:	00de5463          	bge	t3,a3,19f94 <_svfprintf_r+0x410>
   19f90:	0340106f          	jal	zero,1afc4 <_svfprintf_r+0x1440>
   19f94:	00dc2223          	sw	a3,4(s8)
   19f98:	00b686b3          	add	a3,a3,a1
   19f9c:	0cd12e23          	sw	a3,220(sp)
   19fa0:	0cc12c23          	sw	a2,216(sp)
   19fa4:	00700693          	addi	a3,zero,7
   19fa8:	00050c13          	addi	s8,a0,0
   19fac:	02c6d463          	bge	a3,a2,19fd4 <_svfprintf_r+0x450>
   19fb0:	0d410613          	addi	a2,sp,212
   19fb4:	00098593          	addi	a1,s3,0
   19fb8:	00090513          	addi	a0,s2,0
   19fbc:	04e12423          	sw	a4,72(sp)
   19fc0:	004030ef          	jal	ra,1cfc4 <__ssprint_r>
   19fc4:	00050463          	beq	a0,zero,19fcc <_svfprintf_r+0x448>
   19fc8:	26d0106f          	jal	zero,1ba34 <_svfprintf_r+0x1eb0>
   19fcc:	04812703          	lw	a4,72(sp)
   19fd0:	0fc10c13          	addi	s8,sp,252
   19fd4:	0b714683          	lbu	a3,183(sp)
   19fd8:	04068e63          	beq	a3,zero,1a034 <_svfprintf_r+0x4b0>
   19fdc:	0b710693          	addi	a3,sp,183
   19fe0:	00dc2023          	sw	a3,0(s8)
   19fe4:	00100693          	addi	a3,zero,1
   19fe8:	00dc2223          	sw	a3,4(s8)
   19fec:	0dc12683          	lw	a3,220(sp)
   19ff0:	00700613          	addi	a2,zero,7
   19ff4:	008c0c13          	addi	s8,s8,8
   19ff8:	00168693          	addi	a3,a3,1
   19ffc:	0cd12e23          	sw	a3,220(sp)
   1a000:	0d812683          	lw	a3,216(sp)
   1a004:	00168693          	addi	a3,a3,1
   1a008:	0cd12c23          	sw	a3,216(sp)
   1a00c:	02d65463          	bge	a2,a3,1a034 <_svfprintf_r+0x4b0>
   1a010:	0d410613          	addi	a2,sp,212
   1a014:	00098593          	addi	a1,s3,0
   1a018:	00090513          	addi	a0,s2,0
   1a01c:	04e12423          	sw	a4,72(sp)
   1a020:	7a5020ef          	jal	ra,1cfc4 <__ssprint_r>
   1a024:	00050463          	beq	a0,zero,1a02c <_svfprintf_r+0x4a8>
   1a028:	20d0106f          	jal	zero,1ba34 <_svfprintf_r+0x1eb0>
   1a02c:	04812703          	lw	a4,72(sp)
   1a030:	0fc10c13          	addi	s8,sp,252
   1a034:	040a8e63          	beq	s5,zero,1a090 <_svfprintf_r+0x50c>
   1a038:	0b810693          	addi	a3,sp,184
   1a03c:	00dc2023          	sw	a3,0(s8)
   1a040:	00200693          	addi	a3,zero,2
   1a044:	00dc2223          	sw	a3,4(s8)
   1a048:	0dc12683          	lw	a3,220(sp)
   1a04c:	00700613          	addi	a2,zero,7
   1a050:	008c0c13          	addi	s8,s8,8
   1a054:	00268693          	addi	a3,a3,2
   1a058:	0cd12e23          	sw	a3,220(sp)
   1a05c:	0d812683          	lw	a3,216(sp)
   1a060:	00168693          	addi	a3,a3,1
   1a064:	0cd12c23          	sw	a3,216(sp)
   1a068:	02d65463          	bge	a2,a3,1a090 <_svfprintf_r+0x50c>
   1a06c:	0d410613          	addi	a2,sp,212
   1a070:	00098593          	addi	a1,s3,0
   1a074:	00090513          	addi	a0,s2,0
   1a078:	04e12423          	sw	a4,72(sp)
   1a07c:	749020ef          	jal	ra,1cfc4 <__ssprint_r>
   1a080:	00050463          	beq	a0,zero,1a088 <_svfprintf_r+0x504>
   1a084:	1b10106f          	jal	zero,1ba34 <_svfprintf_r+0x1eb0>
   1a088:	04812703          	lw	a4,72(sp)
   1a08c:	0fc10c13          	addi	s8,sp,252
   1a090:	04412783          	lw	a5,68(sp)
   1a094:	08000693          	addi	a3,zero,128
   1a098:	06d79c63          	bne	a5,a3,1a110 <_svfprintf_r+0x58c>
   1a09c:	02812783          	lw	a5,40(sp)
   1a0a0:	02c12683          	lw	a3,44(sp)
   1a0a4:	40d78ab3          	sub	s5,a5,a3
   1a0a8:	07505463          	bge	zero,s5,1a110 <_svfprintf_r+0x58c>
   1a0ac:	01000813          	addi	a6,zero,16
   1a0b0:	00700e13          	addi	t3,zero,7
   1a0b4:	01412783          	lw	a5,20(sp)
   1a0b8:	0d812683          	lw	a3,216(sp)
   1a0bc:	0dc12603          	lw	a2,220(sp)
   1a0c0:	00fc2023          	sw	a5,0(s8)
   1a0c4:	00168693          	addi	a3,a3,1
   1a0c8:	008c0593          	addi	a1,s8,8
   1a0cc:	755848e3          	blt	a6,s5,1b01c <_svfprintf_r+0x1498>
   1a0d0:	015c2223          	sw	s5,4(s8)
   1a0d4:	00ca8ab3          	add	s5,s5,a2
   1a0d8:	0d512e23          	sw	s5,220(sp)
   1a0dc:	0cd12c23          	sw	a3,216(sp)
   1a0e0:	00700613          	addi	a2,zero,7
   1a0e4:	00058c13          	addi	s8,a1,0
   1a0e8:	02d65463          	bge	a2,a3,1a110 <_svfprintf_r+0x58c>
   1a0ec:	0d410613          	addi	a2,sp,212
   1a0f0:	00098593          	addi	a1,s3,0
   1a0f4:	00090513          	addi	a0,s2,0
   1a0f8:	04e12223          	sw	a4,68(sp)
   1a0fc:	6c9020ef          	jal	ra,1cfc4 <__ssprint_r>
   1a100:	00050463          	beq	a0,zero,1a108 <_svfprintf_r+0x584>
   1a104:	1310106f          	jal	zero,1ba34 <_svfprintf_r+0x1eb0>
   1a108:	04412703          	lw	a4,68(sp)
   1a10c:	0fc10c13          	addi	s8,sp,252
   1a110:	41770ab3          	sub	s5,a4,s7
   1a114:	07505063          	bge	zero,s5,1a174 <_svfprintf_r+0x5f0>
   1a118:	01000813          	addi	a6,zero,16
   1a11c:	00700e13          	addi	t3,zero,7
   1a120:	01412783          	lw	a5,20(sp)
   1a124:	0d812683          	lw	a3,216(sp)
   1a128:	0dc12703          	lw	a4,220(sp)
   1a12c:	00fc2023          	sw	a5,0(s8)
   1a130:	00168693          	addi	a3,a3,1
   1a134:	008c0613          	addi	a2,s8,8
   1a138:	735846e3          	blt	a6,s5,1b064 <_svfprintf_r+0x14e0>
   1a13c:	00ea8733          	add	a4,s5,a4
   1a140:	015c2223          	sw	s5,4(s8)
   1a144:	0ce12e23          	sw	a4,220(sp)
   1a148:	0cd12c23          	sw	a3,216(sp)
   1a14c:	00700713          	addi	a4,zero,7
   1a150:	00060c13          	addi	s8,a2,0
   1a154:	02d75063          	bge	a4,a3,1a174 <_svfprintf_r+0x5f0>
   1a158:	0d410613          	addi	a2,sp,212
   1a15c:	00098593          	addi	a1,s3,0
   1a160:	00090513          	addi	a0,s2,0
   1a164:	661020ef          	jal	ra,1cfc4 <__ssprint_r>
   1a168:	00050463          	beq	a0,zero,1a170 <_svfprintf_r+0x5ec>
   1a16c:	0c90106f          	jal	zero,1ba34 <_svfprintf_r+0x1eb0>
   1a170:	0fc10c13          	addi	s8,sp,252
   1a174:	10047693          	andi	a3,s0,256
   1a178:	0dc12703          	lw	a4,220(sp)
   1a17c:	720694e3          	bne	a3,zero,1b0a4 <_svfprintf_r+0x1520>
   1a180:	0d812783          	lw	a5,216(sp)
   1a184:	00eb8333          	add	t1,s7,a4
   1a188:	009c2023          	sw	s1,0(s8)
   1a18c:	00178793          	addi	a5,a5,1
   1a190:	017c2223          	sw	s7,4(s8)
   1a194:	0c612e23          	sw	t1,220(sp)
   1a198:	0cf12c23          	sw	a5,216(sp)
   1a19c:	00700713          	addi	a4,zero,7
   1a1a0:	008c0c13          	addi	s8,s8,8
   1a1a4:	00f74463          	blt	a4,a5,1a1ac <_svfprintf_r+0x628>
   1a1a8:	1c40106f          	jal	zero,1b36c <_svfprintf_r+0x17e8>
   1a1ac:	0d410613          	addi	a2,sp,212
   1a1b0:	00098593          	addi	a1,s3,0
   1a1b4:	00090513          	addi	a0,s2,0
   1a1b8:	60d020ef          	jal	ra,1cfc4 <__ssprint_r>
   1a1bc:	00050463          	beq	a0,zero,1a1c4 <_svfprintf_r+0x640>
   1a1c0:	0750106f          	jal	zero,1ba34 <_svfprintf_r+0x1eb0>
   1a1c4:	0fc10c13          	addi	s8,sp,252
   1a1c8:	1a40106f          	jal	zero,1b36c <_svfprintf_r+0x17e8>
   1a1cc:	01046413          	ori	s0,s0,16
   1a1d0:	02047793          	andi	a5,s0,32
   1a1d4:	06078463          	beq	a5,zero,1a23c <_svfprintf_r+0x6b8>
   1a1d8:	007a8a93          	addi	s5,s5,7
   1a1dc:	ff8afa93          	andi	s5,s5,-8
   1a1e0:	000aad03          	lw	s10,0(s5)
   1a1e4:	004aad83          	lw	s11,4(s5)
   1a1e8:	008a8793          	addi	a5,s5,8
   1a1ec:	00f12c23          	sw	a5,24(sp)
   1a1f0:	000dc463          	blt	s11,zero,1a1f8 <_svfprintf_r+0x674>
   1a1f4:	0c50106f          	jal	zero,1bab8 <_svfprintf_r+0x1f34>
   1a1f8:	41a00d33          	sub	s10,zero,s10
   1a1fc:	01a037b3          	sltu	a5,zero,s10
   1a200:	41b00db3          	sub	s11,zero,s11
   1a204:	40fd8db3          	sub	s11,s11,a5
   1a208:	02d00793          	addi	a5,zero,45
   1a20c:	0af10ba3          	sb	a5,183(sp)
   1a210:	00100793          	addi	a5,zero,1
   1a214:	fff00713          	addi	a4,zero,-1
   1a218:	40eb82e3          	beq	s7,a4,1ae1c <_svfprintf_r+0x1298>
   1a21c:	00040713          	addi	a4,s0,0
   1a220:	01bd66b3          	or	a3,s10,s11
   1a224:	f7f47413          	andi	s0,s0,-129
   1a228:	3e069ae3          	bne	a3,zero,1ae1c <_svfprintf_r+0x1298>
   1a22c:	560b84e3          	beq	s7,zero,1af94 <_svfprintf_r+0x1410>
   1a230:	00100713          	addi	a4,zero,1
   1a234:	3ee798e3          	bne	a5,a4,1ae24 <_svfprintf_r+0x12a0>
   1a238:	0950106f          	jal	zero,1bacc <_svfprintf_r+0x1f48>
   1a23c:	004a8793          	addi	a5,s5,4
   1a240:	00f12c23          	sw	a5,24(sp)
   1a244:	01047793          	andi	a5,s0,16
   1a248:	00078863          	beq	a5,zero,1a258 <_svfprintf_r+0x6d4>
   1a24c:	000aad03          	lw	s10,0(s5)
   1a250:	41fd5d93          	srai	s11,s10,0x1f
   1a254:	f9dff06f          	jal	zero,1a1f0 <_svfprintf_r+0x66c>
   1a258:	04047793          	andi	a5,s0,64
   1a25c:	000aad03          	lw	s10,0(s5)
   1a260:	00078863          	beq	a5,zero,1a270 <_svfprintf_r+0x6ec>
   1a264:	010d1d13          	slli	s10,s10,0x10
   1a268:	410d5d13          	srai	s10,s10,0x10
   1a26c:	fe5ff06f          	jal	zero,1a250 <_svfprintf_r+0x6cc>
   1a270:	20047793          	andi	a5,s0,512
   1a274:	fc078ee3          	beq	a5,zero,1a250 <_svfprintf_r+0x6cc>
   1a278:	018d1d13          	slli	s10,s10,0x18
   1a27c:	418d5d13          	srai	s10,s10,0x18
   1a280:	fd1ff06f          	jal	zero,1a250 <_svfprintf_r+0x6cc>
   1a284:	00847793          	andi	a5,s0,8
   1a288:	0a078863          	beq	a5,zero,1a338 <_svfprintf_r+0x7b4>
   1a28c:	004a8793          	addi	a5,s5,4
   1a290:	00f12c23          	sw	a5,24(sp)
   1a294:	000aa783          	lw	a5,0(s5)
   1a298:	0007a603          	lw	a2,0(a5)
   1a29c:	0047a683          	lw	a3,4(a5)
   1a2a0:	0087a703          	lw	a4,8(a5)
   1a2a4:	00c7a783          	lw	a5,12(a5)
   1a2a8:	0ec12023          	sw	a2,224(sp)
   1a2ac:	0ed12223          	sw	a3,228(sp)
   1a2b0:	0ee12423          	sw	a4,232(sp)
   1a2b4:	0e010513          	addi	a0,sp,224
   1a2b8:	0ef12623          	sw	a5,236(sp)
   1a2bc:	d3cfd0ef          	jal	ra,177f8 <_ldcheck>
   1a2c0:	0aa12e23          	sw	a0,188(sp)
   1a2c4:	00200793          	addi	a5,zero,2
   1a2c8:	0af51e63          	bne	a0,a5,1a384 <_svfprintf_r+0x800>
   1a2cc:	0e012783          	lw	a5,224(sp)
   1a2d0:	09010593          	addi	a1,sp,144
   1a2d4:	0a010513          	addi	a0,sp,160
   1a2d8:	0af12023          	sw	a5,160(sp)
   1a2dc:	0e412783          	lw	a5,228(sp)
   1a2e0:	08012823          	sw	zero,144(sp)
   1a2e4:	08012a23          	sw	zero,148(sp)
   1a2e8:	0af12223          	sw	a5,164(sp)
   1a2ec:	0e812783          	lw	a5,232(sp)
   1a2f0:	08012c23          	sw	zero,152(sp)
   1a2f4:	08012e23          	sw	zero,156(sp)
   1a2f8:	0af12423          	sw	a5,168(sp)
   1a2fc:	0ec12783          	lw	a5,236(sp)
   1a300:	0af12623          	sw	a5,172(sp)
   1a304:	1d1050ef          	jal	ra,1fcd4 <__letf2>
   1a308:	00055663          	bge	a0,zero,1a314 <_svfprintf_r+0x790>
   1a30c:	02d00793          	addi	a5,zero,45
   1a310:	0af10ba3          	sb	a5,183(sp)
   1a314:	04700793          	addi	a5,zero,71
   1a318:	0767d063          	bge	a5,s6,1a378 <_svfprintf_r+0x7f4>
   1a31c:	000234b7          	lui	s1,0x23
   1a320:	5cc48493          	addi	s1,s1,1484 # 235cc <zeroes.4514+0x14>
   1a324:	f7f47413          	andi	s0,s0,-129
   1a328:	00012623          	sw	zero,12(sp)
   1a32c:	00300b93          	addi	s7,zero,3
   1a330:	00000713          	addi	a4,zero,0
   1a334:	34d0006f          	jal	zero,1ae80 <_svfprintf_r+0x12fc>
   1a338:	007a8a93          	addi	s5,s5,7
   1a33c:	ff8afa93          	andi	s5,s5,-8
   1a340:	000aa583          	lw	a1,0(s5)
   1a344:	004aa603          	lw	a2,4(s5)
   1a348:	008a8793          	addi	a5,s5,8
   1a34c:	0a010513          	addi	a0,sp,160
   1a350:	00f12c23          	sw	a5,24(sp)
   1a354:	6a4080ef          	jal	ra,229f8 <__extenddftf2>
   1a358:	0a012783          	lw	a5,160(sp)
   1a35c:	0ef12023          	sw	a5,224(sp)
   1a360:	0a412783          	lw	a5,164(sp)
   1a364:	0ef12223          	sw	a5,228(sp)
   1a368:	0a812783          	lw	a5,168(sp)
   1a36c:	0ef12423          	sw	a5,232(sp)
   1a370:	0ac12783          	lw	a5,172(sp)
   1a374:	f41ff06f          	jal	zero,1a2b4 <_svfprintf_r+0x730>
   1a378:	000234b7          	lui	s1,0x23
   1a37c:	5c848493          	addi	s1,s1,1480 # 235c8 <zeroes.4514+0x10>
   1a380:	fa5ff06f          	jal	zero,1a324 <_svfprintf_r+0x7a0>
   1a384:	00100793          	addi	a5,zero,1
   1a388:	02f51a63          	bne	a0,a5,1a3bc <_svfprintf_r+0x838>
   1a38c:	0ec12783          	lw	a5,236(sp)
   1a390:	0007d663          	bge	a5,zero,1a39c <_svfprintf_r+0x818>
   1a394:	02d00793          	addi	a5,zero,45
   1a398:	0af10ba3          	sb	a5,183(sp)
   1a39c:	04700793          	addi	a5,zero,71
   1a3a0:	0167d863          	bge	a5,s6,1a3b0 <_svfprintf_r+0x82c>
   1a3a4:	000234b7          	lui	s1,0x23
   1a3a8:	5d448493          	addi	s1,s1,1492 # 235d4 <zeroes.4514+0x1c>
   1a3ac:	f79ff06f          	jal	zero,1a324 <_svfprintf_r+0x7a0>
   1a3b0:	000234b7          	lui	s1,0x23
   1a3b4:	5d048493          	addi	s1,s1,1488 # 235d0 <zeroes.4514+0x18>
   1a3b8:	f6dff06f          	jal	zero,1a324 <_svfprintf_r+0x7a0>
   1a3bc:	fdfb7c93          	andi	s9,s6,-33
   1a3c0:	04100793          	addi	a5,zero,65
   1a3c4:	08fc9c63          	bne	s9,a5,1a45c <_svfprintf_r+0x8d8>
   1a3c8:	03000793          	addi	a5,zero,48
   1a3cc:	0af10c23          	sb	a5,184(sp)
   1a3d0:	06100713          	addi	a4,zero,97
   1a3d4:	07800793          	addi	a5,zero,120
   1a3d8:	00eb0463          	beq	s6,a4,1a3e0 <_svfprintf_r+0x85c>
   1a3dc:	05800793          	addi	a5,zero,88
   1a3e0:	0af10ca3          	sb	a5,185(sp)
   1a3e4:	06300793          	addi	a5,zero,99
   1a3e8:	00246413          	ori	s0,s0,2
   1a3ec:	4f77d263          	bge	a5,s7,1a8d0 <_svfprintf_r+0xd4c>
   1a3f0:	001b8593          	addi	a1,s7,1
   1a3f4:	00090513          	addi	a0,s2,0
   1a3f8:	ee4fd0ef          	jal	ra,17adc <_malloc_r>
   1a3fc:	00050493          	addi	s1,a0,0
   1a400:	4c051e63          	bne	a0,zero,1a8dc <_svfprintf_r+0xd58>
   1a404:	00c9d783          	lhu	a5,12(s3)
   1a408:	0407e793          	ori	a5,a5,64
   1a40c:	00f99623          	sh	a5,12(s3)
   1a410:	00c9d783          	lhu	a5,12(s3)
   1a414:	0407f793          	andi	a5,a5,64
   1a418:	800798e3          	bne	a5,zero,19c28 <_svfprintf_r+0xa4>
   1a41c:	1dc12083          	lw	ra,476(sp)
   1a420:	1d812403          	lw	s0,472(sp)
   1a424:	02412503          	lw	a0,36(sp)
   1a428:	1d412483          	lw	s1,468(sp)
   1a42c:	1d012903          	lw	s2,464(sp)
   1a430:	1cc12983          	lw	s3,460(sp)
   1a434:	1c812a03          	lw	s4,456(sp)
   1a438:	1c412a83          	lw	s5,452(sp)
   1a43c:	1c012b03          	lw	s6,448(sp)
   1a440:	1bc12b83          	lw	s7,444(sp)
   1a444:	1b812c03          	lw	s8,440(sp)
   1a448:	1b412c83          	lw	s9,436(sp)
   1a44c:	1b012d03          	lw	s10,432(sp)
   1a450:	1ac12d83          	lw	s11,428(sp)
   1a454:	1e010113          	addi	sp,sp,480
   1a458:	00008067          	jalr	zero,0(ra)
   1a45c:	fff00793          	addi	a5,zero,-1
   1a460:	48fb8263          	beq	s7,a5,1a8e4 <_svfprintf_r+0xd60>
   1a464:	04700793          	addi	a5,zero,71
   1a468:	00012623          	sw	zero,12(sp)
   1a46c:	00fc9863          	bne	s9,a5,1a47c <_svfprintf_r+0x8f8>
   1a470:	000b9663          	bne	s7,zero,1a47c <_svfprintf_r+0x8f8>
   1a474:	01712623          	sw	s7,12(sp)
   1a478:	00100b93          	addi	s7,zero,1
   1a47c:	0ec12a03          	lw	s4,236(sp)
   1a480:	10046793          	ori	a5,s0,256
   1a484:	02f12623          	sw	a5,44(sp)
   1a488:	04012223          	sw	zero,68(sp)
   1a48c:	0e012e83          	lw	t4,224(sp)
   1a490:	0e412e03          	lw	t3,228(sp)
   1a494:	0e812d83          	lw	s11,232(sp)
   1a498:	000a5a63          	bge	s4,zero,1a4ac <_svfprintf_r+0x928>
   1a49c:	800007b7          	lui	a5,0x80000
   1a4a0:	0147ca33          	xor	s4,a5,s4
   1a4a4:	02d00793          	addi	a5,zero,45
   1a4a8:	04f12223          	sw	a5,68(sp)
   1a4ac:	04100793          	addi	a5,zero,65
   1a4b0:	48fc9463          	bne	s9,a5,1a938 <_svfprintf_r+0xdb4>
   1a4b4:	0a010513          	addi	a0,sp,160
   1a4b8:	0bd12023          	sw	t4,160(sp)
   1a4bc:	0bc12223          	sw	t3,164(sp)
   1a4c0:	0bb12423          	sw	s11,168(sp)
   1a4c4:	0b412623          	sw	s4,172(sp)
   1a4c8:	738080ef          	jal	ra,22c00 <__trunctfdf2>
   1a4cc:	0bc10613          	addi	a2,sp,188
   1a4d0:	a24ff0ef          	jal	ra,196f4 <frexp>
   1a4d4:	00058613          	addi	a2,a1,0
   1a4d8:	00050593          	addi	a1,a0,0
   1a4dc:	0a010513          	addi	a0,sp,160
   1a4e0:	518080ef          	jal	ra,229f8 <__extenddftf2>
   1a4e4:	0a012783          	lw	a5,160(sp)
   1a4e8:	07010613          	addi	a2,sp,112
   1a4ec:	08010593          	addi	a1,sp,128
   1a4f0:	08f12023          	sw	a5,128(sp)
   1a4f4:	0a412783          	lw	a5,164(sp)
   1a4f8:	09010513          	addi	a0,sp,144
   1a4fc:	06012823          	sw	zero,112(sp)
   1a500:	08f12223          	sw	a5,132(sp)
   1a504:	0a812783          	lw	a5,168(sp)
   1a508:	06012a23          	sw	zero,116(sp)
   1a50c:	06012c23          	sw	zero,120(sp)
   1a510:	08f12423          	sw	a5,136(sp)
   1a514:	0ac12783          	lw	a5,172(sp)
   1a518:	08f12623          	sw	a5,140(sp)
   1a51c:	3ffc07b7          	lui	a5,0x3ffc0
   1a520:	06f12e23          	sw	a5,124(sp)
   1a524:	0f9050ef          	jal	ra,1fe1c <__multf3>
   1a528:	09012803          	lw	a6,144(sp)
   1a52c:	09412603          	lw	a2,148(sp)
   1a530:	09812683          	lw	a3,152(sp)
   1a534:	09c12d83          	lw	s11,156(sp)
   1a538:	09010593          	addi	a1,sp,144
   1a53c:	0a010513          	addi	a0,sp,160
   1a540:	0b012023          	sw	a6,160(sp)
   1a544:	05012a23          	sw	a6,84(sp)
   1a548:	0ac12223          	sw	a2,164(sp)
   1a54c:	04c12823          	sw	a2,80(sp)
   1a550:	0ad12423          	sw	a3,168(sp)
   1a554:	04d12423          	sw	a3,72(sp)
   1a558:	0bb12623          	sw	s11,172(sp)
   1a55c:	08012823          	sw	zero,144(sp)
   1a560:	08012a23          	sw	zero,148(sp)
   1a564:	08012c23          	sw	zero,152(sp)
   1a568:	08012e23          	sw	zero,156(sp)
   1a56c:	554050ef          	jal	ra,1fac0 <__eqtf2>
   1a570:	04812683          	lw	a3,72(sp)
   1a574:	05012603          	lw	a2,80(sp)
   1a578:	05412803          	lw	a6,84(sp)
   1a57c:	00051663          	bne	a0,zero,1a588 <_svfprintf_r+0xa04>
   1a580:	00100793          	addi	a5,zero,1
   1a584:	0af12e23          	sw	a5,188(sp)
   1a588:	06100793          	addi	a5,zero,97
   1a58c:	36fb0263          	beq	s6,a5,1a8f0 <_svfprintf_r+0xd6c>
   1a590:	00023a37          	lui	s4,0x23
   1a594:	5eca0a13          	addi	s4,s4,1516 # 235ec <zeroes.4514+0x34>
   1a598:	fffb8e13          	addi	t3,s7,-1
   1a59c:	00048d13          	addi	s10,s1,0
   1a5a0:	400307b7          	lui	a5,0x40030
   1a5a4:	09010593          	addi	a1,sp,144
   1a5a8:	08c12a23          	sw	a2,148(sp)
   1a5ac:	0a010513          	addi	a0,sp,160
   1a5b0:	08010613          	addi	a2,sp,128
   1a5b4:	05c12c23          	sw	t3,88(sp)
   1a5b8:	08f12623          	sw	a5,140(sp)
   1a5bc:	09012823          	sw	a6,144(sp)
   1a5c0:	08d12c23          	sw	a3,152(sp)
   1a5c4:	09b12e23          	sw	s11,156(sp)
   1a5c8:	08012023          	sw	zero,128(sp)
   1a5cc:	08012223          	sw	zero,132(sp)
   1a5d0:	08012423          	sw	zero,136(sp)
   1a5d4:	049050ef          	jal	ra,1fe1c <__multf3>
   1a5d8:	0a012603          	lw	a2,160(sp)
   1a5dc:	0a412683          	lw	a3,164(sp)
   1a5e0:	0a812703          	lw	a4,168(sp)
   1a5e4:	0a010513          	addi	a0,sp,160
   1a5e8:	04c12a23          	sw	a2,84(sp)
   1a5ec:	04d12823          	sw	a3,80(sp)
   1a5f0:	04e12423          	sw	a4,72(sp)
   1a5f4:	128080ef          	jal	ra,2271c <__fixtfsi>
   1a5f8:	00050593          	addi	a1,a0,0
   1a5fc:	00050a93          	addi	s5,a0,0
   1a600:	0a010513          	addi	a0,sp,160
   1a604:	0ac12d83          	lw	s11,172(sp)
   1a608:	264080ef          	jal	ra,2286c <__floatsitf>
   1a60c:	04812703          	lw	a4,72(sp)
   1a610:	05412603          	lw	a2,84(sp)
   1a614:	05012683          	lw	a3,80(sp)
   1a618:	08e12423          	sw	a4,136(sp)
   1a61c:	0a012703          	lw	a4,160(sp)
   1a620:	08c12023          	sw	a2,128(sp)
   1a624:	08010593          	addi	a1,sp,128
   1a628:	06e12823          	sw	a4,112(sp)
   1a62c:	0a412703          	lw	a4,164(sp)
   1a630:	07010613          	addi	a2,sp,112
   1a634:	09010513          	addi	a0,sp,144
   1a638:	06e12a23          	sw	a4,116(sp)
   1a63c:	0a812703          	lw	a4,168(sp)
   1a640:	09b12623          	sw	s11,140(sp)
   1a644:	08d12223          	sw	a3,132(sp)
   1a648:	06e12c23          	sw	a4,120(sp)
   1a64c:	0ac12703          	lw	a4,172(sp)
   1a650:	001d0d13          	addi	s10,s10,1
   1a654:	06e12e23          	sw	a4,124(sp)
   1a658:	32d060ef          	jal	ra,21184 <__subtf3>
   1a65c:	015a05b3          	add	a1,s4,s5
   1a660:	0005c583          	lbu	a1,0(a1)
   1a664:	05812e03          	lw	t3,88(sp)
   1a668:	09c12e83          	lw	t4,156(sp)
   1a66c:	09012283          	lw	t0,144(sp)
   1a670:	09412f83          	lw	t6,148(sp)
   1a674:	09812f03          	lw	t5,152(sp)
   1a678:	05c12423          	sw	t3,72(sp)
   1a67c:	febd0fa3          	sb	a1,-1(s10)
   1a680:	fff00793          	addi	a5,zero,-1
   1a684:	000e8d93          	addi	s11,t4,0
   1a688:	06fe0c63          	beq	t3,a5,1a700 <_svfprintf_r+0xb7c>
   1a68c:	fffe0e13          	addi	t3,t3,-1
   1a690:	09010593          	addi	a1,sp,144
   1a694:	0a010513          	addi	a0,sp,160
   1a698:	07d12623          	sw	t4,108(sp)
   1a69c:	07e12423          	sw	t5,104(sp)
   1a6a0:	07f12223          	sw	t6,100(sp)
   1a6a4:	06512023          	sw	t0,96(sp)
   1a6a8:	05c12e23          	sw	t3,92(sp)
   1a6ac:	0a512023          	sw	t0,160(sp)
   1a6b0:	04512c23          	sw	t0,88(sp)
   1a6b4:	0bf12223          	sw	t6,164(sp)
   1a6b8:	05f12a23          	sw	t6,84(sp)
   1a6bc:	0be12423          	sw	t5,168(sp)
   1a6c0:	05e12823          	sw	t5,80(sp)
   1a6c4:	0bd12623          	sw	t4,172(sp)
   1a6c8:	08012823          	sw	zero,144(sp)
   1a6cc:	08012a23          	sw	zero,148(sp)
   1a6d0:	08012c23          	sw	zero,152(sp)
   1a6d4:	08012e23          	sw	zero,156(sp)
   1a6d8:	3e8050ef          	jal	ra,1fac0 <__eqtf2>
   1a6dc:	05012683          	lw	a3,80(sp)
   1a6e0:	05412603          	lw	a2,84(sp)
   1a6e4:	05812803          	lw	a6,88(sp)
   1a6e8:	05c12e03          	lw	t3,92(sp)
   1a6ec:	06012283          	lw	t0,96(sp)
   1a6f0:	06412f83          	lw	t6,100(sp)
   1a6f4:	06812f03          	lw	t5,104(sp)
   1a6f8:	06c12e83          	lw	t4,108(sp)
   1a6fc:	ea0512e3          	bne	a0,zero,1a5a0 <_svfprintf_r+0xa1c>
   1a700:	3ffe0db7          	lui	s11,0x3ffe0
   1a704:	09010593          	addi	a1,sp,144
   1a708:	0a010513          	addi	a0,sp,160
   1a70c:	0a512023          	sw	t0,160(sp)
   1a710:	04512e23          	sw	t0,92(sp)
   1a714:	0bf12223          	sw	t6,164(sp)
   1a718:	05f12c23          	sw	t6,88(sp)
   1a71c:	0be12423          	sw	t5,168(sp)
   1a720:	05e12a23          	sw	t5,84(sp)
   1a724:	0bd12623          	sw	t4,172(sp)
   1a728:	05d12823          	sw	t4,80(sp)
   1a72c:	08012823          	sw	zero,144(sp)
   1a730:	08012a23          	sw	zero,148(sp)
   1a734:	08012c23          	sw	zero,152(sp)
   1a738:	09b12e23          	sw	s11,156(sp)
   1a73c:	450050ef          	jal	ra,1fb8c <__getf2>
   1a740:	04a04663          	blt	zero,a0,1a78c <_svfprintf_r+0xc08>
   1a744:	05c12283          	lw	t0,92(sp)
   1a748:	05812f83          	lw	t6,88(sp)
   1a74c:	05412f03          	lw	t5,84(sp)
   1a750:	05012e83          	lw	t4,80(sp)
   1a754:	09010593          	addi	a1,sp,144
   1a758:	0a010513          	addi	a0,sp,160
   1a75c:	0a512023          	sw	t0,160(sp)
   1a760:	0bf12223          	sw	t6,164(sp)
   1a764:	0be12423          	sw	t5,168(sp)
   1a768:	0bd12623          	sw	t4,172(sp)
   1a76c:	08012823          	sw	zero,144(sp)
   1a770:	08012a23          	sw	zero,148(sp)
   1a774:	08012c23          	sw	zero,152(sp)
   1a778:	09b12e23          	sw	s11,156(sp)
   1a77c:	344050ef          	jal	ra,1fac0 <__eqtf2>
   1a780:	1a051263          	bne	a0,zero,1a924 <_svfprintf_r+0xda0>
   1a784:	001afa93          	andi	s5,s5,1
   1a788:	180a8e63          	beq	s5,zero,1a924 <_svfprintf_r+0xda0>
   1a78c:	00fa4603          	lbu	a2,15(s4)
   1a790:	0da12623          	sw	s10,204(sp)
   1a794:	03000593          	addi	a1,zero,48
   1a798:	0cc12683          	lw	a3,204(sp)
   1a79c:	fff68713          	addi	a4,a3,-1
   1a7a0:	0ce12623          	sw	a4,204(sp)
   1a7a4:	fff6c703          	lbu	a4,-1(a3)
   1a7a8:	14c70a63          	beq	a4,a2,1a8fc <_svfprintf_r+0xd78>
   1a7ac:	03900613          	addi	a2,zero,57
   1a7b0:	14c71a63          	bne	a4,a2,1a904 <_svfprintf_r+0xd80>
   1a7b4:	00aa4703          	lbu	a4,10(s4)
   1a7b8:	fee68fa3          	sb	a4,-1(a3)
   1a7bc:	000d0a13          	addi	s4,s10,0
   1a7c0:	04700713          	addi	a4,zero,71
   1a7c4:	409a0a33          	sub	s4,s4,s1
   1a7c8:	0bc12d83          	lw	s11,188(sp)
   1a7cc:	2aec9663          	bne	s9,a4,1aa78 <_svfprintf_r+0xef4>
   1a7d0:	ffd00713          	addi	a4,zero,-3
   1a7d4:	00edc463          	blt	s11,a4,1a7dc <_svfprintf_r+0xc58>
   1a7d8:	33bbd063          	bge	s7,s11,1aaf8 <_svfprintf_r+0xf74>
   1a7dc:	ffeb0b13          	addi	s6,s6,-2
   1a7e0:	fffd8a93          	addi	s5,s11,-1 # 3ffdffff <__BSS_END__+0x3ffba407>
   1a7e4:	0b512e23          	sw	s5,188(sp)
   1a7e8:	fdfb7693          	andi	a3,s6,-33
   1a7ec:	04100593          	addi	a1,zero,65
   1a7f0:	0ffb7713          	andi	a4,s6,255
   1a7f4:	00000613          	addi	a2,zero,0
   1a7f8:	00b69863          	bne	a3,a1,1a808 <_svfprintf_r+0xc84>
   1a7fc:	00f70713          	addi	a4,a4,15
   1a800:	0ff77713          	andi	a4,a4,255
   1a804:	00100613          	addi	a2,zero,1
   1a808:	0ce10223          	sb	a4,196(sp)
   1a80c:	02b00793          	addi	a5,zero,43
   1a810:	000ad863          	bge	s5,zero,1a820 <_svfprintf_r+0xc9c>
   1a814:	00100a93          	addi	s5,zero,1
   1a818:	41ba8ab3          	sub	s5,s5,s11
   1a81c:	02d00793          	addi	a5,zero,45
   1a820:	0cf102a3          	sb	a5,197(sp)
   1a824:	00900793          	addi	a5,zero,9
   1a828:	2957de63          	bge	a5,s5,1aac4 <_svfprintf_r+0xf40>
   1a82c:	0d310c93          	addi	s9,sp,211
   1a830:	000c8d93          	addi	s11,s9,0
   1a834:	06300b93          	addi	s7,zero,99
   1a838:	00a00593          	addi	a1,zero,10
   1a83c:	000a8513          	addi	a0,s5,0
   1a840:	79c080ef          	jal	ra,22fdc <__modsi3>
   1a844:	03050513          	addi	a0,a0,48
   1a848:	feac8fa3          	sb	a0,-1(s9)
   1a84c:	00a00593          	addi	a1,zero,10
   1a850:	000a8513          	addi	a0,s5,0
   1a854:	fffc8d13          	addi	s10,s9,-1
   1a858:	700080ef          	jal	ra,22f58 <__divsi3>
   1a85c:	255bc463          	blt	s7,s5,1aaa4 <_svfprintf_r+0xf20>
   1a860:	03050513          	addi	a0,a0,48
   1a864:	ffec8c93          	addi	s9,s9,-2
   1a868:	fead0fa3          	sb	a0,-1(s10)
   1a86c:	0c610793          	addi	a5,sp,198
   1a870:	25bce063          	bltu	s9,s11,1aab0 <_svfprintf_r+0xf2c>
   1a874:	0c410713          	addi	a4,sp,196
   1a878:	40e787b3          	sub	a5,a5,a4
   1a87c:	02f12e23          	sw	a5,60(sp)
   1a880:	01478bb3          	add	s7,a5,s4
   1a884:	00100793          	addi	a5,zero,1
   1a888:	0147c663          	blt	a5,s4,1a894 <_svfprintf_r+0xd10>
   1a88c:	00147793          	andi	a5,s0,1
   1a890:	00078663          	beq	a5,zero,1a89c <_svfprintf_r+0xd18>
   1a894:	02012783          	lw	a5,32(sp)
   1a898:	00fb8bb3          	add	s7,s7,a5
   1a89c:	bff47413          	andi	s0,s0,-1025
   1a8a0:	10046793          	ori	a5,s0,256
   1a8a4:	02f12623          	sw	a5,44(sp)
   1a8a8:	00000d13          	addi	s10,zero,0
   1a8ac:	00000c93          	addi	s9,zero,0
   1a8b0:	00000d93          	addi	s11,zero,0
   1a8b4:	04412783          	lw	a5,68(sp)
   1a8b8:	00078663          	beq	a5,zero,1a8c4 <_svfprintf_r+0xd40>
   1a8bc:	02d00713          	addi	a4,zero,45
   1a8c0:	0ae10ba3          	sb	a4,183(sp)
   1a8c4:	02c12403          	lw	s0,44(sp)
   1a8c8:	00000713          	addi	a4,zero,0
   1a8cc:	e4cff06f          	jal	zero,19f18 <_svfprintf_r+0x394>
   1a8d0:	00012623          	sw	zero,12(sp)
   1a8d4:	13c10493          	addi	s1,sp,316
   1a8d8:	ba5ff06f          	jal	zero,1a47c <_svfprintf_r+0x8f8>
   1a8dc:	00a12623          	sw	a0,12(sp)
   1a8e0:	b9dff06f          	jal	zero,1a47c <_svfprintf_r+0x8f8>
   1a8e4:	00012623          	sw	zero,12(sp)
   1a8e8:	00600b93          	addi	s7,zero,6
   1a8ec:	b91ff06f          	jal	zero,1a47c <_svfprintf_r+0x8f8>
   1a8f0:	00023a37          	lui	s4,0x23
   1a8f4:	5d8a0a13          	addi	s4,s4,1496 # 235d8 <zeroes.4514+0x20>
   1a8f8:	ca1ff06f          	jal	zero,1a598 <_svfprintf_r+0xa14>
   1a8fc:	feb68fa3          	sb	a1,-1(a3)
   1a900:	e99ff06f          	jal	zero,1a798 <_svfprintf_r+0xc14>
   1a904:	00170713          	addi	a4,a4,1
   1a908:	0ff77713          	andi	a4,a4,255
   1a90c:	eadff06f          	jal	zero,1a7b8 <_svfprintf_r+0xc34>
   1a910:	001a0a13          	addi	s4,s4,1
   1a914:	feea0fa3          	sb	a4,-1(s4)
   1a918:	414d07b3          	sub	a5,s10,s4
   1a91c:	fe07dae3          	bge	a5,zero,1a910 <_svfprintf_r+0xd8c>
   1a920:	ea1ff06f          	jal	zero,1a7c0 <_svfprintf_r+0xc3c>
   1a924:	04812783          	lw	a5,72(sp)
   1a928:	000d0a13          	addi	s4,s10,0
   1a92c:	03000713          	addi	a4,zero,48
   1a930:	00fd0d33          	add	s10,s10,a5
   1a934:	fe5ff06f          	jal	zero,1a918 <_svfprintf_r+0xd94>
   1a938:	04600793          	addi	a5,zero,70
   1a93c:	00fc8e63          	beq	s9,a5,1a958 <_svfprintf_r+0xdd4>
   1a940:	04500793          	addi	a5,zero,69
   1a944:	001b8a93          	addi	s5,s7,1
   1a948:	00fc8463          	beq	s9,a5,1a950 <_svfprintf_r+0xdcc>
   1a94c:	000b8a93          	addi	s5,s7,0
   1a950:	00200613          	addi	a2,zero,2
   1a954:	00c0006f          	jal	zero,1a960 <_svfprintf_r+0xddc>
   1a958:	000b8a93          	addi	s5,s7,0
   1a95c:	00300613          	addi	a2,zero,3
   1a960:	0c010793          	addi	a5,sp,192
   1a964:	0cc10813          	addi	a6,sp,204
   1a968:	0bc10713          	addi	a4,sp,188
   1a96c:	000a8693          	addi	a3,s5,0
   1a970:	0a010593          	addi	a1,sp,160
   1a974:	00090513          	addi	a0,s2,0
   1a978:	0bd12023          	sw	t4,160(sp)
   1a97c:	05d12823          	sw	t4,80(sp)
   1a980:	0bc12223          	sw	t3,164(sp)
   1a984:	05c12423          	sw	t3,72(sp)
   1a988:	0bb12423          	sw	s11,168(sp)
   1a98c:	0b412623          	sw	s4,172(sp)
   1a990:	a78fc0ef          	jal	ra,16c08 <_ldtoa_r>
   1a994:	04700793          	addi	a5,zero,71
   1a998:	00050493          	addi	s1,a0,0
   1a99c:	04812e03          	lw	t3,72(sp)
   1a9a0:	05012e83          	lw	t4,80(sp)
   1a9a4:	00fc9a63          	bne	s9,a5,1a9b8 <_svfprintf_r+0xe34>
   1a9a8:	00147793          	andi	a5,s0,1
   1a9ac:	00079663          	bne	a5,zero,1a9b8 <_svfprintf_r+0xe34>
   1a9b0:	0cc12a03          	lw	s4,204(sp)
   1a9b4:	e0dff06f          	jal	zero,1a7c0 <_svfprintf_r+0xc3c>
   1a9b8:	04600793          	addi	a5,zero,70
   1a9bc:	01548d33          	add	s10,s1,s5
   1a9c0:	06fc9263          	bne	s9,a5,1aa24 <_svfprintf_r+0xea0>
   1a9c4:	0004c703          	lbu	a4,0(s1)
   1a9c8:	03000793          	addi	a5,zero,48
   1a9cc:	04f71863          	bne	a4,a5,1aa1c <_svfprintf_r+0xe98>
   1a9d0:	09010593          	addi	a1,sp,144
   1a9d4:	0a010513          	addi	a0,sp,160
   1a9d8:	0bd12023          	sw	t4,160(sp)
   1a9dc:	05d12823          	sw	t4,80(sp)
   1a9e0:	0bc12223          	sw	t3,164(sp)
   1a9e4:	05c12423          	sw	t3,72(sp)
   1a9e8:	0bb12423          	sw	s11,168(sp)
   1a9ec:	0b412623          	sw	s4,172(sp)
   1a9f0:	08012823          	sw	zero,144(sp)
   1a9f4:	08012a23          	sw	zero,148(sp)
   1a9f8:	08012c23          	sw	zero,152(sp)
   1a9fc:	08012e23          	sw	zero,156(sp)
   1aa00:	0c0050ef          	jal	ra,1fac0 <__eqtf2>
   1aa04:	04812e03          	lw	t3,72(sp)
   1aa08:	05012e83          	lw	t4,80(sp)
   1aa0c:	00050863          	beq	a0,zero,1aa1c <_svfprintf_r+0xe98>
   1aa10:	00100793          	addi	a5,zero,1
   1aa14:	41578ab3          	sub	s5,a5,s5
   1aa18:	0b512e23          	sw	s5,188(sp)
   1aa1c:	0bc12783          	lw	a5,188(sp)
   1aa20:	00fd0d33          	add	s10,s10,a5
   1aa24:	09010593          	addi	a1,sp,144
   1aa28:	0a010513          	addi	a0,sp,160
   1aa2c:	0bd12023          	sw	t4,160(sp)
   1aa30:	0bc12223          	sw	t3,164(sp)
   1aa34:	0bb12423          	sw	s11,168(sp)
   1aa38:	0b412623          	sw	s4,172(sp)
   1aa3c:	08012823          	sw	zero,144(sp)
   1aa40:	08012a23          	sw	zero,148(sp)
   1aa44:	08012c23          	sw	zero,152(sp)
   1aa48:	08012e23          	sw	zero,156(sp)
   1aa4c:	074050ef          	jal	ra,1fac0 <__eqtf2>
   1aa50:	00051463          	bne	a0,zero,1aa58 <_svfprintf_r+0xed4>
   1aa54:	0da12623          	sw	s10,204(sp)
   1aa58:	03000713          	addi	a4,zero,48
   1aa5c:	0100006f          	jal	zero,1aa6c <_svfprintf_r+0xee8>
   1aa60:	00178693          	addi	a3,a5,1 # 40030001 <__BSS_END__+0x4000a409>
   1aa64:	0cd12623          	sw	a3,204(sp)
   1aa68:	00e78023          	sb	a4,0(a5)
   1aa6c:	0cc12783          	lw	a5,204(sp)
   1aa70:	ffa7e8e3          	bltu	a5,s10,1aa60 <_svfprintf_r+0xedc>
   1aa74:	f3dff06f          	jal	zero,1a9b0 <_svfprintf_r+0xe2c>
   1aa78:	04600713          	addi	a4,zero,70
   1aa7c:	d6ec92e3          	bne	s9,a4,1a7e0 <_svfprintf_r+0xc5c>
   1aa80:	00147713          	andi	a4,s0,1
   1aa84:	01776733          	or	a4,a4,s7
   1aa88:	07b05063          	bge	zero,s11,1aae8 <_svfprintf_r+0xf64>
   1aa8c:	0c070063          	beq	a4,zero,1ab4c <_svfprintf_r+0xfc8>
   1aa90:	02012783          	lw	a5,32(sp)
   1aa94:	00fd8733          	add	a4,s11,a5
   1aa98:	00eb8bb3          	add	s7,s7,a4
   1aa9c:	06600b13          	addi	s6,zero,102
   1aaa0:	0900006f          	jal	zero,1ab30 <_svfprintf_r+0xfac>
   1aaa4:	000d0c93          	addi	s9,s10,0
   1aaa8:	00050a93          	addi	s5,a0,0
   1aaac:	d8dff06f          	jal	zero,1a838 <_svfprintf_r+0xcb4>
   1aab0:	001c8c93          	addi	s9,s9,1
   1aab4:	fffcc703          	lbu	a4,-1(s9)
   1aab8:	00178793          	addi	a5,a5,1
   1aabc:	fee78fa3          	sb	a4,-1(a5)
   1aac0:	db1ff06f          	jal	zero,1a870 <_svfprintf_r+0xcec>
   1aac4:	0c610713          	addi	a4,sp,198
   1aac8:	00061863          	bne	a2,zero,1aad8 <_svfprintf_r+0xf54>
   1aacc:	03000793          	addi	a5,zero,48
   1aad0:	0cf10323          	sb	a5,198(sp)
   1aad4:	0c710713          	addi	a4,sp,199
   1aad8:	030a8a93          	addi	s5,s5,48
   1aadc:	00170793          	addi	a5,a4,1
   1aae0:	01570023          	sb	s5,0(a4)
   1aae4:	d91ff06f          	jal	zero,1a874 <_svfprintf_r+0xcf0>
   1aae8:	06070663          	beq	a4,zero,1ab54 <_svfprintf_r+0xfd0>
   1aaec:	02012783          	lw	a5,32(sp)
   1aaf0:	00178713          	addi	a4,a5,1
   1aaf4:	fa5ff06f          	jal	zero,1aa98 <_svfprintf_r+0xf14>
   1aaf8:	034dc063          	blt	s11,s4,1ab18 <_svfprintf_r+0xf94>
   1aafc:	00147713          	andi	a4,s0,1
   1ab00:	000d8b93          	addi	s7,s11,0
   1ab04:	00070663          	beq	a4,zero,1ab10 <_svfprintf_r+0xf8c>
   1ab08:	02012783          	lw	a5,32(sp)
   1ab0c:	00fd8bb3          	add	s7,s11,a5
   1ab10:	06700b13          	addi	s6,zero,103
   1ab14:	01c0006f          	jal	zero,1ab30 <_svfprintf_r+0xfac>
   1ab18:	02012783          	lw	a5,32(sp)
   1ab1c:	06700b13          	addi	s6,zero,103
   1ab20:	00fa0bb3          	add	s7,s4,a5
   1ab24:	01b04663          	blt	zero,s11,1ab30 <_svfprintf_r+0xfac>
   1ab28:	41bb8333          	sub	t1,s7,s11
   1ab2c:	00130b93          	addi	s7,t1,1
   1ab30:	40047c93          	andi	s9,s0,1024
   1ab34:	00000d13          	addi	s10,zero,0
   1ab38:	d60c8ee3          	beq	s9,zero,1a8b4 <_svfprintf_r+0xd30>
   1ab3c:	00000c93          	addi	s9,zero,0
   1ab40:	d7b05ae3          	bge	zero,s11,1a8b4 <_svfprintf_r+0xd30>
   1ab44:	0ff00693          	addi	a3,zero,255
   1ab48:	0380006f          	jal	zero,1ab80 <_svfprintf_r+0xffc>
   1ab4c:	000d8b93          	addi	s7,s11,0
   1ab50:	f4dff06f          	jal	zero,1aa9c <_svfprintf_r+0xf18>
   1ab54:	06600b13          	addi	s6,zero,102
   1ab58:	00100b93          	addi	s7,zero,1
   1ab5c:	fd5ff06f          	jal	zero,1ab30 <_svfprintf_r+0xfac>
   1ab60:	03b75663          	bge	a4,s11,1ab8c <_svfprintf_r+0x1008>
   1ab64:	01012783          	lw	a5,16(sp)
   1ab68:	40ed8db3          	sub	s11,s11,a4
   1ab6c:	0017c703          	lbu	a4,1(a5)
   1ab70:	02070863          	beq	a4,zero,1aba0 <_svfprintf_r+0x101c>
   1ab74:	00178793          	addi	a5,a5,1
   1ab78:	001c8c93          	addi	s9,s9,1
   1ab7c:	00f12823          	sw	a5,16(sp)
   1ab80:	01012783          	lw	a5,16(sp)
   1ab84:	0007c703          	lbu	a4,0(a5)
   1ab88:	fcd71ce3          	bne	a4,a3,1ab60 <_svfprintf_r+0xfdc>
   1ab8c:	03012583          	lw	a1,48(sp)
   1ab90:	01ac8533          	add	a0,s9,s10
   1ab94:	3a0080ef          	jal	ra,22f34 <__mulsi3>
   1ab98:	01750bb3          	add	s7,a0,s7
   1ab9c:	d19ff06f          	jal	zero,1a8b4 <_svfprintf_r+0xd30>
   1aba0:	001d0d13          	addi	s10,s10,1
   1aba4:	fddff06f          	jal	zero,1ab80 <_svfprintf_r+0xffc>
   1aba8:	004a8713          	addi	a4,s5,4
   1abac:	00e12c23          	sw	a4,24(sp)
   1abb0:	02047713          	andi	a4,s0,32
   1abb4:	000aa783          	lw	a5,0(s5)
   1abb8:	02070063          	beq	a4,zero,1abd8 <_svfprintf_r+0x1054>
   1abbc:	02412703          	lw	a4,36(sp)
   1abc0:	00e7a023          	sw	a4,0(a5)
   1abc4:	41f75713          	srai	a4,a4,0x1f
   1abc8:	00e7a223          	sw	a4,4(a5)
   1abcc:	01812a83          	lw	s5,24(sp)
   1abd0:	01c12483          	lw	s1,28(sp)
   1abd4:	8b0ff06f          	jal	zero,19c84 <_svfprintf_r+0x100>
   1abd8:	01047713          	andi	a4,s0,16
   1abdc:	00070863          	beq	a4,zero,1abec <_svfprintf_r+0x1068>
   1abe0:	02412703          	lw	a4,36(sp)
   1abe4:	00e7a023          	sw	a4,0(a5)
   1abe8:	fe5ff06f          	jal	zero,1abcc <_svfprintf_r+0x1048>
   1abec:	04047713          	andi	a4,s0,64
   1abf0:	00070863          	beq	a4,zero,1ac00 <_svfprintf_r+0x107c>
   1abf4:	02412703          	lw	a4,36(sp)
   1abf8:	00e79023          	sh	a4,0(a5)
   1abfc:	fd1ff06f          	jal	zero,1abcc <_svfprintf_r+0x1048>
   1ac00:	20047413          	andi	s0,s0,512
   1ac04:	fc040ee3          	beq	s0,zero,1abe0 <_svfprintf_r+0x105c>
   1ac08:	02412703          	lw	a4,36(sp)
   1ac0c:	00e78023          	sb	a4,0(a5)
   1ac10:	fbdff06f          	jal	zero,1abcc <_svfprintf_r+0x1048>
   1ac14:	01046413          	ori	s0,s0,16
   1ac18:	02047793          	andi	a5,s0,32
   1ac1c:	02078663          	beq	a5,zero,1ac48 <_svfprintf_r+0x10c4>
   1ac20:	007a8a93          	addi	s5,s5,7
   1ac24:	ff8afa93          	andi	s5,s5,-8
   1ac28:	000aad03          	lw	s10,0(s5)
   1ac2c:	004aad83          	lw	s11,4(s5)
   1ac30:	008a8793          	addi	a5,s5,8
   1ac34:	00f12c23          	sw	a5,24(sp)
   1ac38:	bff47413          	andi	s0,s0,-1025
   1ac3c:	00000793          	addi	a5,zero,0
   1ac40:	0a010ba3          	sb	zero,183(sp)
   1ac44:	dd0ff06f          	jal	zero,1a214 <_svfprintf_r+0x690>
   1ac48:	004a8793          	addi	a5,s5,4
   1ac4c:	00f12c23          	sw	a5,24(sp)
   1ac50:	01047793          	andi	a5,s0,16
   1ac54:	00078663          	beq	a5,zero,1ac60 <_svfprintf_r+0x10dc>
   1ac58:	000aad03          	lw	s10,0(s5)
   1ac5c:	0100006f          	jal	zero,1ac6c <_svfprintf_r+0x10e8>
   1ac60:	04047793          	andi	a5,s0,64
   1ac64:	00078863          	beq	a5,zero,1ac74 <_svfprintf_r+0x10f0>
   1ac68:	000add03          	lhu	s10,0(s5)
   1ac6c:	00000d93          	addi	s11,zero,0
   1ac70:	fc9ff06f          	jal	zero,1ac38 <_svfprintf_r+0x10b4>
   1ac74:	20047793          	andi	a5,s0,512
   1ac78:	fe0780e3          	beq	a5,zero,1ac58 <_svfprintf_r+0x10d4>
   1ac7c:	000acd03          	lbu	s10,0(s5)
   1ac80:	fedff06f          	jal	zero,1ac6c <_svfprintf_r+0x10e8>
   1ac84:	004a8793          	addi	a5,s5,4
   1ac88:	00f12c23          	sw	a5,24(sp)
   1ac8c:	ffff87b7          	lui	a5,0xffff8
   1ac90:	8307c793          	xori	a5,a5,-2000
   1ac94:	0af11c23          	sh	a5,184(sp)
   1ac98:	000237b7          	lui	a5,0x23
   1ac9c:	5d878793          	addi	a5,a5,1496 # 235d8 <zeroes.4514+0x20>
   1aca0:	04f12023          	sw	a5,64(sp)
   1aca4:	000aad03          	lw	s10,0(s5)
   1aca8:	00000d93          	addi	s11,zero,0
   1acac:	00246413          	ori	s0,s0,2
   1acb0:	00200793          	addi	a5,zero,2
   1acb4:	07800b13          	addi	s6,zero,120
   1acb8:	f89ff06f          	jal	zero,1ac40 <_svfprintf_r+0x10bc>
   1acbc:	004a8793          	addi	a5,s5,4
   1acc0:	00f12c23          	sw	a5,24(sp)
   1acc4:	0a010ba3          	sb	zero,183(sp)
   1acc8:	fff00793          	addi	a5,zero,-1
   1accc:	000aa483          	lw	s1,0(s5)
   1acd0:	02fb8463          	beq	s7,a5,1acf8 <_svfprintf_r+0x1174>
   1acd4:	000b8613          	addi	a2,s7,0
   1acd8:	00000593          	addi	a1,zero,0
   1acdc:	00048513          	addi	a0,s1,0
   1ace0:	cc8fd0ef          	jal	ra,181a8 <memchr>
   1ace4:	00a12623          	sw	a0,12(sp)
   1ace8:	e4050463          	beq	a0,zero,1a330 <_svfprintf_r+0x7ac>
   1acec:	40950bb3          	sub	s7,a0,s1
   1acf0:	00012623          	sw	zero,12(sp)
   1acf4:	e3cff06f          	jal	zero,1a330 <_svfprintf_r+0x7ac>
   1acf8:	00048513          	addi	a0,s1,0
   1acfc:	a61f70ef          	jal	ra,1275c <strlen>
   1ad00:	00050b93          	addi	s7,a0,0
   1ad04:	fedff06f          	jal	zero,1acf0 <_svfprintf_r+0x116c>
   1ad08:	01046413          	ori	s0,s0,16
   1ad0c:	02047793          	andi	a5,s0,32
   1ad10:	02078263          	beq	a5,zero,1ad34 <_svfprintf_r+0x11b0>
   1ad14:	007a8a93          	addi	s5,s5,7
   1ad18:	ff8afa93          	andi	s5,s5,-8
   1ad1c:	000aad03          	lw	s10,0(s5)
   1ad20:	004aad83          	lw	s11,4(s5)
   1ad24:	008a8793          	addi	a5,s5,8
   1ad28:	00f12c23          	sw	a5,24(sp)
   1ad2c:	00100793          	addi	a5,zero,1
   1ad30:	f11ff06f          	jal	zero,1ac40 <_svfprintf_r+0x10bc>
   1ad34:	004a8793          	addi	a5,s5,4
   1ad38:	00f12c23          	sw	a5,24(sp)
   1ad3c:	01047793          	andi	a5,s0,16
   1ad40:	00078663          	beq	a5,zero,1ad4c <_svfprintf_r+0x11c8>
   1ad44:	000aad03          	lw	s10,0(s5)
   1ad48:	0100006f          	jal	zero,1ad58 <_svfprintf_r+0x11d4>
   1ad4c:	04047793          	andi	a5,s0,64
   1ad50:	00078863          	beq	a5,zero,1ad60 <_svfprintf_r+0x11dc>
   1ad54:	000add03          	lhu	s10,0(s5)
   1ad58:	00000d93          	addi	s11,zero,0
   1ad5c:	fd1ff06f          	jal	zero,1ad2c <_svfprintf_r+0x11a8>
   1ad60:	20047793          	andi	a5,s0,512
   1ad64:	fe0780e3          	beq	a5,zero,1ad44 <_svfprintf_r+0x11c0>
   1ad68:	000acd03          	lbu	s10,0(s5)
   1ad6c:	fedff06f          	jal	zero,1ad58 <_svfprintf_r+0x11d4>
   1ad70:	000237b7          	lui	a5,0x23
   1ad74:	5ec78793          	addi	a5,a5,1516 # 235ec <zeroes.4514+0x34>
   1ad78:	04f12023          	sw	a5,64(sp)
   1ad7c:	02047793          	andi	a5,s0,32
   1ad80:	04078a63          	beq	a5,zero,1add4 <_svfprintf_r+0x1250>
   1ad84:	007a8a93          	addi	s5,s5,7
   1ad88:	ff8afa93          	andi	s5,s5,-8
   1ad8c:	000aad03          	lw	s10,0(s5)
   1ad90:	004aad83          	lw	s11,4(s5)
   1ad94:	008a8793          	addi	a5,s5,8
   1ad98:	00f12c23          	sw	a5,24(sp)
   1ad9c:	00147793          	andi	a5,s0,1
   1ada0:	00078e63          	beq	a5,zero,1adbc <_svfprintf_r+0x1238>
   1ada4:	01bd67b3          	or	a5,s10,s11
   1ada8:	00078a63          	beq	a5,zero,1adbc <_svfprintf_r+0x1238>
   1adac:	03000793          	addi	a5,zero,48
   1adb0:	0af10c23          	sb	a5,184(sp)
   1adb4:	0b610ca3          	sb	s6,185(sp)
   1adb8:	00246413          	ori	s0,s0,2
   1adbc:	bff47413          	andi	s0,s0,-1025
   1adc0:	00200793          	addi	a5,zero,2
   1adc4:	e7dff06f          	jal	zero,1ac40 <_svfprintf_r+0x10bc>
   1adc8:	000237b7          	lui	a5,0x23
   1adcc:	5d878793          	addi	a5,a5,1496 # 235d8 <zeroes.4514+0x20>
   1add0:	fa9ff06f          	jal	zero,1ad78 <_svfprintf_r+0x11f4>
   1add4:	004a8793          	addi	a5,s5,4
   1add8:	00f12c23          	sw	a5,24(sp)
   1addc:	01047793          	andi	a5,s0,16
   1ade0:	00078663          	beq	a5,zero,1adec <_svfprintf_r+0x1268>
   1ade4:	000aad03          	lw	s10,0(s5)
   1ade8:	0100006f          	jal	zero,1adf8 <_svfprintf_r+0x1274>
   1adec:	04047793          	andi	a5,s0,64
   1adf0:	00078863          	beq	a5,zero,1ae00 <_svfprintf_r+0x127c>
   1adf4:	000add03          	lhu	s10,0(s5)
   1adf8:	00000d93          	addi	s11,zero,0
   1adfc:	fa1ff06f          	jal	zero,1ad9c <_svfprintf_r+0x1218>
   1ae00:	20047793          	andi	a5,s0,512
   1ae04:	fe0780e3          	beq	a5,zero,1ade4 <_svfprintf_r+0x1260>
   1ae08:	000acd03          	lbu	s10,0(s5)
   1ae0c:	fedff06f          	jal	zero,1adf8 <_svfprintf_r+0x1274>
   1ae10:	00040713          	addi	a4,s0,0
   1ae14:	00100793          	addi	a5,zero,1
   1ae18:	c08ff06f          	jal	zero,1a220 <_svfprintf_r+0x69c>
   1ae1c:	00100713          	addi	a4,zero,1
   1ae20:	4ae780e3          	beq	a5,a4,1bac0 <_svfprintf_r+0x1f3c>
   1ae24:	00200713          	addi	a4,zero,2
   1ae28:	12e78a63          	beq	a5,a4,1af5c <_svfprintf_r+0x13d8>
   1ae2c:	1a010793          	addi	a5,sp,416
   1ae30:	01dd9693          	slli	a3,s11,0x1d
   1ae34:	007d7713          	andi	a4,s10,7
   1ae38:	003d5d13          	srli	s10,s10,0x3
   1ae3c:	03070713          	addi	a4,a4,48
   1ae40:	01a6ed33          	or	s10,a3,s10
   1ae44:	003ddd93          	srli	s11,s11,0x3
   1ae48:	fee78fa3          	sb	a4,-1(a5)
   1ae4c:	01bd66b3          	or	a3,s10,s11
   1ae50:	fff78493          	addi	s1,a5,-1
   1ae54:	02069e63          	bne	a3,zero,1ae90 <_svfprintf_r+0x130c>
   1ae58:	00147693          	andi	a3,s0,1
   1ae5c:	00068a63          	beq	a3,zero,1ae70 <_svfprintf_r+0x12ec>
   1ae60:	03000693          	addi	a3,zero,48
   1ae64:	00d70663          	beq	a4,a3,1ae70 <_svfprintf_r+0x12ec>
   1ae68:	fed48fa3          	sb	a3,-1(s1)
   1ae6c:	ffe78493          	addi	s1,a5,-2
   1ae70:	1a010793          	addi	a5,sp,416
   1ae74:	000b8713          	addi	a4,s7,0
   1ae78:	00012623          	sw	zero,12(sp)
   1ae7c:	40978bb3          	sub	s7,a5,s1
   1ae80:	00000d13          	addi	s10,zero,0
   1ae84:	00000c93          	addi	s9,zero,0
   1ae88:	00000d93          	addi	s11,zero,0
   1ae8c:	88cff06f          	jal	zero,19f18 <_svfprintf_r+0x394>
   1ae90:	00048793          	addi	a5,s1,0
   1ae94:	f9dff06f          	jal	zero,1ae30 <_svfprintf_r+0x12ac>
   1ae98:	40047713          	andi	a4,s0,1024
   1ae9c:	00000a13          	addi	s4,zero,0
   1aea0:	1a010793          	addi	a5,sp,416
   1aea4:	00e12623          	sw	a4,12(sp)
   1aea8:	0ff00c93          	addi	s9,zero,255
   1aeac:	00900a93          	addi	s5,zero,9
   1aeb0:	00a00613          	addi	a2,zero,10
   1aeb4:	00000693          	addi	a3,zero,0
   1aeb8:	000d0513          	addi	a0,s10,0
   1aebc:	000d8593          	addi	a1,s11,0
   1aec0:	fff78493          	addi	s1,a5,-1
   1aec4:	02f12623          	sw	a5,44(sp)
   1aec8:	0c5030ef          	jal	ra,1e78c <__umoddi3>
   1aecc:	02c12783          	lw	a5,44(sp)
   1aed0:	03050513          	addi	a0,a0,48
   1aed4:	001a0a13          	addi	s4,s4,1
   1aed8:	fea78fa3          	sb	a0,-1(a5)
   1aedc:	00c12783          	lw	a5,12(sp)
   1aee0:	04078863          	beq	a5,zero,1af30 <_svfprintf_r+0x13ac>
   1aee4:	01012783          	lw	a5,16(sp)
   1aee8:	0007c783          	lbu	a5,0(a5)
   1aeec:	04fa1263          	bne	s4,a5,1af30 <_svfprintf_r+0x13ac>
   1aef0:	059a0063          	beq	s4,s9,1af30 <_svfprintf_r+0x13ac>
   1aef4:	000d9463          	bne	s11,zero,1aefc <_svfprintf_r+0x1378>
   1aef8:	03aafc63          	bgeu	s5,s10,1af30 <_svfprintf_r+0x13ac>
   1aefc:	03012783          	lw	a5,48(sp)
   1af00:	03812583          	lw	a1,56(sp)
   1af04:	00000a13          	addi	s4,zero,0
   1af08:	40f484b3          	sub	s1,s1,a5
   1af0c:	00078613          	addi	a2,a5,0
   1af10:	00048513          	addi	a0,s1,0
   1af14:	c39fe0ef          	jal	ra,19b4c <strncpy>
   1af18:	01012783          	lw	a5,16(sp)
   1af1c:	0017c783          	lbu	a5,1(a5)
   1af20:	00078863          	beq	a5,zero,1af30 <_svfprintf_r+0x13ac>
   1af24:	01012783          	lw	a5,16(sp)
   1af28:	00178793          	addi	a5,a5,1
   1af2c:	00f12823          	sw	a5,16(sp)
   1af30:	00a00613          	addi	a2,zero,10
   1af34:	00000693          	addi	a3,zero,0
   1af38:	000d0513          	addi	a0,s10,0
   1af3c:	000d8593          	addi	a1,s11,0
   1af40:	278030ef          	jal	ra,1e1b8 <__udivdi3>
   1af44:	000d9463          	bne	s11,zero,1af4c <_svfprintf_r+0x13c8>
   1af48:	f3aaf4e3          	bgeu	s5,s10,1ae70 <_svfprintf_r+0x12ec>
   1af4c:	00050d13          	addi	s10,a0,0
   1af50:	00058d93          	addi	s11,a1,0
   1af54:	00048793          	addi	a5,s1,0
   1af58:	f59ff06f          	jal	zero,1aeb0 <_svfprintf_r+0x132c>
   1af5c:	1a010493          	addi	s1,sp,416
   1af60:	04012703          	lw	a4,64(sp)
   1af64:	00fd7793          	andi	a5,s10,15
   1af68:	fff48493          	addi	s1,s1,-1
   1af6c:	00f707b3          	add	a5,a4,a5
   1af70:	0007c783          	lbu	a5,0(a5)
   1af74:	004d5d13          	srli	s10,s10,0x4
   1af78:	00f48023          	sb	a5,0(s1)
   1af7c:	01cd9793          	slli	a5,s11,0x1c
   1af80:	01a7ed33          	or	s10,a5,s10
   1af84:	004ddd93          	srli	s11,s11,0x4
   1af88:	01bd67b3          	or	a5,s10,s11
   1af8c:	fc079ae3          	bne	a5,zero,1af60 <_svfprintf_r+0x13dc>
   1af90:	ee1ff06f          	jal	zero,1ae70 <_svfprintf_r+0x12ec>
   1af94:	1a010493          	addi	s1,sp,416
   1af98:	ec079ce3          	bne	a5,zero,1ae70 <_svfprintf_r+0x12ec>
   1af9c:	00177713          	andi	a4,a4,1
   1afa0:	ec0708e3          	beq	a4,zero,1ae70 <_svfprintf_r+0x12ec>
   1afa4:	03000793          	addi	a5,zero,48
   1afa8:	18f10fa3          	sb	a5,415(sp)
   1afac:	3290006f          	jal	zero,1bad4 <_svfprintf_r+0x1f50>
   1afb0:	2e0b04e3          	beq	s6,zero,1ba98 <_svfprintf_r+0x1f14>
   1afb4:	13610e23          	sb	s6,316(sp)
   1afb8:	0a010ba3          	sb	zero,183(sp)
   1afbc:	01512c23          	sw	s5,24(sp)
   1afc0:	f3dfe06f          	jal	zero,19efc <_svfprintf_r+0x378>
   1afc4:	01058593          	addi	a1,a1,16
   1afc8:	01cc2223          	sw	t3,4(s8)
   1afcc:	0cb12e23          	sw	a1,220(sp)
   1afd0:	0cc12c23          	sw	a2,216(sp)
   1afd4:	02cede63          	bge	t4,a2,1b010 <_svfprintf_r+0x148c>
   1afd8:	0d410613          	addi	a2,sp,212
   1afdc:	00098593          	addi	a1,s3,0
   1afe0:	00090513          	addi	a0,s2,0
   1afe4:	04e12823          	sw	a4,80(sp)
   1afe8:	04d12423          	sw	a3,72(sp)
   1afec:	7d9010ef          	jal	ra,1cfc4 <__ssprint_r>
   1aff0:	240512e3          	bne	a0,zero,1ba34 <_svfprintf_r+0x1eb0>
   1aff4:	05012703          	lw	a4,80(sp)
   1aff8:	04812683          	lw	a3,72(sp)
   1affc:	000247b7          	lui	a5,0x24
   1b000:	0fc10513          	addi	a0,sp,252
   1b004:	00700e93          	addi	t4,zero,7
   1b008:	b2478813          	addi	a6,a5,-1244 # 23b24 <blanks.4498>
   1b00c:	01000e13          	addi	t3,zero,16
   1b010:	ff068693          	addi	a3,a3,-16
   1b014:	00050c13          	addi	s8,a0,0
   1b018:	f61fe06f          	jal	zero,19f78 <_svfprintf_r+0x3f4>
   1b01c:	01060613          	addi	a2,a2,16
   1b020:	010c2223          	sw	a6,4(s8)
   1b024:	0cc12e23          	sw	a2,220(sp)
   1b028:	0cd12c23          	sw	a3,216(sp)
   1b02c:	02de5663          	bge	t3,a3,1b058 <_svfprintf_r+0x14d4>
   1b030:	0d410613          	addi	a2,sp,212
   1b034:	00098593          	addi	a1,s3,0
   1b038:	00090513          	addi	a0,s2,0
   1b03c:	04e12223          	sw	a4,68(sp)
   1b040:	785010ef          	jal	ra,1cfc4 <__ssprint_r>
   1b044:	1e0518e3          	bne	a0,zero,1ba34 <_svfprintf_r+0x1eb0>
   1b048:	04412703          	lw	a4,68(sp)
   1b04c:	0fc10593          	addi	a1,sp,252
   1b050:	00700e13          	addi	t3,zero,7
   1b054:	01000813          	addi	a6,zero,16
   1b058:	ff0a8a93          	addi	s5,s5,-16
   1b05c:	00058c13          	addi	s8,a1,0
   1b060:	854ff06f          	jal	zero,1a0b4 <_svfprintf_r+0x530>
   1b064:	01070713          	addi	a4,a4,16
   1b068:	010c2223          	sw	a6,4(s8)
   1b06c:	0ce12e23          	sw	a4,220(sp)
   1b070:	0cd12c23          	sw	a3,216(sp)
   1b074:	02de5263          	bge	t3,a3,1b098 <_svfprintf_r+0x1514>
   1b078:	0d410613          	addi	a2,sp,212
   1b07c:	00098593          	addi	a1,s3,0
   1b080:	00090513          	addi	a0,s2,0
   1b084:	741010ef          	jal	ra,1cfc4 <__ssprint_r>
   1b088:	1a0516e3          	bne	a0,zero,1ba34 <_svfprintf_r+0x1eb0>
   1b08c:	0fc10613          	addi	a2,sp,252
   1b090:	00700e13          	addi	t3,zero,7
   1b094:	01000813          	addi	a6,zero,16
   1b098:	ff0a8a93          	addi	s5,s5,-16
   1b09c:	00060c13          	addi	s8,a2,0
   1b0a0:	880ff06f          	jal	zero,1a120 <_svfprintf_r+0x59c>
   1b0a4:	06500693          	addi	a3,zero,101
   1b0a8:	7366d463          	bge	a3,s6,1b7d0 <_svfprintf_r+0x1c4c>
   1b0ac:	0e012683          	lw	a3,224(sp)
   1b0b0:	09010593          	addi	a1,sp,144
   1b0b4:	0a010513          	addi	a0,sp,160
   1b0b8:	0ad12023          	sw	a3,160(sp)
   1b0bc:	0e412683          	lw	a3,228(sp)
   1b0c0:	04e12223          	sw	a4,68(sp)
   1b0c4:	08012823          	sw	zero,144(sp)
   1b0c8:	0ad12223          	sw	a3,164(sp)
   1b0cc:	0e812683          	lw	a3,232(sp)
   1b0d0:	08012a23          	sw	zero,148(sp)
   1b0d4:	08012c23          	sw	zero,152(sp)
   1b0d8:	0ad12423          	sw	a3,168(sp)
   1b0dc:	0ec12683          	lw	a3,236(sp)
   1b0e0:	08012e23          	sw	zero,156(sp)
   1b0e4:	0ad12623          	sw	a3,172(sp)
   1b0e8:	1d9040ef          	jal	ra,1fac0 <__eqtf2>
   1b0ec:	04412703          	lw	a4,68(sp)
   1b0f0:	12051a63          	bne	a0,zero,1b224 <_svfprintf_r+0x16a0>
   1b0f4:	000237b7          	lui	a5,0x23
   1b0f8:	60078793          	addi	a5,a5,1536 # 23600 <zeroes.4514+0x48>
   1b0fc:	00fc2023          	sw	a5,0(s8)
   1b100:	00100793          	addi	a5,zero,1
   1b104:	00fc2223          	sw	a5,4(s8)
   1b108:	0d812783          	lw	a5,216(sp)
   1b10c:	00170713          	addi	a4,a4,1
   1b110:	0ce12e23          	sw	a4,220(sp)
   1b114:	00178793          	addi	a5,a5,1
   1b118:	0cf12c23          	sw	a5,216(sp)
   1b11c:	00700713          	addi	a4,zero,7
   1b120:	008c0c13          	addi	s8,s8,8
   1b124:	00f75e63          	bge	a4,a5,1b140 <_svfprintf_r+0x15bc>
   1b128:	0d410613          	addi	a2,sp,212
   1b12c:	00098593          	addi	a1,s3,0
   1b130:	00090513          	addi	a0,s2,0
   1b134:	691010ef          	jal	ra,1cfc4 <__ssprint_r>
   1b138:	0e051ee3          	bne	a0,zero,1ba34 <_svfprintf_r+0x1eb0>
   1b13c:	0fc10c13          	addi	s8,sp,252
   1b140:	0bc12783          	lw	a5,188(sp)
   1b144:	0147c663          	blt	a5,s4,1b150 <_svfprintf_r+0x15cc>
   1b148:	00147793          	andi	a5,s0,1
   1b14c:	22078063          	beq	a5,zero,1b36c <_svfprintf_r+0x17e8>
   1b150:	03412783          	lw	a5,52(sp)
   1b154:	02012703          	lw	a4,32(sp)
   1b158:	008c0c13          	addi	s8,s8,8
   1b15c:	fefc2c23          	sw	a5,-8(s8)
   1b160:	02012783          	lw	a5,32(sp)
   1b164:	fefc2e23          	sw	a5,-4(s8)
   1b168:	0dc12783          	lw	a5,220(sp)
   1b16c:	00e787b3          	add	a5,a5,a4
   1b170:	0cf12e23          	sw	a5,220(sp)
   1b174:	0d812783          	lw	a5,216(sp)
   1b178:	00700713          	addi	a4,zero,7
   1b17c:	00178793          	addi	a5,a5,1
   1b180:	0cf12c23          	sw	a5,216(sp)
   1b184:	00f75e63          	bge	a4,a5,1b1a0 <_svfprintf_r+0x161c>
   1b188:	0d410613          	addi	a2,sp,212
   1b18c:	00098593          	addi	a1,s3,0
   1b190:	00090513          	addi	a0,s2,0
   1b194:	631010ef          	jal	ra,1cfc4 <__ssprint_r>
   1b198:	08051ee3          	bne	a0,zero,1ba34 <_svfprintf_r+0x1eb0>
   1b19c:	0fc10c13          	addi	s8,sp,252
   1b1a0:	fffa0493          	addi	s1,s4,-1
   1b1a4:	1c905463          	bge	zero,s1,1b36c <_svfprintf_r+0x17e8>
   1b1a8:	01000a93          	addi	s5,zero,16
   1b1ac:	00700b13          	addi	s6,zero,7
   1b1b0:	01412603          	lw	a2,20(sp)
   1b1b4:	0d812783          	lw	a5,216(sp)
   1b1b8:	0dc12703          	lw	a4,220(sp)
   1b1bc:	00cc2023          	sw	a2,0(s8)
   1b1c0:	00178793          	addi	a5,a5,1
   1b1c4:	008c0693          	addi	a3,s8,8
   1b1c8:	029ac263          	blt	s5,s1,1b1ec <_svfprintf_r+0x1668>
   1b1cc:	009c2223          	sw	s1,4(s8)
   1b1d0:	00e484b3          	add	s1,s1,a4
   1b1d4:	0c912e23          	sw	s1,220(sp)
   1b1d8:	0cf12c23          	sw	a5,216(sp)
   1b1dc:	00700713          	addi	a4,zero,7
   1b1e0:	00068c13          	addi	s8,a3,0
   1b1e4:	18f75463          	bge	a4,a5,1b36c <_svfprintf_r+0x17e8>
   1b1e8:	fc5fe06f          	jal	zero,1a1ac <_svfprintf_r+0x628>
   1b1ec:	01070713          	addi	a4,a4,16
   1b1f0:	015c2223          	sw	s5,4(s8)
   1b1f4:	0ce12e23          	sw	a4,220(sp)
   1b1f8:	0cf12c23          	sw	a5,216(sp)
   1b1fc:	00fb5e63          	bge	s6,a5,1b218 <_svfprintf_r+0x1694>
   1b200:	0d410613          	addi	a2,sp,212
   1b204:	00098593          	addi	a1,s3,0
   1b208:	00090513          	addi	a0,s2,0
   1b20c:	5b9010ef          	jal	ra,1cfc4 <__ssprint_r>
   1b210:	020512e3          	bne	a0,zero,1ba34 <_svfprintf_r+0x1eb0>
   1b214:	0fc10693          	addi	a3,sp,252
   1b218:	ff048493          	addi	s1,s1,-16
   1b21c:	00068c13          	addi	s8,a3,0
   1b220:	f91ff06f          	jal	zero,1b1b0 <_svfprintf_r+0x162c>
   1b224:	0bc12683          	lw	a3,188(sp)
   1b228:	1cd04863          	blt	zero,a3,1b3f8 <_svfprintf_r+0x1874>
   1b22c:	000237b7          	lui	a5,0x23
   1b230:	60078793          	addi	a5,a5,1536 # 23600 <zeroes.4514+0x48>
   1b234:	00fc2023          	sw	a5,0(s8)
   1b238:	00100793          	addi	a5,zero,1
   1b23c:	00fc2223          	sw	a5,4(s8)
   1b240:	0d812783          	lw	a5,216(sp)
   1b244:	00170713          	addi	a4,a4,1
   1b248:	0ce12e23          	sw	a4,220(sp)
   1b24c:	00178793          	addi	a5,a5,1
   1b250:	0cf12c23          	sw	a5,216(sp)
   1b254:	00700713          	addi	a4,zero,7
   1b258:	008c0c13          	addi	s8,s8,8
   1b25c:	00f75e63          	bge	a4,a5,1b278 <_svfprintf_r+0x16f4>
   1b260:	0d410613          	addi	a2,sp,212
   1b264:	00098593          	addi	a1,s3,0
   1b268:	00090513          	addi	a0,s2,0
   1b26c:	559010ef          	jal	ra,1cfc4 <__ssprint_r>
   1b270:	7c051263          	bne	a0,zero,1ba34 <_svfprintf_r+0x1eb0>
   1b274:	0fc10c13          	addi	s8,sp,252
   1b278:	0bc12783          	lw	a5,188(sp)
   1b27c:	00147693          	andi	a3,s0,1
   1b280:	0dc12703          	lw	a4,220(sp)
   1b284:	00fa67b3          	or	a5,s4,a5
   1b288:	00d7e7b3          	or	a5,a5,a3
   1b28c:	0e078063          	beq	a5,zero,1b36c <_svfprintf_r+0x17e8>
   1b290:	03412783          	lw	a5,52(sp)
   1b294:	008c0893          	addi	a7,s8,8
   1b298:	00fc2023          	sw	a5,0(s8)
   1b29c:	02012783          	lw	a5,32(sp)
   1b2a0:	00fc2223          	sw	a5,4(s8)
   1b2a4:	00e787b3          	add	a5,a5,a4
   1b2a8:	0cf12e23          	sw	a5,220(sp)
   1b2ac:	0d812783          	lw	a5,216(sp)
   1b2b0:	00700713          	addi	a4,zero,7
   1b2b4:	00178793          	addi	a5,a5,1
   1b2b8:	0cf12c23          	sw	a5,216(sp)
   1b2bc:	00f75e63          	bge	a4,a5,1b2d8 <_svfprintf_r+0x1754>
   1b2c0:	0d410613          	addi	a2,sp,212
   1b2c4:	00098593          	addi	a1,s3,0
   1b2c8:	00090513          	addi	a0,s2,0
   1b2cc:	4f9010ef          	jal	ra,1cfc4 <__ssprint_r>
   1b2d0:	76051263          	bne	a0,zero,1ba34 <_svfprintf_r+0x1eb0>
   1b2d4:	0fc10893          	addi	a7,sp,252
   1b2d8:	0bc12a83          	lw	s5,188(sp)
   1b2dc:	060ad063          	bge	s5,zero,1b33c <_svfprintf_r+0x17b8>
   1b2e0:	41500ab3          	sub	s5,zero,s5
   1b2e4:	00088713          	addi	a4,a7,0
   1b2e8:	01000b13          	addi	s6,zero,16
   1b2ec:	00700c93          	addi	s9,zero,7
   1b2f0:	01412603          	lw	a2,20(sp)
   1b2f4:	0d812783          	lw	a5,216(sp)
   1b2f8:	0dc12683          	lw	a3,220(sp)
   1b2fc:	00c72023          	sw	a2,0(a4)
   1b300:	00178793          	addi	a5,a5,1
   1b304:	00888893          	addi	a7,a7,8
   1b308:	0b5b4c63          	blt	s6,s5,1b3c0 <_svfprintf_r+0x183c>
   1b30c:	01572223          	sw	s5,4(a4)
   1b310:	00da8ab3          	add	s5,s5,a3
   1b314:	0d512e23          	sw	s5,220(sp)
   1b318:	0cf12c23          	sw	a5,216(sp)
   1b31c:	00700713          	addi	a4,zero,7
   1b320:	00f75e63          	bge	a4,a5,1b33c <_svfprintf_r+0x17b8>
   1b324:	0d410613          	addi	a2,sp,212
   1b328:	00098593          	addi	a1,s3,0
   1b32c:	00090513          	addi	a0,s2,0
   1b330:	495010ef          	jal	ra,1cfc4 <__ssprint_r>
   1b334:	70051063          	bne	a0,zero,1ba34 <_svfprintf_r+0x1eb0>
   1b338:	0fc10893          	addi	a7,sp,252
   1b33c:	0dc12783          	lw	a5,220(sp)
   1b340:	0098a023          	sw	s1,0(a7)
   1b344:	0148a223          	sw	s4,4(a7)
   1b348:	014787b3          	add	a5,a5,s4
   1b34c:	0cf12e23          	sw	a5,220(sp)
   1b350:	0d812783          	lw	a5,216(sp)
   1b354:	00700713          	addi	a4,zero,7
   1b358:	00888c13          	addi	s8,a7,8
   1b35c:	00178793          	addi	a5,a5,1
   1b360:	0cf12c23          	sw	a5,216(sp)
   1b364:	00f75463          	bge	a4,a5,1b36c <_svfprintf_r+0x17e8>
   1b368:	e45fe06f          	jal	zero,1a1ac <_svfprintf_r+0x628>
   1b36c:	00447413          	andi	s0,s0,4
   1b370:	66041263          	bne	s0,zero,1b9d4 <_svfprintf_r+0x1e50>
   1b374:	02812b03          	lw	s6,40(sp)
   1b378:	02c12783          	lw	a5,44(sp)
   1b37c:	00fb5463          	bge	s6,a5,1b384 <_svfprintf_r+0x1800>
   1b380:	00078b13          	addi	s6,a5,0
   1b384:	02412783          	lw	a5,36(sp)
   1b388:	016787b3          	add	a5,a5,s6
   1b38c:	02f12223          	sw	a5,36(sp)
   1b390:	0dc12783          	lw	a5,220(sp)
   1b394:	00078c63          	beq	a5,zero,1b3ac <_svfprintf_r+0x1828>
   1b398:	0d410613          	addi	a2,sp,212
   1b39c:	00098593          	addi	a1,s3,0
   1b3a0:	00090513          	addi	a0,s2,0
   1b3a4:	421010ef          	jal	ra,1cfc4 <__ssprint_r>
   1b3a8:	68051663          	bne	a0,zero,1ba34 <_svfprintf_r+0x1eb0>
   1b3ac:	00c12783          	lw	a5,12(sp)
   1b3b0:	0c012c23          	sw	zero,216(sp)
   1b3b4:	6c079a63          	bne	a5,zero,1ba88 <_svfprintf_r+0x1f04>
   1b3b8:	0fc10c13          	addi	s8,sp,252
   1b3bc:	811ff06f          	jal	zero,1abcc <_svfprintf_r+0x1048>
   1b3c0:	01068693          	addi	a3,a3,16
   1b3c4:	01672223          	sw	s6,4(a4)
   1b3c8:	0cd12e23          	sw	a3,220(sp)
   1b3cc:	0cf12c23          	sw	a5,216(sp)
   1b3d0:	00fcde63          	bge	s9,a5,1b3ec <_svfprintf_r+0x1868>
   1b3d4:	0d410613          	addi	a2,sp,212
   1b3d8:	00098593          	addi	a1,s3,0
   1b3dc:	00090513          	addi	a0,s2,0
   1b3e0:	3e5010ef          	jal	ra,1cfc4 <__ssprint_r>
   1b3e4:	64051863          	bne	a0,zero,1ba34 <_svfprintf_r+0x1eb0>
   1b3e8:	0fc10893          	addi	a7,sp,252
   1b3ec:	ff0a8a93          	addi	s5,s5,-16
   1b3f0:	00088713          	addi	a4,a7,0
   1b3f4:	efdff06f          	jal	zero,1b2f0 <_svfprintf_r+0x176c>
   1b3f8:	000d8a93          	addi	s5,s11,0
   1b3fc:	01ba5463          	bge	s4,s11,1b404 <_svfprintf_r+0x1880>
   1b400:	000a0a93          	addi	s5,s4,0
   1b404:	05505263          	bge	zero,s5,1b448 <_svfprintf_r+0x18c4>
   1b408:	00ea8733          	add	a4,s5,a4
   1b40c:	0ce12e23          	sw	a4,220(sp)
   1b410:	0d812703          	lw	a4,216(sp)
   1b414:	009c2023          	sw	s1,0(s8)
   1b418:	015c2223          	sw	s5,4(s8)
   1b41c:	00170713          	addi	a4,a4,1
   1b420:	0ce12c23          	sw	a4,216(sp)
   1b424:	00700693          	addi	a3,zero,7
   1b428:	008c0c13          	addi	s8,s8,8
   1b42c:	00e6de63          	bge	a3,a4,1b448 <_svfprintf_r+0x18c4>
   1b430:	0d410613          	addi	a2,sp,212
   1b434:	00098593          	addi	a1,s3,0
   1b438:	00090513          	addi	a0,s2,0
   1b43c:	389010ef          	jal	ra,1cfc4 <__ssprint_r>
   1b440:	5e051a63          	bne	a0,zero,1ba34 <_svfprintf_r+0x1eb0>
   1b444:	0fc10c13          	addi	s8,sp,252
   1b448:	000ad463          	bge	s5,zero,1b450 <_svfprintf_r+0x18cc>
   1b44c:	00000a93          	addi	s5,zero,0
   1b450:	415d8ab3          	sub	s5,s11,s5
   1b454:	05505e63          	bge	zero,s5,1b4b0 <_svfprintf_r+0x192c>
   1b458:	01000b13          	addi	s6,zero,16
   1b45c:	00700b93          	addi	s7,zero,7
   1b460:	01412783          	lw	a5,20(sp)
   1b464:	0d812703          	lw	a4,216(sp)
   1b468:	0dc12683          	lw	a3,220(sp)
   1b46c:	00fc2023          	sw	a5,0(s8)
   1b470:	00170713          	addi	a4,a4,1
   1b474:	008c0613          	addi	a2,s8,8
   1b478:	195b4c63          	blt	s6,s5,1b610 <_svfprintf_r+0x1a8c>
   1b47c:	015c2223          	sw	s5,4(s8)
   1b480:	00da8ab3          	add	s5,s5,a3
   1b484:	0d512e23          	sw	s5,220(sp)
   1b488:	0ce12c23          	sw	a4,216(sp)
   1b48c:	00700693          	addi	a3,zero,7
   1b490:	00060c13          	addi	s8,a2,0
   1b494:	00e6de63          	bge	a3,a4,1b4b0 <_svfprintf_r+0x192c>
   1b498:	0d410613          	addi	a2,sp,212
   1b49c:	00098593          	addi	a1,s3,0
   1b4a0:	00090513          	addi	a0,s2,0
   1b4a4:	321010ef          	jal	ra,1cfc4 <__ssprint_r>
   1b4a8:	58051663          	bne	a0,zero,1ba34 <_svfprintf_r+0x1eb0>
   1b4ac:	0fc10c13          	addi	s8,sp,252
   1b4b0:	40047793          	andi	a5,s0,1024
   1b4b4:	01b48ab3          	add	s5,s1,s11
   1b4b8:	02078063          	beq	a5,zero,1b4d8 <_svfprintf_r+0x1954>
   1b4bc:	00700b13          	addi	s6,zero,7
   1b4c0:	01448bb3          	add	s7,s1,s4
   1b4c4:	180c9263          	bne	s9,zero,1b648 <_svfprintf_r+0x1ac4>
   1b4c8:	180d1263          	bne	s10,zero,1b64c <_svfprintf_r+0x1ac8>
   1b4cc:	014487b3          	add	a5,s1,s4
   1b4d0:	0157f463          	bgeu	a5,s5,1b4d8 <_svfprintf_r+0x1954>
   1b4d4:	00078a93          	addi	s5,a5,0
   1b4d8:	0bc12783          	lw	a5,188(sp)
   1b4dc:	0147c663          	blt	a5,s4,1b4e8 <_svfprintf_r+0x1964>
   1b4e0:	00147793          	andi	a5,s0,1
   1b4e4:	04078a63          	beq	a5,zero,1b538 <_svfprintf_r+0x19b4>
   1b4e8:	03412783          	lw	a5,52(sp)
   1b4ec:	02012703          	lw	a4,32(sp)
   1b4f0:	008c0c13          	addi	s8,s8,8
   1b4f4:	fefc2c23          	sw	a5,-8(s8)
   1b4f8:	02012783          	lw	a5,32(sp)
   1b4fc:	fefc2e23          	sw	a5,-4(s8)
   1b500:	0dc12783          	lw	a5,220(sp)
   1b504:	00e787b3          	add	a5,a5,a4
   1b508:	0cf12e23          	sw	a5,220(sp)
   1b50c:	0d812783          	lw	a5,216(sp)
   1b510:	00700713          	addi	a4,zero,7
   1b514:	00178793          	addi	a5,a5,1
   1b518:	0cf12c23          	sw	a5,216(sp)
   1b51c:	00f75e63          	bge	a4,a5,1b538 <_svfprintf_r+0x19b4>
   1b520:	0d410613          	addi	a2,sp,212
   1b524:	00098593          	addi	a1,s3,0
   1b528:	00090513          	addi	a0,s2,0
   1b52c:	299010ef          	jal	ra,1cfc4 <__ssprint_r>
   1b530:	50051263          	bne	a0,zero,1ba34 <_svfprintf_r+0x1eb0>
   1b534:	0fc10c13          	addi	s8,sp,252
   1b538:	014484b3          	add	s1,s1,s4
   1b53c:	415487b3          	sub	a5,s1,s5
   1b540:	0bc12483          	lw	s1,188(sp)
   1b544:	409a04b3          	sub	s1,s4,s1
   1b548:	0097d463          	bge	a5,s1,1b550 <_svfprintf_r+0x19cc>
   1b54c:	00078493          	addi	s1,a5,0
   1b550:	04905463          	bge	zero,s1,1b598 <_svfprintf_r+0x1a14>
   1b554:	0dc12783          	lw	a5,220(sp)
   1b558:	015c2023          	sw	s5,0(s8)
   1b55c:	009c2223          	sw	s1,4(s8)
   1b560:	00f487b3          	add	a5,s1,a5
   1b564:	0cf12e23          	sw	a5,220(sp)
   1b568:	0d812783          	lw	a5,216(sp)
   1b56c:	00700713          	addi	a4,zero,7
   1b570:	008c0c13          	addi	s8,s8,8
   1b574:	00178793          	addi	a5,a5,1
   1b578:	0cf12c23          	sw	a5,216(sp)
   1b57c:	00f75e63          	bge	a4,a5,1b598 <_svfprintf_r+0x1a14>
   1b580:	0d410613          	addi	a2,sp,212
   1b584:	00098593          	addi	a1,s3,0
   1b588:	00090513          	addi	a0,s2,0
   1b58c:	239010ef          	jal	ra,1cfc4 <__ssprint_r>
   1b590:	4a051263          	bne	a0,zero,1ba34 <_svfprintf_r+0x1eb0>
   1b594:	0fc10c13          	addi	s8,sp,252
   1b598:	00048793          	addi	a5,s1,0
   1b59c:	0004d463          	bge	s1,zero,1b5a4 <_svfprintf_r+0x1a20>
   1b5a0:	00000793          	addi	a5,zero,0
   1b5a4:	0bc12483          	lw	s1,188(sp)
   1b5a8:	409a04b3          	sub	s1,s4,s1
   1b5ac:	40f484b3          	sub	s1,s1,a5
   1b5b0:	da905ee3          	bge	zero,s1,1b36c <_svfprintf_r+0x17e8>
   1b5b4:	01000a93          	addi	s5,zero,16
   1b5b8:	00700b13          	addi	s6,zero,7
   1b5bc:	01412603          	lw	a2,20(sp)
   1b5c0:	0d812783          	lw	a5,216(sp)
   1b5c4:	0dc12703          	lw	a4,220(sp)
   1b5c8:	00cc2023          	sw	a2,0(s8)
   1b5cc:	00178793          	addi	a5,a5,1
   1b5d0:	008c0693          	addi	a3,s8,8
   1b5d4:	be9adce3          	bge	s5,s1,1b1cc <_svfprintf_r+0x1648>
   1b5d8:	01070713          	addi	a4,a4,16
   1b5dc:	015c2223          	sw	s5,4(s8)
   1b5e0:	0ce12e23          	sw	a4,220(sp)
   1b5e4:	0cf12c23          	sw	a5,216(sp)
   1b5e8:	00fb5e63          	bge	s6,a5,1b604 <_svfprintf_r+0x1a80>
   1b5ec:	0d410613          	addi	a2,sp,212
   1b5f0:	00098593          	addi	a1,s3,0
   1b5f4:	00090513          	addi	a0,s2,0
   1b5f8:	1cd010ef          	jal	ra,1cfc4 <__ssprint_r>
   1b5fc:	42051c63          	bne	a0,zero,1ba34 <_svfprintf_r+0x1eb0>
   1b600:	0fc10693          	addi	a3,sp,252
   1b604:	ff048493          	addi	s1,s1,-16
   1b608:	00068c13          	addi	s8,a3,0
   1b60c:	fb1ff06f          	jal	zero,1b5bc <_svfprintf_r+0x1a38>
   1b610:	01068693          	addi	a3,a3,16
   1b614:	016c2223          	sw	s6,4(s8)
   1b618:	0cd12e23          	sw	a3,220(sp)
   1b61c:	0ce12c23          	sw	a4,216(sp)
   1b620:	00ebde63          	bge	s7,a4,1b63c <_svfprintf_r+0x1ab8>
   1b624:	0d410613          	addi	a2,sp,212
   1b628:	00098593          	addi	a1,s3,0
   1b62c:	00090513          	addi	a0,s2,0
   1b630:	195010ef          	jal	ra,1cfc4 <__ssprint_r>
   1b634:	40051063          	bne	a0,zero,1ba34 <_svfprintf_r+0x1eb0>
   1b638:	0fc10613          	addi	a2,sp,252
   1b63c:	ff0a8a93          	addi	s5,s5,-16
   1b640:	00060c13          	addi	s8,a2,0
   1b644:	e1dff06f          	jal	zero,1b460 <_svfprintf_r+0x18dc>
   1b648:	0e0d0263          	beq	s10,zero,1b72c <_svfprintf_r+0x1ba8>
   1b64c:	fffd0d13          	addi	s10,s10,-1
   1b650:	03812783          	lw	a5,56(sp)
   1b654:	03012703          	lw	a4,48(sp)
   1b658:	008c0c13          	addi	s8,s8,8
   1b65c:	fefc2c23          	sw	a5,-8(s8)
   1b660:	03012783          	lw	a5,48(sp)
   1b664:	fefc2e23          	sw	a5,-4(s8)
   1b668:	0dc12783          	lw	a5,220(sp)
   1b66c:	00e787b3          	add	a5,a5,a4
   1b670:	0cf12e23          	sw	a5,220(sp)
   1b674:	0d812783          	lw	a5,216(sp)
   1b678:	00178793          	addi	a5,a5,1
   1b67c:	0cf12c23          	sw	a5,216(sp)
   1b680:	00fb5e63          	bge	s6,a5,1b69c <_svfprintf_r+0x1b18>
   1b684:	0d410613          	addi	a2,sp,212
   1b688:	00098593          	addi	a1,s3,0
   1b68c:	00090513          	addi	a0,s2,0
   1b690:	135010ef          	jal	ra,1cfc4 <__ssprint_r>
   1b694:	3a051063          	bne	a0,zero,1ba34 <_svfprintf_r+0x1eb0>
   1b698:	0fc10c13          	addi	s8,sp,252
   1b69c:	01012783          	lw	a5,16(sp)
   1b6a0:	415b8733          	sub	a4,s7,s5
   1b6a4:	0007c783          	lbu	a5,0(a5)
   1b6a8:	00f75463          	bge	a4,a5,1b6b0 <_svfprintf_r+0x1b2c>
   1b6ac:	00070793          	addi	a5,a4,0
   1b6b0:	04f05663          	bge	zero,a5,1b6fc <_svfprintf_r+0x1b78>
   1b6b4:	0dc12703          	lw	a4,220(sp)
   1b6b8:	015c2023          	sw	s5,0(s8)
   1b6bc:	00fc2223          	sw	a5,4(s8)
   1b6c0:	00e78733          	add	a4,a5,a4
   1b6c4:	0ce12e23          	sw	a4,220(sp)
   1b6c8:	0d812703          	lw	a4,216(sp)
   1b6cc:	008c0c13          	addi	s8,s8,8
   1b6d0:	00170713          	addi	a4,a4,1
   1b6d4:	0ce12c23          	sw	a4,216(sp)
   1b6d8:	02eb5263          	bge	s6,a4,1b6fc <_svfprintf_r+0x1b78>
   1b6dc:	0d410613          	addi	a2,sp,212
   1b6e0:	00098593          	addi	a1,s3,0
   1b6e4:	00090513          	addi	a0,s2,0
   1b6e8:	04f12223          	sw	a5,68(sp)
   1b6ec:	0d9010ef          	jal	ra,1cfc4 <__ssprint_r>
   1b6f0:	34051263          	bne	a0,zero,1ba34 <_svfprintf_r+0x1eb0>
   1b6f4:	04412783          	lw	a5,68(sp)
   1b6f8:	0fc10c13          	addi	s8,sp,252
   1b6fc:	00078713          	addi	a4,a5,0
   1b700:	0007d463          	bge	a5,zero,1b708 <_svfprintf_r+0x1b84>
   1b704:	00000713          	addi	a4,zero,0
   1b708:	01012783          	lw	a5,16(sp)
   1b70c:	01000813          	addi	a6,zero,16
   1b710:	0007c783          	lbu	a5,0(a5)
   1b714:	40e787b3          	sub	a5,a5,a4
   1b718:	06f04463          	blt	zero,a5,1b780 <_svfprintf_r+0x1bfc>
   1b71c:	01012783          	lw	a5,16(sp)
   1b720:	0007c783          	lbu	a5,0(a5)
   1b724:	00fa8ab3          	add	s5,s5,a5
   1b728:	d9dff06f          	jal	zero,1b4c4 <_svfprintf_r+0x1940>
   1b72c:	01012783          	lw	a5,16(sp)
   1b730:	fffc8c93          	addi	s9,s9,-1
   1b734:	fff78793          	addi	a5,a5,-1
   1b738:	00f12823          	sw	a5,16(sp)
   1b73c:	f15ff06f          	jal	zero,1b650 <_svfprintf_r+0x1acc>
   1b740:	01068693          	addi	a3,a3,16
   1b744:	010c2223          	sw	a6,4(s8)
   1b748:	0cd12e23          	sw	a3,220(sp)
   1b74c:	0ce12c23          	sw	a4,216(sp)
   1b750:	02eb5463          	bge	s6,a4,1b778 <_svfprintf_r+0x1bf4>
   1b754:	0d410613          	addi	a2,sp,212
   1b758:	00098593          	addi	a1,s3,0
   1b75c:	00090513          	addi	a0,s2,0
   1b760:	04f12223          	sw	a5,68(sp)
   1b764:	061010ef          	jal	ra,1cfc4 <__ssprint_r>
   1b768:	2c051663          	bne	a0,zero,1ba34 <_svfprintf_r+0x1eb0>
   1b76c:	04412783          	lw	a5,68(sp)
   1b770:	0fc10613          	addi	a2,sp,252
   1b774:	01000813          	addi	a6,zero,16
   1b778:	ff078793          	addi	a5,a5,-16
   1b77c:	00060c13          	addi	s8,a2,0
   1b780:	01412583          	lw	a1,20(sp)
   1b784:	0d812703          	lw	a4,216(sp)
   1b788:	0dc12683          	lw	a3,220(sp)
   1b78c:	00bc2023          	sw	a1,0(s8)
   1b790:	00170713          	addi	a4,a4,1
   1b794:	008c0613          	addi	a2,s8,8
   1b798:	faf844e3          	blt	a6,a5,1b740 <_svfprintf_r+0x1bbc>
   1b79c:	00fc2223          	sw	a5,4(s8)
   1b7a0:	00d787b3          	add	a5,a5,a3
   1b7a4:	0cf12e23          	sw	a5,220(sp)
   1b7a8:	0ce12c23          	sw	a4,216(sp)
   1b7ac:	00060c13          	addi	s8,a2,0
   1b7b0:	f6eb56e3          	bge	s6,a4,1b71c <_svfprintf_r+0x1b98>
   1b7b4:	0d410613          	addi	a2,sp,212
   1b7b8:	00098593          	addi	a1,s3,0
   1b7bc:	00090513          	addi	a0,s2,0
   1b7c0:	005010ef          	jal	ra,1cfc4 <__ssprint_r>
   1b7c4:	26051863          	bne	a0,zero,1ba34 <_svfprintf_r+0x1eb0>
   1b7c8:	0fc10c13          	addi	s8,sp,252
   1b7cc:	f51ff06f          	jal	zero,1b71c <_svfprintf_r+0x1b98>
   1b7d0:	0d812783          	lw	a5,216(sp)
   1b7d4:	00100693          	addi	a3,zero,1
   1b7d8:	009c2023          	sw	s1,0(s8)
   1b7dc:	00170713          	addi	a4,a4,1
   1b7e0:	00178793          	addi	a5,a5,1
   1b7e4:	008c0a93          	addi	s5,s8,8
   1b7e8:	0146c663          	blt	a3,s4,1b7f4 <_svfprintf_r+0x1c70>
   1b7ec:	00147613          	andi	a2,s0,1
   1b7f0:	1c060663          	beq	a2,zero,1b9bc <_svfprintf_r+0x1e38>
   1b7f4:	00100693          	addi	a3,zero,1
   1b7f8:	0ce12e23          	sw	a4,220(sp)
   1b7fc:	00dc2223          	sw	a3,4(s8)
   1b800:	0cf12c23          	sw	a5,216(sp)
   1b804:	00700713          	addi	a4,zero,7
   1b808:	00f75e63          	bge	a4,a5,1b824 <_svfprintf_r+0x1ca0>
   1b80c:	0d410613          	addi	a2,sp,212
   1b810:	00098593          	addi	a1,s3,0
   1b814:	00090513          	addi	a0,s2,0
   1b818:	7ac010ef          	jal	ra,1cfc4 <__ssprint_r>
   1b81c:	20051c63          	bne	a0,zero,1ba34 <_svfprintf_r+0x1eb0>
   1b820:	0fc10a93          	addi	s5,sp,252
   1b824:	03412783          	lw	a5,52(sp)
   1b828:	02012703          	lw	a4,32(sp)
   1b82c:	008a8a93          	addi	s5,s5,8
   1b830:	fefaac23          	sw	a5,-8(s5)
   1b834:	02012783          	lw	a5,32(sp)
   1b838:	fefaae23          	sw	a5,-4(s5)
   1b83c:	0dc12783          	lw	a5,220(sp)
   1b840:	00e787b3          	add	a5,a5,a4
   1b844:	0cf12e23          	sw	a5,220(sp)
   1b848:	0d812783          	lw	a5,216(sp)
   1b84c:	00700713          	addi	a4,zero,7
   1b850:	00178793          	addi	a5,a5,1
   1b854:	0cf12c23          	sw	a5,216(sp)
   1b858:	00f75e63          	bge	a4,a5,1b874 <_svfprintf_r+0x1cf0>
   1b85c:	0d410613          	addi	a2,sp,212
   1b860:	00098593          	addi	a1,s3,0
   1b864:	00090513          	addi	a0,s2,0
   1b868:	75c010ef          	jal	ra,1cfc4 <__ssprint_r>
   1b86c:	1c051463          	bne	a0,zero,1ba34 <_svfprintf_r+0x1eb0>
   1b870:	0fc10a93          	addi	s5,sp,252
   1b874:	0e012783          	lw	a5,224(sp)
   1b878:	09010593          	addi	a1,sp,144
   1b87c:	0a010513          	addi	a0,sp,160
   1b880:	0af12023          	sw	a5,160(sp)
   1b884:	0e412783          	lw	a5,228(sp)
   1b888:	fffa0b13          	addi	s6,s4,-1
   1b88c:	08012823          	sw	zero,144(sp)
   1b890:	0af12223          	sw	a5,164(sp)
   1b894:	0e812783          	lw	a5,232(sp)
   1b898:	08012a23          	sw	zero,148(sp)
   1b89c:	08012c23          	sw	zero,152(sp)
   1b8a0:	0af12423          	sw	a5,168(sp)
   1b8a4:	0ec12783          	lw	a5,236(sp)
   1b8a8:	08012e23          	sw	zero,156(sp)
   1b8ac:	0af12623          	sw	a5,172(sp)
   1b8b0:	210040ef          	jal	ra,1fac0 <__eqtf2>
   1b8b4:	08050663          	beq	a0,zero,1b940 <_svfprintf_r+0x1dbc>
   1b8b8:	0dc12783          	lw	a5,220(sp)
   1b8bc:	0d812703          	lw	a4,216(sp)
   1b8c0:	00148493          	addi	s1,s1,1
   1b8c4:	fff78793          	addi	a5,a5,-1
   1b8c8:	014787b3          	add	a5,a5,s4
   1b8cc:	00170713          	addi	a4,a4,1
   1b8d0:	009aa023          	sw	s1,0(s5)
   1b8d4:	016aa223          	sw	s6,4(s5)
   1b8d8:	0cf12e23          	sw	a5,220(sp)
   1b8dc:	0ce12c23          	sw	a4,216(sp)
   1b8e0:	00700793          	addi	a5,zero,7
   1b8e4:	008a8a93          	addi	s5,s5,8
   1b8e8:	00e7de63          	bge	a5,a4,1b904 <_svfprintf_r+0x1d80>
   1b8ec:	0d410613          	addi	a2,sp,212
   1b8f0:	00098593          	addi	a1,s3,0
   1b8f4:	00090513          	addi	a0,s2,0
   1b8f8:	6cc010ef          	jal	ra,1cfc4 <__ssprint_r>
   1b8fc:	12051c63          	bne	a0,zero,1ba34 <_svfprintf_r+0x1eb0>
   1b900:	0fc10a93          	addi	s5,sp,252
   1b904:	0c410793          	addi	a5,sp,196
   1b908:	00faa023          	sw	a5,0(s5)
   1b90c:	03c12783          	lw	a5,60(sp)
   1b910:	03c12703          	lw	a4,60(sp)
   1b914:	008a8c13          	addi	s8,s5,8
   1b918:	00faa223          	sw	a5,4(s5)
   1b91c:	0dc12783          	lw	a5,220(sp)
   1b920:	00e787b3          	add	a5,a5,a4
   1b924:	0cf12e23          	sw	a5,220(sp)
   1b928:	0d812783          	lw	a5,216(sp)
   1b92c:	00700713          	addi	a4,zero,7
   1b930:	00178793          	addi	a5,a5,1
   1b934:	0cf12c23          	sw	a5,216(sp)
   1b938:	a2f75ae3          	bge	a4,a5,1b36c <_svfprintf_r+0x17e8>
   1b93c:	871fe06f          	jal	zero,1a1ac <_svfprintf_r+0x628>
   1b940:	fd6052e3          	bge	zero,s6,1b904 <_svfprintf_r+0x1d80>
   1b944:	01000493          	addi	s1,zero,16
   1b948:	00700c93          	addi	s9,zero,7
   1b94c:	01412603          	lw	a2,20(sp)
   1b950:	0d812703          	lw	a4,216(sp)
   1b954:	0dc12783          	lw	a5,220(sp)
   1b958:	00caa023          	sw	a2,0(s5)
   1b95c:	00170713          	addi	a4,a4,1
   1b960:	008a8693          	addi	a3,s5,8
   1b964:	0364c063          	blt	s1,s6,1b984 <_svfprintf_r+0x1e00>
   1b968:	00fb07b3          	add	a5,s6,a5
   1b96c:	016aa223          	sw	s6,4(s5)
   1b970:	0cf12e23          	sw	a5,220(sp)
   1b974:	0ce12c23          	sw	a4,216(sp)
   1b978:	00700793          	addi	a5,zero,7
   1b97c:	00068a93          	addi	s5,a3,0
   1b980:	f69ff06f          	jal	zero,1b8e8 <_svfprintf_r+0x1d64>
   1b984:	01078793          	addi	a5,a5,16
   1b988:	009aa223          	sw	s1,4(s5)
   1b98c:	0cf12e23          	sw	a5,220(sp)
   1b990:	0ce12c23          	sw	a4,216(sp)
   1b994:	00ecde63          	bge	s9,a4,1b9b0 <_svfprintf_r+0x1e2c>
   1b998:	0d410613          	addi	a2,sp,212
   1b99c:	00098593          	addi	a1,s3,0
   1b9a0:	00090513          	addi	a0,s2,0
   1b9a4:	620010ef          	jal	ra,1cfc4 <__ssprint_r>
   1b9a8:	08051663          	bne	a0,zero,1ba34 <_svfprintf_r+0x1eb0>
   1b9ac:	0fc10693          	addi	a3,sp,252
   1b9b0:	ff0b0b13          	addi	s6,s6,-16
   1b9b4:	00068a93          	addi	s5,a3,0
   1b9b8:	f95ff06f          	jal	zero,1b94c <_svfprintf_r+0x1dc8>
   1b9bc:	0ce12e23          	sw	a4,220(sp)
   1b9c0:	00dc2223          	sw	a3,4(s8)
   1b9c4:	0cf12c23          	sw	a5,216(sp)
   1b9c8:	00700713          	addi	a4,zero,7
   1b9cc:	f2f75ce3          	bge	a4,a5,1b904 <_svfprintf_r+0x1d80>
   1b9d0:	f1dff06f          	jal	zero,1b8ec <_svfprintf_r+0x1d68>
   1b9d4:	02812783          	lw	a5,40(sp)
   1b9d8:	02c12703          	lw	a4,44(sp)
   1b9dc:	40e78433          	sub	s0,a5,a4
   1b9e0:	98805ae3          	bge	zero,s0,1b374 <_svfprintf_r+0x17f0>
   1b9e4:	000247b7          	lui	a5,0x24
   1b9e8:	01000a93          	addi	s5,zero,16
   1b9ec:	b2478493          	addi	s1,a5,-1244 # 23b24 <blanks.4498>
   1b9f0:	00700b13          	addi	s6,zero,7
   1b9f4:	0d812783          	lw	a5,216(sp)
   1b9f8:	009c2023          	sw	s1,0(s8)
   1b9fc:	0dc12703          	lw	a4,220(sp)
   1ba00:	00178793          	addi	a5,a5,1
   1ba04:	048ac663          	blt	s5,s0,1ba50 <_svfprintf_r+0x1ecc>
   1ba08:	008c2223          	sw	s0,4(s8)
   1ba0c:	00e40433          	add	s0,s0,a4
   1ba10:	0c812e23          	sw	s0,220(sp)
   1ba14:	0cf12c23          	sw	a5,216(sp)
   1ba18:	00700713          	addi	a4,zero,7
   1ba1c:	94f75ce3          	bge	a4,a5,1b374 <_svfprintf_r+0x17f0>
   1ba20:	0d410613          	addi	a2,sp,212
   1ba24:	00098593          	addi	a1,s3,0
   1ba28:	00090513          	addi	a0,s2,0
   1ba2c:	598010ef          	jal	ra,1cfc4 <__ssprint_r>
   1ba30:	940502e3          	beq	a0,zero,1b374 <_svfprintf_r+0x17f0>
   1ba34:	00c12783          	lw	a5,12(sp)
   1ba38:	00079463          	bne	a5,zero,1ba40 <_svfprintf_r+0x1ebc>
   1ba3c:	9d5fe06f          	jal	zero,1a410 <_svfprintf_r+0x88c>
   1ba40:	00078593          	addi	a1,a5,0
   1ba44:	00090513          	addi	a0,s2,0
   1ba48:	e70f90ef          	jal	ra,150b8 <_free_r>
   1ba4c:	9c5fe06f          	jal	zero,1a410 <_svfprintf_r+0x88c>
   1ba50:	01070713          	addi	a4,a4,16
   1ba54:	015c2223          	sw	s5,4(s8)
   1ba58:	0ce12e23          	sw	a4,220(sp)
   1ba5c:	0cf12c23          	sw	a5,216(sp)
   1ba60:	008c0c13          	addi	s8,s8,8
   1ba64:	00fb5e63          	bge	s6,a5,1ba80 <_svfprintf_r+0x1efc>
   1ba68:	0d410613          	addi	a2,sp,212
   1ba6c:	00098593          	addi	a1,s3,0
   1ba70:	00090513          	addi	a0,s2,0
   1ba74:	550010ef          	jal	ra,1cfc4 <__ssprint_r>
   1ba78:	fa051ee3          	bne	a0,zero,1ba34 <_svfprintf_r+0x1eb0>
   1ba7c:	0fc10c13          	addi	s8,sp,252
   1ba80:	ff040413          	addi	s0,s0,-16
   1ba84:	f71ff06f          	jal	zero,1b9f4 <_svfprintf_r+0x1e70>
   1ba88:	00c12583          	lw	a1,12(sp)
   1ba8c:	00090513          	addi	a0,s2,0
   1ba90:	e28f90ef          	jal	ra,150b8 <_free_r>
   1ba94:	925ff06f          	jal	zero,1b3b8 <_svfprintf_r+0x1834>
   1ba98:	0dc12783          	lw	a5,220(sp)
   1ba9c:	00079463          	bne	a5,zero,1baa4 <_svfprintf_r+0x1f20>
   1baa0:	971fe06f          	jal	zero,1a410 <_svfprintf_r+0x88c>
   1baa4:	0d410613          	addi	a2,sp,212
   1baa8:	00098593          	addi	a1,s3,0
   1baac:	00090513          	addi	a0,s2,0
   1bab0:	514010ef          	jal	ra,1cfc4 <__ssprint_r>
   1bab4:	95dfe06f          	jal	zero,1a410 <_svfprintf_r+0x88c>
   1bab8:	fff00793          	addi	a5,zero,-1
   1babc:	b4fb9a63          	bne	s7,a5,1ae10 <_svfprintf_r+0x128c>
   1bac0:	bc0d9c63          	bne	s11,zero,1ae98 <_svfprintf_r+0x1314>
   1bac4:	00900793          	addi	a5,zero,9
   1bac8:	bda7e863          	bltu	a5,s10,1ae98 <_svfprintf_r+0x1314>
   1bacc:	030d0d13          	addi	s10,s10,48
   1bad0:	19a10fa3          	sb	s10,415(sp)
   1bad4:	19f10493          	addi	s1,sp,415
   1bad8:	b98ff06f          	jal	zero,1ae70 <_svfprintf_r+0x12ec>

0001badc <__sprint_r>:
   1badc:	00862783          	lw	a5,8(a2)
   1bae0:	fd010113          	addi	sp,sp,-48
   1bae4:	02812423          	sw	s0,40(sp)
   1bae8:	02112623          	sw	ra,44(sp)
   1baec:	02912223          	sw	s1,36(sp)
   1baf0:	03212023          	sw	s2,32(sp)
   1baf4:	01312e23          	sw	s3,28(sp)
   1baf8:	01412c23          	sw	s4,24(sp)
   1bafc:	01512a23          	sw	s5,20(sp)
   1bb00:	01612823          	sw	s6,16(sp)
   1bb04:	01712623          	sw	s7,12(sp)
   1bb08:	01812423          	sw	s8,8(sp)
   1bb0c:	00060413          	addi	s0,a2,0
   1bb10:	02079e63          	bne	a5,zero,1bb4c <__sprint_r+0x70>
   1bb14:	00062223          	sw	zero,4(a2)
   1bb18:	00000513          	addi	a0,zero,0
   1bb1c:	02c12083          	lw	ra,44(sp)
   1bb20:	02812403          	lw	s0,40(sp)
   1bb24:	02412483          	lw	s1,36(sp)
   1bb28:	02012903          	lw	s2,32(sp)
   1bb2c:	01c12983          	lw	s3,28(sp)
   1bb30:	01812a03          	lw	s4,24(sp)
   1bb34:	01412a83          	lw	s5,20(sp)
   1bb38:	01012b03          	lw	s6,16(sp)
   1bb3c:	00c12b83          	lw	s7,12(sp)
   1bb40:	00812c03          	lw	s8,8(sp)
   1bb44:	03010113          	addi	sp,sp,48
   1bb48:	00008067          	jalr	zero,0(ra)
   1bb4c:	0645a783          	lw	a5,100(a1)
   1bb50:	00058993          	addi	s3,a1,0
   1bb54:	01279713          	slli	a4,a5,0x12
   1bb58:	06075863          	bge	a4,zero,1bbc8 <__sprint_r+0xec>
   1bb5c:	00062483          	lw	s1,0(a2)
   1bb60:	00050a93          	addi	s5,a0,0
   1bb64:	fff00b13          	addi	s6,zero,-1
   1bb68:	0044a903          	lw	s2,4(s1)
   1bb6c:	0004ac03          	lw	s8,0(s1)
   1bb70:	00000a13          	addi	s4,zero,0
   1bb74:	00295b93          	srli	s7,s2,0x2
   1bb78:	037a4663          	blt	s4,s7,1bba4 <__sprint_r+0xc8>
   1bb7c:	00842783          	lw	a5,8(s0)
   1bb80:	ffc97913          	andi	s2,s2,-4
   1bb84:	00848493          	addi	s1,s1,8
   1bb88:	412787b3          	sub	a5,a5,s2
   1bb8c:	00f42423          	sw	a5,8(s0)
   1bb90:	fc079ce3          	bne	a5,zero,1bb68 <__sprint_r+0x8c>
   1bb94:	00000513          	addi	a0,zero,0
   1bb98:	00042423          	sw	zero,8(s0)
   1bb9c:	00042223          	sw	zero,4(s0)
   1bba0:	f7dff06f          	jal	zero,1bb1c <__sprint_r+0x40>
   1bba4:	002a1793          	slli	a5,s4,0x2
   1bba8:	00fc07b3          	add	a5,s8,a5
   1bbac:	0007a583          	lw	a1,0(a5)
   1bbb0:	00098613          	addi	a2,s3,0
   1bbb4:	000a8513          	addi	a0,s5,0
   1bbb8:	108010ef          	jal	ra,1ccc0 <_fputwc_r>
   1bbbc:	01650a63          	beq	a0,s6,1bbd0 <__sprint_r+0xf4>
   1bbc0:	001a0a13          	addi	s4,s4,1
   1bbc4:	fb5ff06f          	jal	zero,1bb78 <__sprint_r+0x9c>
   1bbc8:	f40f90ef          	jal	ra,15308 <__sfvwrite_r>
   1bbcc:	fcdff06f          	jal	zero,1bb98 <__sprint_r+0xbc>
   1bbd0:	fff00513          	addi	a0,zero,-1
   1bbd4:	fc5ff06f          	jal	zero,1bb98 <__sprint_r+0xbc>

0001bbd8 <_vfiprintf_r>:
   1bbd8:	ed010113          	addi	sp,sp,-304
   1bbdc:	12812423          	sw	s0,296(sp)
   1bbe0:	12912223          	sw	s1,292(sp)
   1bbe4:	11312e23          	sw	s3,284(sp)
   1bbe8:	11412c23          	sw	s4,280(sp)
   1bbec:	12112623          	sw	ra,300(sp)
   1bbf0:	13212023          	sw	s2,288(sp)
   1bbf4:	11512a23          	sw	s5,276(sp)
   1bbf8:	11612823          	sw	s6,272(sp)
   1bbfc:	11712623          	sw	s7,268(sp)
   1bc00:	11812423          	sw	s8,264(sp)
   1bc04:	11912223          	sw	s9,260(sp)
   1bc08:	11a12023          	sw	s10,256(sp)
   1bc0c:	0fb12e23          	sw	s11,252(sp)
   1bc10:	00050993          	addi	s3,a0,0
   1bc14:	00058413          	addi	s0,a1,0
   1bc18:	00060a13          	addi	s4,a2,0
   1bc1c:	00068493          	addi	s1,a3,0
   1bc20:	00050863          	beq	a0,zero,1bc30 <_vfiprintf_r+0x58>
   1bc24:	03852783          	lw	a5,56(a0)
   1bc28:	00079463          	bne	a5,zero,1bc30 <_vfiprintf_r+0x58>
   1bc2c:	9e8f90ef          	jal	ra,14e14 <__sinit>
   1bc30:	00c41783          	lh	a5,12(s0)
   1bc34:	01279713          	slli	a4,a5,0x12
   1bc38:	02074263          	blt	a4,zero,1bc5c <_vfiprintf_r+0x84>
   1bc3c:	000026b7          	lui	a3,0x2
   1bc40:	06442703          	lw	a4,100(s0)
   1bc44:	00d7e7b3          	or	a5,a5,a3
   1bc48:	00f41623          	sh	a5,12(s0)
   1bc4c:	ffffe7b7          	lui	a5,0xffffe
   1bc50:	fff78793          	addi	a5,a5,-1 # ffffdfff <__BSS_END__+0xfffd8407>
   1bc54:	00f777b3          	and	a5,a4,a5
   1bc58:	06f42223          	sw	a5,100(s0)
   1bc5c:	00c45783          	lhu	a5,12(s0)
   1bc60:	0087f793          	andi	a5,a5,8
   1bc64:	04078063          	beq	a5,zero,1bca4 <_vfiprintf_r+0xcc>
   1bc68:	01042783          	lw	a5,16(s0)
   1bc6c:	02078c63          	beq	a5,zero,1bca4 <_vfiprintf_r+0xcc>
   1bc70:	00c45783          	lhu	a5,12(s0)
   1bc74:	00a00713          	addi	a4,zero,10
   1bc78:	01a7f793          	andi	a5,a5,26
   1bc7c:	06e79e63          	bne	a5,a4,1bcf8 <_vfiprintf_r+0x120>
   1bc80:	00e41783          	lh	a5,14(s0)
   1bc84:	0607ca63          	blt	a5,zero,1bcf8 <_vfiprintf_r+0x120>
   1bc88:	00048693          	addi	a3,s1,0
   1bc8c:	000a0613          	addi	a2,s4,0
   1bc90:	00040593          	addi	a1,s0,0
   1bc94:	00098513          	addi	a0,s3,0
   1bc98:	3e1000ef          	jal	ra,1c878 <__sbprintf>
   1bc9c:	00050c13          	addi	s8,a0,0
   1bca0:	0180006f          	jal	zero,1bcb8 <_vfiprintf_r+0xe0>
   1bca4:	00040593          	addi	a1,s0,0
   1bca8:	00098513          	addi	a0,s3,0
   1bcac:	c91f80ef          	jal	ra,1493c <__swsetup_r>
   1bcb0:	fc0500e3          	beq	a0,zero,1bc70 <_vfiprintf_r+0x98>
   1bcb4:	fff00c13          	addi	s8,zero,-1
   1bcb8:	12c12083          	lw	ra,300(sp)
   1bcbc:	12812403          	lw	s0,296(sp)
   1bcc0:	000c0513          	addi	a0,s8,0
   1bcc4:	12412483          	lw	s1,292(sp)
   1bcc8:	12012903          	lw	s2,288(sp)
   1bccc:	11c12983          	lw	s3,284(sp)
   1bcd0:	11812a03          	lw	s4,280(sp)
   1bcd4:	11412a83          	lw	s5,276(sp)
   1bcd8:	11012b03          	lw	s6,272(sp)
   1bcdc:	10c12b83          	lw	s7,268(sp)
   1bce0:	10812c03          	lw	s8,264(sp)
   1bce4:	10412c83          	lw	s9,260(sp)
   1bce8:	10012d03          	lw	s10,256(sp)
   1bcec:	0fc12d83          	lw	s11,252(sp)
   1bcf0:	13010113          	addi	sp,sp,304
   1bcf4:	00008067          	jalr	zero,0(ra)
   1bcf8:	000247b7          	lui	a5,0x24
   1bcfc:	b4478793          	addi	a5,a5,-1212 # 23b44 <zeroes.4499+0x10>
   1bd00:	02f12423          	sw	a5,40(sp)
   1bd04:	000247b7          	lui	a5,0x24
   1bd08:	cc078793          	addi	a5,a5,-832 # 23cc0 <zeroes.4490>
   1bd0c:	00f12a23          	sw	a5,20(sp)
   1bd10:	000247b7          	lui	a5,0x24
   1bd14:	04c10b93          	addi	s7,sp,76
   1bd18:	cb078793          	addi	a5,a5,-848 # 23cb0 <blanks.4489>
   1bd1c:	05712023          	sw	s7,64(sp)
   1bd20:	04012423          	sw	zero,72(sp)
   1bd24:	04012223          	sw	zero,68(sp)
   1bd28:	000b8d93          	addi	s11,s7,0
   1bd2c:	00012623          	sw	zero,12(sp)
   1bd30:	00012423          	sw	zero,8(sp)
   1bd34:	00012823          	sw	zero,16(sp)
   1bd38:	00012e23          	sw	zero,28(sp)
   1bd3c:	00000c13          	addi	s8,zero,0
   1bd40:	00f12c23          	sw	a5,24(sp)
   1bd44:	000a0913          	addi	s2,s4,0
   1bd48:	02500713          	addi	a4,zero,37
   1bd4c:	00094783          	lbu	a5,0(s2)
   1bd50:	00078463          	beq	a5,zero,1bd58 <_vfiprintf_r+0x180>
   1bd54:	0ae79063          	bne	a5,a4,1bdf4 <_vfiprintf_r+0x21c>
   1bd58:	41490ab3          	sub	s5,s2,s4
   1bd5c:	040a8663          	beq	s5,zero,1bda8 <_vfiprintf_r+0x1d0>
   1bd60:	04812783          	lw	a5,72(sp)
   1bd64:	014da023          	sw	s4,0(s11)
   1bd68:	015da223          	sw	s5,4(s11)
   1bd6c:	015787b3          	add	a5,a5,s5
   1bd70:	04f12423          	sw	a5,72(sp)
   1bd74:	04412783          	lw	a5,68(sp)
   1bd78:	00700713          	addi	a4,zero,7
   1bd7c:	008d8d93          	addi	s11,s11,8
   1bd80:	00178793          	addi	a5,a5,1
   1bd84:	04f12223          	sw	a5,68(sp)
   1bd88:	00f75e63          	bge	a4,a5,1bda4 <_vfiprintf_r+0x1cc>
   1bd8c:	04010613          	addi	a2,sp,64
   1bd90:	00040593          	addi	a1,s0,0
   1bd94:	00098513          	addi	a0,s3,0
   1bd98:	d45ff0ef          	jal	ra,1badc <__sprint_r>
   1bd9c:	240510e3          	bne	a0,zero,1c7dc <_vfiprintf_r+0xc04>
   1bda0:	000b8d93          	addi	s11,s7,0
   1bda4:	015c0c33          	add	s8,s8,s5
   1bda8:	00094783          	lbu	a5,0(s2)
   1bdac:	26078ce3          	beq	a5,zero,1c824 <_vfiprintf_r+0xc4c>
   1bdb0:	00190713          	addi	a4,s2,1
   1bdb4:	02010da3          	sb	zero,59(sp)
   1bdb8:	fff00913          	addi	s2,zero,-1
   1bdbc:	00000b13          	addi	s6,zero,0
   1bdc0:	00000d13          	addi	s10,zero,0
   1bdc4:	00900a93          	addi	s5,zero,9
   1bdc8:	02a00c93          	addi	s9,zero,42
   1bdcc:	00074603          	lbu	a2,0(a4)
   1bdd0:	00170a13          	addi	s4,a4,1
   1bdd4:	05a00593          	addi	a1,zero,90
   1bdd8:	fe060713          	addi	a4,a2,-32
   1bddc:	0ce5e2e3          	bltu	a1,a4,1c6a0 <_vfiprintf_r+0xac8>
   1bde0:	02812783          	lw	a5,40(sp)
   1bde4:	00271713          	slli	a4,a4,0x2
   1bde8:	00f70733          	add	a4,a4,a5
   1bdec:	00072703          	lw	a4,0(a4)
   1bdf0:	00070067          	jalr	zero,0(a4)
   1bdf4:	00190913          	addi	s2,s2,1
   1bdf8:	f55ff06f          	jal	zero,1bd4c <_vfiprintf_r+0x174>
   1bdfc:	00023737          	lui	a4,0x23
   1be00:	5d870793          	addi	a5,a4,1496 # 235d8 <zeroes.4514+0x20>
   1be04:	00f12623          	sw	a5,12(sp)
   1be08:	020d7713          	andi	a4,s10,32
   1be0c:	6a070463          	beq	a4,zero,1c4b4 <_vfiprintf_r+0x8dc>
   1be10:	00748493          	addi	s1,s1,7
   1be14:	ff84f493          	andi	s1,s1,-8
   1be18:	0004a703          	lw	a4,0(s1)
   1be1c:	0044aa83          	lw	s5,4(s1)
   1be20:	00848c93          	addi	s9,s1,8
   1be24:	001d7693          	andi	a3,s10,1
   1be28:	00068e63          	beq	a3,zero,1be44 <_vfiprintf_r+0x26c>
   1be2c:	015766b3          	or	a3,a4,s5
   1be30:	00068a63          	beq	a3,zero,1be44 <_vfiprintf_r+0x26c>
   1be34:	03000693          	addi	a3,zero,48
   1be38:	02d10e23          	sb	a3,60(sp)
   1be3c:	02c10ea3          	sb	a2,61(sp)
   1be40:	002d6d13          	ori	s10,s10,2
   1be44:	bffd7d13          	andi	s10,s10,-1025
   1be48:	30c0006f          	jal	zero,1c154 <_vfiprintf_r+0x57c>
   1be4c:	00098513          	addi	a0,s3,0
   1be50:	a15fb0ef          	jal	ra,17864 <_localeconv_r>
   1be54:	00452783          	lw	a5,4(a0)
   1be58:	00078513          	addi	a0,a5,0
   1be5c:	00f12e23          	sw	a5,28(sp)
   1be60:	8fdf60ef          	jal	ra,1275c <strlen>
   1be64:	00a12823          	sw	a0,16(sp)
   1be68:	00098513          	addi	a0,s3,0
   1be6c:	9f9fb0ef          	jal	ra,17864 <_localeconv_r>
   1be70:	00852783          	lw	a5,8(a0)
   1be74:	00f12423          	sw	a5,8(sp)
   1be78:	01012783          	lw	a5,16(sp)
   1be7c:	00078c63          	beq	a5,zero,1be94 <_vfiprintf_r+0x2bc>
   1be80:	00812783          	lw	a5,8(sp)
   1be84:	00078863          	beq	a5,zero,1be94 <_vfiprintf_r+0x2bc>
   1be88:	0007c703          	lbu	a4,0(a5)
   1be8c:	00070463          	beq	a4,zero,1be94 <_vfiprintf_r+0x2bc>
   1be90:	400d6d13          	ori	s10,s10,1024
   1be94:	000a0713          	addi	a4,s4,0
   1be98:	f35ff06f          	jal	zero,1bdcc <_vfiprintf_r+0x1f4>
   1be9c:	03b14703          	lbu	a4,59(sp)
   1bea0:	fe071ae3          	bne	a4,zero,1be94 <_vfiprintf_r+0x2bc>
   1bea4:	02000713          	addi	a4,zero,32
   1bea8:	02e10da3          	sb	a4,59(sp)
   1beac:	fe9ff06f          	jal	zero,1be94 <_vfiprintf_r+0x2bc>
   1beb0:	001d6d13          	ori	s10,s10,1
   1beb4:	fe1ff06f          	jal	zero,1be94 <_vfiprintf_r+0x2bc>
   1beb8:	0004ab03          	lw	s6,0(s1)
   1bebc:	00448493          	addi	s1,s1,4
   1bec0:	fc0b5ae3          	bge	s6,zero,1be94 <_vfiprintf_r+0x2bc>
   1bec4:	41600b33          	sub	s6,zero,s6
   1bec8:	004d6d13          	ori	s10,s10,4
   1becc:	fc9ff06f          	jal	zero,1be94 <_vfiprintf_r+0x2bc>
   1bed0:	02b00713          	addi	a4,zero,43
   1bed4:	fd5ff06f          	jal	zero,1bea8 <_vfiprintf_r+0x2d0>
   1bed8:	000a4603          	lbu	a2,0(s4)
   1bedc:	001a0713          	addi	a4,s4,1
   1bee0:	05961463          	bne	a2,s9,1bf28 <_vfiprintf_r+0x350>
   1bee4:	0004a903          	lw	s2,0(s1)
   1bee8:	00448693          	addi	a3,s1,4
   1beec:	00095463          	bge	s2,zero,1bef4 <_vfiprintf_r+0x31c>
   1bef0:	fff00913          	addi	s2,zero,-1
   1bef4:	00068493          	addi	s1,a3,0 # 2000 <main-0xe074>
   1bef8:	00070a13          	addi	s4,a4,0
   1befc:	f99ff06f          	jal	zero,1be94 <_vfiprintf_r+0x2bc>
   1bf00:	00291693          	slli	a3,s2,0x2
   1bf04:	00170713          	addi	a4,a4,1
   1bf08:	01268933          	add	s2,a3,s2
   1bf0c:	fff74603          	lbu	a2,-1(a4)
   1bf10:	00191913          	slli	s2,s2,0x1
   1bf14:	00a90933          	add	s2,s2,a0
   1bf18:	fd060513          	addi	a0,a2,-48
   1bf1c:	feaaf2e3          	bgeu	s5,a0,1bf00 <_vfiprintf_r+0x328>
   1bf20:	00070a13          	addi	s4,a4,0
   1bf24:	eb5ff06f          	jal	zero,1bdd8 <_vfiprintf_r+0x200>
   1bf28:	00000913          	addi	s2,zero,0
   1bf2c:	fedff06f          	jal	zero,1bf18 <_vfiprintf_r+0x340>
   1bf30:	080d6d13          	ori	s10,s10,128
   1bf34:	f61ff06f          	jal	zero,1be94 <_vfiprintf_r+0x2bc>
   1bf38:	000a0713          	addi	a4,s4,0
   1bf3c:	00000b13          	addi	s6,zero,0
   1bf40:	002b1693          	slli	a3,s6,0x2
   1bf44:	01668b33          	add	s6,a3,s6
   1bf48:	fd060613          	addi	a2,a2,-48
   1bf4c:	001b1b13          	slli	s6,s6,0x1
   1bf50:	00170713          	addi	a4,a4,1
   1bf54:	01660b33          	add	s6,a2,s6
   1bf58:	fff74603          	lbu	a2,-1(a4)
   1bf5c:	fd060693          	addi	a3,a2,-48
   1bf60:	fedaf0e3          	bgeu	s5,a3,1bf40 <_vfiprintf_r+0x368>
   1bf64:	fbdff06f          	jal	zero,1bf20 <_vfiprintf_r+0x348>
   1bf68:	000a4683          	lbu	a3,0(s4)
   1bf6c:	06800713          	addi	a4,zero,104
   1bf70:	00e69863          	bne	a3,a4,1bf80 <_vfiprintf_r+0x3a8>
   1bf74:	001a0a13          	addi	s4,s4,1
   1bf78:	200d6d13          	ori	s10,s10,512
   1bf7c:	f19ff06f          	jal	zero,1be94 <_vfiprintf_r+0x2bc>
   1bf80:	040d6d13          	ori	s10,s10,64
   1bf84:	f11ff06f          	jal	zero,1be94 <_vfiprintf_r+0x2bc>
   1bf88:	000a4683          	lbu	a3,0(s4)
   1bf8c:	06c00713          	addi	a4,zero,108
   1bf90:	00e69863          	bne	a3,a4,1bfa0 <_vfiprintf_r+0x3c8>
   1bf94:	001a0a13          	addi	s4,s4,1
   1bf98:	020d6d13          	ori	s10,s10,32
   1bf9c:	ef9ff06f          	jal	zero,1be94 <_vfiprintf_r+0x2bc>
   1bfa0:	010d6d13          	ori	s10,s10,16
   1bfa4:	ef1ff06f          	jal	zero,1be94 <_vfiprintf_r+0x2bc>
   1bfa8:	0004a703          	lw	a4,0(s1)
   1bfac:	00448c93          	addi	s9,s1,4
   1bfb0:	02010da3          	sb	zero,59(sp)
   1bfb4:	08e10623          	sb	a4,140(sp)
   1bfb8:	00100913          	addi	s2,zero,1
   1bfbc:	00000a93          	addi	s5,zero,0
   1bfc0:	08c10493          	addi	s1,sp,140
   1bfc4:	1c80006f          	jal	zero,1c18c <_vfiprintf_r+0x5b4>
   1bfc8:	010d6d13          	ori	s10,s10,16
   1bfcc:	020d7713          	andi	a4,s10,32
   1bfd0:	06070063          	beq	a4,zero,1c030 <_vfiprintf_r+0x458>
   1bfd4:	00748493          	addi	s1,s1,7
   1bfd8:	ff84f493          	andi	s1,s1,-8
   1bfdc:	0004a703          	lw	a4,0(s1)
   1bfe0:	0044aa83          	lw	s5,4(s1)
   1bfe4:	00848c93          	addi	s9,s1,8
   1bfe8:	040adce3          	bge	s5,zero,1c840 <_vfiprintf_r+0xc68>
   1bfec:	40e00733          	sub	a4,zero,a4
   1bff0:	00e036b3          	sltu	a3,zero,a4
   1bff4:	415008b3          	sub	a7,zero,s5
   1bff8:	40d88ab3          	sub	s5,a7,a3
   1bffc:	02d00693          	addi	a3,zero,45
   1c000:	02d10da3          	sb	a3,59(sp)
   1c004:	00100693          	addi	a3,zero,1
   1c008:	fff00613          	addi	a2,zero,-1
   1c00c:	4ec90663          	beq	s2,a2,1c4f8 <_vfiprintf_r+0x920>
   1c010:	000d0613          	addi	a2,s10,0
   1c014:	015765b3          	or	a1,a4,s5
   1c018:	f7fd7d13          	andi	s10,s10,-129
   1c01c:	4c059e63          	bne	a1,zero,1c4f8 <_vfiprintf_r+0x920>
   1c020:	66090463          	beq	s2,zero,1c688 <_vfiprintf_r+0xab0>
   1c024:	00100613          	addi	a2,zero,1
   1c028:	4cc69c63          	bne	a3,a2,1c500 <_vfiprintf_r+0x928>
   1c02c:	0290006f          	jal	zero,1c854 <_vfiprintf_r+0xc7c>
   1c030:	010d7713          	andi	a4,s10,16
   1c034:	00448c93          	addi	s9,s1,4
   1c038:	00070863          	beq	a4,zero,1c048 <_vfiprintf_r+0x470>
   1c03c:	0004a703          	lw	a4,0(s1)
   1c040:	41f75a93          	srai	s5,a4,0x1f
   1c044:	fa5ff06f          	jal	zero,1bfe8 <_vfiprintf_r+0x410>
   1c048:	040d7693          	andi	a3,s10,64
   1c04c:	0004a703          	lw	a4,0(s1)
   1c050:	00068863          	beq	a3,zero,1c060 <_vfiprintf_r+0x488>
   1c054:	01071713          	slli	a4,a4,0x10
   1c058:	41075713          	srai	a4,a4,0x10
   1c05c:	fe5ff06f          	jal	zero,1c040 <_vfiprintf_r+0x468>
   1c060:	200d7693          	andi	a3,s10,512
   1c064:	fc068ee3          	beq	a3,zero,1c040 <_vfiprintf_r+0x468>
   1c068:	01871713          	slli	a4,a4,0x18
   1c06c:	41875713          	srai	a4,a4,0x18
   1c070:	fd1ff06f          	jal	zero,1c040 <_vfiprintf_r+0x468>
   1c074:	020d7693          	andi	a3,s10,32
   1c078:	0004a703          	lw	a4,0(s1)
   1c07c:	00448493          	addi	s1,s1,4
   1c080:	00068a63          	beq	a3,zero,1c094 <_vfiprintf_r+0x4bc>
   1c084:	41fc5793          	srai	a5,s8,0x1f
   1c088:	01872023          	sw	s8,0(a4)
   1c08c:	00f72223          	sw	a5,4(a4)
   1c090:	cb5ff06f          	jal	zero,1bd44 <_vfiprintf_r+0x16c>
   1c094:	010d7693          	andi	a3,s10,16
   1c098:	00068663          	beq	a3,zero,1c0a4 <_vfiprintf_r+0x4cc>
   1c09c:	01872023          	sw	s8,0(a4)
   1c0a0:	ca5ff06f          	jal	zero,1bd44 <_vfiprintf_r+0x16c>
   1c0a4:	040d7693          	andi	a3,s10,64
   1c0a8:	00068663          	beq	a3,zero,1c0b4 <_vfiprintf_r+0x4dc>
   1c0ac:	01871023          	sh	s8,0(a4)
   1c0b0:	c95ff06f          	jal	zero,1bd44 <_vfiprintf_r+0x16c>
   1c0b4:	200d7793          	andi	a5,s10,512
   1c0b8:	fe0782e3          	beq	a5,zero,1c09c <_vfiprintf_r+0x4c4>
   1c0bc:	01870023          	sb	s8,0(a4)
   1c0c0:	c85ff06f          	jal	zero,1bd44 <_vfiprintf_r+0x16c>
   1c0c4:	010d6d13          	ori	s10,s10,16
   1c0c8:	020d7713          	andi	a4,s10,32
   1c0cc:	02070463          	beq	a4,zero,1c0f4 <_vfiprintf_r+0x51c>
   1c0d0:	00748493          	addi	s1,s1,7
   1c0d4:	ff84f493          	andi	s1,s1,-8
   1c0d8:	0004a703          	lw	a4,0(s1)
   1c0dc:	0044aa83          	lw	s5,4(s1)
   1c0e0:	00848c93          	addi	s9,s1,8
   1c0e4:	bffd7d13          	andi	s10,s10,-1025
   1c0e8:	00000693          	addi	a3,zero,0
   1c0ec:	02010da3          	sb	zero,59(sp)
   1c0f0:	f19ff06f          	jal	zero,1c008 <_vfiprintf_r+0x430>
   1c0f4:	010d7713          	andi	a4,s10,16
   1c0f8:	00448c93          	addi	s9,s1,4
   1c0fc:	00070663          	beq	a4,zero,1c108 <_vfiprintf_r+0x530>
   1c100:	0004a703          	lw	a4,0(s1)
   1c104:	0100006f          	jal	zero,1c114 <_vfiprintf_r+0x53c>
   1c108:	040d7713          	andi	a4,s10,64
   1c10c:	00070863          	beq	a4,zero,1c11c <_vfiprintf_r+0x544>
   1c110:	0004d703          	lhu	a4,0(s1)
   1c114:	00000a93          	addi	s5,zero,0
   1c118:	fcdff06f          	jal	zero,1c0e4 <_vfiprintf_r+0x50c>
   1c11c:	200d7713          	andi	a4,s10,512
   1c120:	fe0700e3          	beq	a4,zero,1c100 <_vfiprintf_r+0x528>
   1c124:	0004c703          	lbu	a4,0(s1)
   1c128:	fedff06f          	jal	zero,1c114 <_vfiprintf_r+0x53c>
   1c12c:	ffff86b7          	lui	a3,0xffff8
   1c130:	8306c693          	xori	a3,a3,-2000
   1c134:	02d11e23          	sh	a3,60(sp)
   1c138:	0004a703          	lw	a4,0(s1)
   1c13c:	000236b7          	lui	a3,0x23
   1c140:	5d868793          	addi	a5,a3,1496 # 235d8 <zeroes.4514+0x20>
   1c144:	00448c93          	addi	s9,s1,4
   1c148:	00000a93          	addi	s5,zero,0
   1c14c:	002d6d13          	ori	s10,s10,2
   1c150:	00f12623          	sw	a5,12(sp)
   1c154:	00200693          	addi	a3,zero,2
   1c158:	f95ff06f          	jal	zero,1c0ec <_vfiprintf_r+0x514>
   1c15c:	02010da3          	sb	zero,59(sp)
   1c160:	fff00713          	addi	a4,zero,-1
   1c164:	00448c93          	addi	s9,s1,4
   1c168:	0004a483          	lw	s1,0(s1)
   1c16c:	2ce90463          	beq	s2,a4,1c434 <_vfiprintf_r+0x85c>
   1c170:	00090613          	addi	a2,s2,0
   1c174:	00000593          	addi	a1,zero,0
   1c178:	00048513          	addi	a0,s1,0
   1c17c:	82cfc0ef          	jal	ra,181a8 <memchr>
   1c180:	00000a93          	addi	s5,zero,0
   1c184:	00050463          	beq	a0,zero,1c18c <_vfiprintf_r+0x5b4>
   1c188:	40950933          	sub	s2,a0,s1
   1c18c:	01512223          	sw	s5,4(sp)
   1c190:	012ad463          	bge	s5,s2,1c198 <_vfiprintf_r+0x5c0>
   1c194:	01212223          	sw	s2,4(sp)
   1c198:	03b14703          	lbu	a4,59(sp)
   1c19c:	00070863          	beq	a4,zero,1c1ac <_vfiprintf_r+0x5d4>
   1c1a0:	00412783          	lw	a5,4(sp)
   1c1a4:	00178793          	addi	a5,a5,1
   1c1a8:	00f12223          	sw	a5,4(sp)
   1c1ac:	002d7793          	andi	a5,s10,2
   1c1b0:	02f12023          	sw	a5,32(sp)
   1c1b4:	00078863          	beq	a5,zero,1c1c4 <_vfiprintf_r+0x5ec>
   1c1b8:	00412783          	lw	a5,4(sp)
   1c1bc:	00278793          	addi	a5,a5,2
   1c1c0:	00f12223          	sw	a5,4(sp)
   1c1c4:	084d7793          	andi	a5,s10,132
   1c1c8:	02f12223          	sw	a5,36(sp)
   1c1cc:	06079463          	bne	a5,zero,1c234 <_vfiprintf_r+0x65c>
   1c1d0:	00412783          	lw	a5,4(sp)
   1c1d4:	40fb0733          	sub	a4,s6,a5
   1c1d8:	04e05e63          	bge	zero,a4,1c234 <_vfiprintf_r+0x65c>
   1c1dc:	01000893          	addi	a7,zero,16
   1c1e0:	00700313          	addi	t1,zero,7
   1c1e4:	01812783          	lw	a5,24(sp)
   1c1e8:	04412683          	lw	a3,68(sp)
   1c1ec:	04812603          	lw	a2,72(sp)
   1c1f0:	00fda023          	sw	a5,0(s11)
   1c1f4:	00168693          	addi	a3,a3,1
   1c1f8:	008d8593          	addi	a1,s11,8
   1c1fc:	4ae8cc63          	blt	a7,a4,1c6b4 <_vfiprintf_r+0xadc>
   1c200:	00eda223          	sw	a4,4(s11)
   1c204:	00c70733          	add	a4,a4,a2
   1c208:	04e12423          	sw	a4,72(sp)
   1c20c:	04d12223          	sw	a3,68(sp)
   1c210:	00700713          	addi	a4,zero,7
   1c214:	00058d93          	addi	s11,a1,0
   1c218:	00d75e63          	bge	a4,a3,1c234 <_vfiprintf_r+0x65c>
   1c21c:	04010613          	addi	a2,sp,64
   1c220:	00040593          	addi	a1,s0,0
   1c224:	00098513          	addi	a0,s3,0
   1c228:	8b5ff0ef          	jal	ra,1badc <__sprint_r>
   1c22c:	5a051863          	bne	a0,zero,1c7dc <_vfiprintf_r+0xc04>
   1c230:	000b8d93          	addi	s11,s7,0
   1c234:	03b14703          	lbu	a4,59(sp)
   1c238:	04070863          	beq	a4,zero,1c288 <_vfiprintf_r+0x6b0>
   1c23c:	03b10693          	addi	a3,sp,59
   1c240:	00dda023          	sw	a3,0(s11)
   1c244:	00100693          	addi	a3,zero,1
   1c248:	04412703          	lw	a4,68(sp)
   1c24c:	00dda223          	sw	a3,4(s11)
   1c250:	04812683          	lw	a3,72(sp)
   1c254:	00170713          	addi	a4,a4,1
   1c258:	04e12223          	sw	a4,68(sp)
   1c25c:	00168693          	addi	a3,a3,1
   1c260:	04d12423          	sw	a3,72(sp)
   1c264:	00700693          	addi	a3,zero,7
   1c268:	008d8d93          	addi	s11,s11,8
   1c26c:	00e6de63          	bge	a3,a4,1c288 <_vfiprintf_r+0x6b0>
   1c270:	04010613          	addi	a2,sp,64
   1c274:	00040593          	addi	a1,s0,0
   1c278:	00098513          	addi	a0,s3,0
   1c27c:	861ff0ef          	jal	ra,1badc <__sprint_r>
   1c280:	54051e63          	bne	a0,zero,1c7dc <_vfiprintf_r+0xc04>
   1c284:	000b8d93          	addi	s11,s7,0
   1c288:	02012783          	lw	a5,32(sp)
   1c28c:	04078863          	beq	a5,zero,1c2dc <_vfiprintf_r+0x704>
   1c290:	03c10693          	addi	a3,sp,60
   1c294:	00dda023          	sw	a3,0(s11)
   1c298:	00200693          	addi	a3,zero,2
   1c29c:	04412703          	lw	a4,68(sp)
   1c2a0:	00dda223          	sw	a3,4(s11)
   1c2a4:	04812683          	lw	a3,72(sp)
   1c2a8:	00170713          	addi	a4,a4,1
   1c2ac:	04e12223          	sw	a4,68(sp)
   1c2b0:	00268693          	addi	a3,a3,2
   1c2b4:	04d12423          	sw	a3,72(sp)
   1c2b8:	00700693          	addi	a3,zero,7
   1c2bc:	008d8d93          	addi	s11,s11,8
   1c2c0:	00e6de63          	bge	a3,a4,1c2dc <_vfiprintf_r+0x704>
   1c2c4:	04010613          	addi	a2,sp,64
   1c2c8:	00040593          	addi	a1,s0,0
   1c2cc:	00098513          	addi	a0,s3,0
   1c2d0:	80dff0ef          	jal	ra,1badc <__sprint_r>
   1c2d4:	50051463          	bne	a0,zero,1c7dc <_vfiprintf_r+0xc04>
   1c2d8:	000b8d93          	addi	s11,s7,0
   1c2dc:	02412783          	lw	a5,36(sp)
   1c2e0:	08000713          	addi	a4,zero,128
   1c2e4:	06e79463          	bne	a5,a4,1c34c <_vfiprintf_r+0x774>
   1c2e8:	00412783          	lw	a5,4(sp)
   1c2ec:	40fb0733          	sub	a4,s6,a5
   1c2f0:	04e05e63          	bge	zero,a4,1c34c <_vfiprintf_r+0x774>
   1c2f4:	01000893          	addi	a7,zero,16
   1c2f8:	00700313          	addi	t1,zero,7
   1c2fc:	01412783          	lw	a5,20(sp)
   1c300:	04412683          	lw	a3,68(sp)
   1c304:	04812603          	lw	a2,72(sp)
   1c308:	00fda023          	sw	a5,0(s11)
   1c30c:	00168693          	addi	a3,a3,1
   1c310:	008d8593          	addi	a1,s11,8
   1c314:	3ee8c463          	blt	a7,a4,1c6fc <_vfiprintf_r+0xb24>
   1c318:	00eda223          	sw	a4,4(s11)
   1c31c:	00c70733          	add	a4,a4,a2
   1c320:	04e12423          	sw	a4,72(sp)
   1c324:	04d12223          	sw	a3,68(sp)
   1c328:	00700713          	addi	a4,zero,7
   1c32c:	00058d93          	addi	s11,a1,0
   1c330:	00d75e63          	bge	a4,a3,1c34c <_vfiprintf_r+0x774>
   1c334:	04010613          	addi	a2,sp,64
   1c338:	00040593          	addi	a1,s0,0
   1c33c:	00098513          	addi	a0,s3,0
   1c340:	f9cff0ef          	jal	ra,1badc <__sprint_r>
   1c344:	48051c63          	bne	a0,zero,1c7dc <_vfiprintf_r+0xc04>
   1c348:	000b8d93          	addi	s11,s7,0
   1c34c:	412a8ab3          	sub	s5,s5,s2
   1c350:	05505e63          	bge	zero,s5,1c3ac <_vfiprintf_r+0x7d4>
   1c354:	01000893          	addi	a7,zero,16
   1c358:	00700313          	addi	t1,zero,7
   1c35c:	01412783          	lw	a5,20(sp)
   1c360:	04412703          	lw	a4,68(sp)
   1c364:	04812683          	lw	a3,72(sp)
   1c368:	00fda023          	sw	a5,0(s11)
   1c36c:	00170713          	addi	a4,a4,1
   1c370:	008d8613          	addi	a2,s11,8
   1c374:	3d58c863          	blt	a7,s5,1c744 <_vfiprintf_r+0xb6c>
   1c378:	015da223          	sw	s5,4(s11)
   1c37c:	00da8ab3          	add	s5,s5,a3
   1c380:	05512423          	sw	s5,72(sp)
   1c384:	04e12223          	sw	a4,68(sp)
   1c388:	00700693          	addi	a3,zero,7
   1c38c:	00060d93          	addi	s11,a2,0
   1c390:	00e6de63          	bge	a3,a4,1c3ac <_vfiprintf_r+0x7d4>
   1c394:	04010613          	addi	a2,sp,64
   1c398:	00040593          	addi	a1,s0,0
   1c39c:	00098513          	addi	a0,s3,0
   1c3a0:	f3cff0ef          	jal	ra,1badc <__sprint_r>
   1c3a4:	42051c63          	bne	a0,zero,1c7dc <_vfiprintf_r+0xc04>
   1c3a8:	000b8d93          	addi	s11,s7,0
   1c3ac:	04812703          	lw	a4,72(sp)
   1c3b0:	012da223          	sw	s2,4(s11)
   1c3b4:	009da023          	sw	s1,0(s11)
   1c3b8:	01270933          	add	s2,a4,s2
   1c3bc:	04412703          	lw	a4,68(sp)
   1c3c0:	05212423          	sw	s2,72(sp)
   1c3c4:	00700693          	addi	a3,zero,7
   1c3c8:	00170713          	addi	a4,a4,1
   1c3cc:	04e12223          	sw	a4,68(sp)
   1c3d0:	008d8813          	addi	a6,s11,8
   1c3d4:	00e6de63          	bge	a3,a4,1c3f0 <_vfiprintf_r+0x818>
   1c3d8:	04010613          	addi	a2,sp,64
   1c3dc:	00040593          	addi	a1,s0,0
   1c3e0:	00098513          	addi	a0,s3,0
   1c3e4:	ef8ff0ef          	jal	ra,1badc <__sprint_r>
   1c3e8:	3e051a63          	bne	a0,zero,1c7dc <_vfiprintf_r+0xc04>
   1c3ec:	000b8813          	addi	a6,s7,0
   1c3f0:	004d7793          	andi	a5,s10,4
   1c3f4:	38079863          	bne	a5,zero,1c784 <_vfiprintf_r+0xbac>
   1c3f8:	00412783          	lw	a5,4(sp)
   1c3fc:	00fb5463          	bge	s6,a5,1c404 <_vfiprintf_r+0x82c>
   1c400:	00078b13          	addi	s6,a5,0
   1c404:	04812783          	lw	a5,72(sp)
   1c408:	016c0c33          	add	s8,s8,s6
   1c40c:	00078c63          	beq	a5,zero,1c424 <_vfiprintf_r+0x84c>
   1c410:	04010613          	addi	a2,sp,64
   1c414:	00040593          	addi	a1,s0,0
   1c418:	00098513          	addi	a0,s3,0
   1c41c:	ec0ff0ef          	jal	ra,1badc <__sprint_r>
   1c420:	3a051e63          	bne	a0,zero,1c7dc <_vfiprintf_r+0xc04>
   1c424:	04012223          	sw	zero,68(sp)
   1c428:	000c8493          	addi	s1,s9,0
   1c42c:	000b8d93          	addi	s11,s7,0
   1c430:	915ff06f          	jal	zero,1bd44 <_vfiprintf_r+0x16c>
   1c434:	00048513          	addi	a0,s1,0
   1c438:	b24f60ef          	jal	ra,1275c <strlen>
   1c43c:	00050913          	addi	s2,a0,0
   1c440:	00000a93          	addi	s5,zero,0
   1c444:	d49ff06f          	jal	zero,1c18c <_vfiprintf_r+0x5b4>
   1c448:	010d6d13          	ori	s10,s10,16
   1c44c:	020d7713          	andi	a4,s10,32
   1c450:	02070063          	beq	a4,zero,1c470 <_vfiprintf_r+0x898>
   1c454:	00748493          	addi	s1,s1,7
   1c458:	ff84f493          	andi	s1,s1,-8
   1c45c:	0004a703          	lw	a4,0(s1)
   1c460:	0044aa83          	lw	s5,4(s1)
   1c464:	00848c93          	addi	s9,s1,8
   1c468:	00100693          	addi	a3,zero,1
   1c46c:	c81ff06f          	jal	zero,1c0ec <_vfiprintf_r+0x514>
   1c470:	010d7713          	andi	a4,s10,16
   1c474:	00448c93          	addi	s9,s1,4
   1c478:	00070663          	beq	a4,zero,1c484 <_vfiprintf_r+0x8ac>
   1c47c:	0004a703          	lw	a4,0(s1)
   1c480:	0100006f          	jal	zero,1c490 <_vfiprintf_r+0x8b8>
   1c484:	040d7713          	andi	a4,s10,64
   1c488:	00070863          	beq	a4,zero,1c498 <_vfiprintf_r+0x8c0>
   1c48c:	0004d703          	lhu	a4,0(s1)
   1c490:	00000a93          	addi	s5,zero,0
   1c494:	fd5ff06f          	jal	zero,1c468 <_vfiprintf_r+0x890>
   1c498:	200d7713          	andi	a4,s10,512
   1c49c:	fe0700e3          	beq	a4,zero,1c47c <_vfiprintf_r+0x8a4>
   1c4a0:	0004c703          	lbu	a4,0(s1)
   1c4a4:	fedff06f          	jal	zero,1c490 <_vfiprintf_r+0x8b8>
   1c4a8:	00023737          	lui	a4,0x23
   1c4ac:	5ec70793          	addi	a5,a4,1516 # 235ec <zeroes.4514+0x34>
   1c4b0:	955ff06f          	jal	zero,1be04 <_vfiprintf_r+0x22c>
   1c4b4:	010d7713          	andi	a4,s10,16
   1c4b8:	00448c93          	addi	s9,s1,4
   1c4bc:	00070663          	beq	a4,zero,1c4c8 <_vfiprintf_r+0x8f0>
   1c4c0:	0004a703          	lw	a4,0(s1)
   1c4c4:	0100006f          	jal	zero,1c4d4 <_vfiprintf_r+0x8fc>
   1c4c8:	040d7713          	andi	a4,s10,64
   1c4cc:	00070863          	beq	a4,zero,1c4dc <_vfiprintf_r+0x904>
   1c4d0:	0004d703          	lhu	a4,0(s1)
   1c4d4:	00000a93          	addi	s5,zero,0
   1c4d8:	94dff06f          	jal	zero,1be24 <_vfiprintf_r+0x24c>
   1c4dc:	200d7713          	andi	a4,s10,512
   1c4e0:	fe0700e3          	beq	a4,zero,1c4c0 <_vfiprintf_r+0x8e8>
   1c4e4:	0004c703          	lbu	a4,0(s1)
   1c4e8:	fedff06f          	jal	zero,1c4d4 <_vfiprintf_r+0x8fc>
   1c4ec:	000d0613          	addi	a2,s10,0
   1c4f0:	00100693          	addi	a3,zero,1
   1c4f4:	b21ff06f          	jal	zero,1c014 <_vfiprintf_r+0x43c>
   1c4f8:	00100613          	addi	a2,zero,1
   1c4fc:	34c68663          	beq	a3,a2,1c848 <_vfiprintf_r+0xc70>
   1c500:	00200613          	addi	a2,zero,2
   1c504:	14c68663          	beq	a3,a2,1c650 <_vfiprintf_r+0xa78>
   1c508:	0f010693          	addi	a3,sp,240
   1c50c:	01da9593          	slli	a1,s5,0x1d
   1c510:	00777613          	andi	a2,a4,7
   1c514:	00375713          	srli	a4,a4,0x3
   1c518:	03060613          	addi	a2,a2,48
   1c51c:	00e5e733          	or	a4,a1,a4
   1c520:	003ada93          	srli	s5,s5,0x3
   1c524:	fec68fa3          	sb	a2,-1(a3)
   1c528:	015765b3          	or	a1,a4,s5
   1c52c:	fff68493          	addi	s1,a3,-1
   1c530:	02059663          	bne	a1,zero,1c55c <_vfiprintf_r+0x984>
   1c534:	001d7713          	andi	a4,s10,1
   1c538:	00070a63          	beq	a4,zero,1c54c <_vfiprintf_r+0x974>
   1c53c:	03000713          	addi	a4,zero,48
   1c540:	00e60663          	beq	a2,a4,1c54c <_vfiprintf_r+0x974>
   1c544:	fee48fa3          	sb	a4,-1(s1)
   1c548:	ffe68493          	addi	s1,a3,-2
   1c54c:	0f010793          	addi	a5,sp,240
   1c550:	00090a93          	addi	s5,s2,0
   1c554:	40978933          	sub	s2,a5,s1
   1c558:	c35ff06f          	jal	zero,1c18c <_vfiprintf_r+0x5b4>
   1c55c:	00048693          	addi	a3,s1,0
   1c560:	fadff06f          	jal	zero,1c50c <_vfiprintf_r+0x934>
   1c564:	400d7793          	andi	a5,s10,1024
   1c568:	00000313          	addi	t1,zero,0
   1c56c:	0f010e13          	addi	t3,sp,240
   1c570:	00f12223          	sw	a5,4(sp)
   1c574:	00070513          	addi	a0,a4,0
   1c578:	00a00613          	addi	a2,zero,10
   1c57c:	00000693          	addi	a3,zero,0
   1c580:	000a8593          	addi	a1,s5,0
   1c584:	02612623          	sw	t1,44(sp)
   1c588:	fffe0493          	addi	s1,t3,-1
   1c58c:	03c12223          	sw	t3,36(sp)
   1c590:	02e12023          	sw	a4,32(sp)
   1c594:	1f8020ef          	jal	ra,1e78c <__umoddi3>
   1c598:	02412e03          	lw	t3,36(sp)
   1c59c:	02c12303          	lw	t1,44(sp)
   1c5a0:	00412783          	lw	a5,4(sp)
   1c5a4:	03050513          	addi	a0,a0,48
   1c5a8:	feae0fa3          	sb	a0,-1(t3)
   1c5ac:	00130313          	addi	t1,t1,1
   1c5b0:	02012703          	lw	a4,32(sp)
   1c5b4:	04078e63          	beq	a5,zero,1c610 <_vfiprintf_r+0xa38>
   1c5b8:	00812783          	lw	a5,8(sp)
   1c5bc:	0007c683          	lbu	a3,0(a5)
   1c5c0:	04669863          	bne	a3,t1,1c610 <_vfiprintf_r+0xa38>
   1c5c4:	0ff00793          	addi	a5,zero,255
   1c5c8:	04f30463          	beq	t1,a5,1c610 <_vfiprintf_r+0xa38>
   1c5cc:	000a9663          	bne	s5,zero,1c5d8 <_vfiprintf_r+0xa00>
   1c5d0:	00900793          	addi	a5,zero,9
   1c5d4:	02e7fe63          	bgeu	a5,a4,1c610 <_vfiprintf_r+0xa38>
   1c5d8:	01012783          	lw	a5,16(sp)
   1c5dc:	01c12583          	lw	a1,28(sp)
   1c5e0:	02e12023          	sw	a4,32(sp)
   1c5e4:	40f484b3          	sub	s1,s1,a5
   1c5e8:	00078613          	addi	a2,a5,0
   1c5ec:	00048513          	addi	a0,s1,0
   1c5f0:	d5cfd0ef          	jal	ra,19b4c <strncpy>
   1c5f4:	00812783          	lw	a5,8(sp)
   1c5f8:	00000313          	addi	t1,zero,0
   1c5fc:	02012703          	lw	a4,32(sp)
   1c600:	0017c683          	lbu	a3,1(a5)
   1c604:	00068663          	beq	a3,zero,1c610 <_vfiprintf_r+0xa38>
   1c608:	00178793          	addi	a5,a5,1
   1c60c:	00f12423          	sw	a5,8(sp)
   1c610:	00070513          	addi	a0,a4,0
   1c614:	00a00613          	addi	a2,zero,10
   1c618:	00000693          	addi	a3,zero,0
   1c61c:	000a8593          	addi	a1,s5,0
   1c620:	02612223          	sw	t1,36(sp)
   1c624:	02e12023          	sw	a4,32(sp)
   1c628:	391010ef          	jal	ra,1e1b8 <__udivdi3>
   1c62c:	02012703          	lw	a4,32(sp)
   1c630:	02412303          	lw	t1,36(sp)
   1c634:	000a9663          	bne	s5,zero,1c640 <_vfiprintf_r+0xa68>
   1c638:	00900793          	addi	a5,zero,9
   1c63c:	f0e7f8e3          	bgeu	a5,a4,1c54c <_vfiprintf_r+0x974>
   1c640:	00050713          	addi	a4,a0,0
   1c644:	00058a93          	addi	s5,a1,0
   1c648:	00048e13          	addi	t3,s1,0
   1c64c:	f29ff06f          	jal	zero,1c574 <_vfiprintf_r+0x99c>
   1c650:	0f010493          	addi	s1,sp,240
   1c654:	00c12783          	lw	a5,12(sp)
   1c658:	00f77693          	andi	a3,a4,15
   1c65c:	fff48493          	addi	s1,s1,-1
   1c660:	00d786b3          	add	a3,a5,a3
   1c664:	0006c683          	lbu	a3,0(a3)
   1c668:	00475713          	srli	a4,a4,0x4
   1c66c:	00d48023          	sb	a3,0(s1)
   1c670:	01ca9693          	slli	a3,s5,0x1c
   1c674:	00e6e733          	or	a4,a3,a4
   1c678:	004ada93          	srli	s5,s5,0x4
   1c67c:	015766b3          	or	a3,a4,s5
   1c680:	fc069ae3          	bne	a3,zero,1c654 <_vfiprintf_r+0xa7c>
   1c684:	ec9ff06f          	jal	zero,1c54c <_vfiprintf_r+0x974>
   1c688:	0f010493          	addi	s1,sp,240
   1c68c:	ec0690e3          	bne	a3,zero,1c54c <_vfiprintf_r+0x974>
   1c690:	00167613          	andi	a2,a2,1
   1c694:	ea060ce3          	beq	a2,zero,1c54c <_vfiprintf_r+0x974>
   1c698:	03000713          	addi	a4,zero,48
   1c69c:	1bc0006f          	jal	zero,1c858 <_vfiprintf_r+0xc80>
   1c6a0:	18060263          	beq	a2,zero,1c824 <_vfiprintf_r+0xc4c>
   1c6a4:	08c10623          	sb	a2,140(sp)
   1c6a8:	02010da3          	sb	zero,59(sp)
   1c6ac:	00048c93          	addi	s9,s1,0
   1c6b0:	909ff06f          	jal	zero,1bfb8 <_vfiprintf_r+0x3e0>
   1c6b4:	01060613          	addi	a2,a2,16
   1c6b8:	011da223          	sw	a7,4(s11)
   1c6bc:	04c12423          	sw	a2,72(sp)
   1c6c0:	04d12223          	sw	a3,68(sp)
   1c6c4:	02d35663          	bge	t1,a3,1c6f0 <_vfiprintf_r+0xb18>
   1c6c8:	04010613          	addi	a2,sp,64
   1c6cc:	00040593          	addi	a1,s0,0
   1c6d0:	00098513          	addi	a0,s3,0
   1c6d4:	02e12623          	sw	a4,44(sp)
   1c6d8:	c04ff0ef          	jal	ra,1badc <__sprint_r>
   1c6dc:	10051063          	bne	a0,zero,1c7dc <_vfiprintf_r+0xc04>
   1c6e0:	02c12703          	lw	a4,44(sp)
   1c6e4:	000b8593          	addi	a1,s7,0
   1c6e8:	00700313          	addi	t1,zero,7
   1c6ec:	01000893          	addi	a7,zero,16
   1c6f0:	ff070713          	addi	a4,a4,-16
   1c6f4:	00058d93          	addi	s11,a1,0
   1c6f8:	aedff06f          	jal	zero,1c1e4 <_vfiprintf_r+0x60c>
   1c6fc:	01060613          	addi	a2,a2,16
   1c700:	011da223          	sw	a7,4(s11)
   1c704:	04c12423          	sw	a2,72(sp)
   1c708:	04d12223          	sw	a3,68(sp)
   1c70c:	02d35663          	bge	t1,a3,1c738 <_vfiprintf_r+0xb60>
   1c710:	04010613          	addi	a2,sp,64
   1c714:	00040593          	addi	a1,s0,0
   1c718:	00098513          	addi	a0,s3,0
   1c71c:	02e12023          	sw	a4,32(sp)
   1c720:	bbcff0ef          	jal	ra,1badc <__sprint_r>
   1c724:	0a051c63          	bne	a0,zero,1c7dc <_vfiprintf_r+0xc04>
   1c728:	02012703          	lw	a4,32(sp)
   1c72c:	000b8593          	addi	a1,s7,0
   1c730:	00700313          	addi	t1,zero,7
   1c734:	01000893          	addi	a7,zero,16
   1c738:	ff070713          	addi	a4,a4,-16
   1c73c:	00058d93          	addi	s11,a1,0
   1c740:	bbdff06f          	jal	zero,1c2fc <_vfiprintf_r+0x724>
   1c744:	01068693          	addi	a3,a3,16
   1c748:	011da223          	sw	a7,4(s11)
   1c74c:	04d12423          	sw	a3,72(sp)
   1c750:	04e12223          	sw	a4,68(sp)
   1c754:	02e35263          	bge	t1,a4,1c778 <_vfiprintf_r+0xba0>
   1c758:	04010613          	addi	a2,sp,64
   1c75c:	00040593          	addi	a1,s0,0
   1c760:	00098513          	addi	a0,s3,0
   1c764:	b78ff0ef          	jal	ra,1badc <__sprint_r>
   1c768:	06051a63          	bne	a0,zero,1c7dc <_vfiprintf_r+0xc04>
   1c76c:	000b8613          	addi	a2,s7,0
   1c770:	00700313          	addi	t1,zero,7
   1c774:	01000893          	addi	a7,zero,16
   1c778:	ff0a8a93          	addi	s5,s5,-16
   1c77c:	00060d93          	addi	s11,a2,0
   1c780:	bddff06f          	jal	zero,1c35c <_vfiprintf_r+0x784>
   1c784:	00412783          	lw	a5,4(sp)
   1c788:	40fb04b3          	sub	s1,s6,a5
   1c78c:	c69056e3          	bge	zero,s1,1c3f8 <_vfiprintf_r+0x820>
   1c790:	01000913          	addi	s2,zero,16
   1c794:	00700a93          	addi	s5,zero,7
   1c798:	01812683          	lw	a3,24(sp)
   1c79c:	04412783          	lw	a5,68(sp)
   1c7a0:	04812703          	lw	a4,72(sp)
   1c7a4:	00d82023          	sw	a3,0(a6) # 7ff00000 <__BSS_END__+0x7feda408>
   1c7a8:	00178793          	addi	a5,a5,1
   1c7ac:	04994063          	blt	s2,s1,1c7ec <_vfiprintf_r+0xc14>
   1c7b0:	00982223          	sw	s1,4(a6)
   1c7b4:	00e484b3          	add	s1,s1,a4
   1c7b8:	04912423          	sw	s1,72(sp)
   1c7bc:	04f12223          	sw	a5,68(sp)
   1c7c0:	00700713          	addi	a4,zero,7
   1c7c4:	c2f75ae3          	bge	a4,a5,1c3f8 <_vfiprintf_r+0x820>
   1c7c8:	04010613          	addi	a2,sp,64
   1c7cc:	00040593          	addi	a1,s0,0
   1c7d0:	00098513          	addi	a0,s3,0
   1c7d4:	b08ff0ef          	jal	ra,1badc <__sprint_r>
   1c7d8:	c20500e3          	beq	a0,zero,1c3f8 <_vfiprintf_r+0x820>
   1c7dc:	00c45783          	lhu	a5,12(s0)
   1c7e0:	0407f793          	andi	a5,a5,64
   1c7e4:	cc078a63          	beq	a5,zero,1bcb8 <_vfiprintf_r+0xe0>
   1c7e8:	cccff06f          	jal	zero,1bcb4 <_vfiprintf_r+0xdc>
   1c7ec:	01070713          	addi	a4,a4,16
   1c7f0:	01282223          	sw	s2,4(a6)
   1c7f4:	04e12423          	sw	a4,72(sp)
   1c7f8:	04f12223          	sw	a5,68(sp)
   1c7fc:	00880813          	addi	a6,a6,8
   1c800:	00fade63          	bge	s5,a5,1c81c <_vfiprintf_r+0xc44>
   1c804:	04010613          	addi	a2,sp,64
   1c808:	00040593          	addi	a1,s0,0
   1c80c:	00098513          	addi	a0,s3,0
   1c810:	accff0ef          	jal	ra,1badc <__sprint_r>
   1c814:	fc0514e3          	bne	a0,zero,1c7dc <_vfiprintf_r+0xc04>
   1c818:	000b8813          	addi	a6,s7,0
   1c81c:	ff048493          	addi	s1,s1,-16
   1c820:	f79ff06f          	jal	zero,1c798 <_vfiprintf_r+0xbc0>
   1c824:	04812783          	lw	a5,72(sp)
   1c828:	fa078ae3          	beq	a5,zero,1c7dc <_vfiprintf_r+0xc04>
   1c82c:	04010613          	addi	a2,sp,64
   1c830:	00040593          	addi	a1,s0,0
   1c834:	00098513          	addi	a0,s3,0
   1c838:	aa4ff0ef          	jal	ra,1badc <__sprint_r>
   1c83c:	fa1ff06f          	jal	zero,1c7dc <_vfiprintf_r+0xc04>
   1c840:	fff00693          	addi	a3,zero,-1
   1c844:	cad914e3          	bne	s2,a3,1c4ec <_vfiprintf_r+0x914>
   1c848:	d00a9ee3          	bne	s5,zero,1c564 <_vfiprintf_r+0x98c>
   1c84c:	00900693          	addi	a3,zero,9
   1c850:	d0e6eae3          	bltu	a3,a4,1c564 <_vfiprintf_r+0x98c>
   1c854:	03070713          	addi	a4,a4,48
   1c858:	0ee107a3          	sb	a4,239(sp)
   1c85c:	0ef10493          	addi	s1,sp,239
   1c860:	cedff06f          	jal	zero,1c54c <_vfiprintf_r+0x974>

0001c864 <vfiprintf>:
   1c864:	00060693          	addi	a3,a2,0
   1c868:	00058613          	addi	a2,a1,0
   1c86c:	00050593          	addi	a1,a0,0
   1c870:	1c01a503          	lw	a0,448(gp) # 25b90 <_impure_ptr>
   1c874:	b64ff06f          	jal	zero,1bbd8 <_vfiprintf_r>

0001c878 <__sbprintf>:
   1c878:	00c5d783          	lhu	a5,12(a1)
   1c87c:	b8010113          	addi	sp,sp,-1152
   1c880:	46812c23          	sw	s0,1144(sp)
   1c884:	ffd7f793          	andi	a5,a5,-3
   1c888:	00f11a23          	sh	a5,20(sp)
   1c88c:	0645a783          	lw	a5,100(a1)
   1c890:	00058413          	addi	s0,a1,0
   1c894:	46912a23          	sw	s1,1140(sp)
   1c898:	06f12623          	sw	a5,108(sp)
   1c89c:	00e5d783          	lhu	a5,14(a1)
   1c8a0:	47212823          	sw	s2,1136(sp)
   1c8a4:	46112e23          	sw	ra,1148(sp)
   1c8a8:	00f11b23          	sh	a5,22(sp)
   1c8ac:	01c5a783          	lw	a5,28(a1)
   1c8b0:	00050913          	addi	s2,a0,0
   1c8b4:	02012023          	sw	zero,32(sp)
   1c8b8:	02f12223          	sw	a5,36(sp)
   1c8bc:	0245a783          	lw	a5,36(a1)
   1c8c0:	00810593          	addi	a1,sp,8
   1c8c4:	02f12623          	sw	a5,44(sp)
   1c8c8:	07010793          	addi	a5,sp,112
   1c8cc:	00f12423          	sw	a5,8(sp)
   1c8d0:	00f12c23          	sw	a5,24(sp)
   1c8d4:	40000793          	addi	a5,zero,1024
   1c8d8:	00f12823          	sw	a5,16(sp)
   1c8dc:	00f12e23          	sw	a5,28(sp)
   1c8e0:	af8ff0ef          	jal	ra,1bbd8 <_vfiprintf_r>
   1c8e4:	00050493          	addi	s1,a0,0
   1c8e8:	00054c63          	blt	a0,zero,1c900 <__sbprintf+0x88>
   1c8ec:	00810593          	addi	a1,sp,8
   1c8f0:	00090513          	addi	a0,s2,0
   1c8f4:	b84f80ef          	jal	ra,14c78 <_fflush_r>
   1c8f8:	00050463          	beq	a0,zero,1c900 <__sbprintf+0x88>
   1c8fc:	fff00493          	addi	s1,zero,-1
   1c900:	01415783          	lhu	a5,20(sp)
   1c904:	0407f793          	andi	a5,a5,64
   1c908:	00078863          	beq	a5,zero,1c918 <__sbprintf+0xa0>
   1c90c:	00c45783          	lhu	a5,12(s0)
   1c910:	0407e793          	ori	a5,a5,64
   1c914:	00f41623          	sh	a5,12(s0)
   1c918:	47c12083          	lw	ra,1148(sp)
   1c91c:	47812403          	lw	s0,1144(sp)
   1c920:	00048513          	addi	a0,s1,0
   1c924:	47012903          	lw	s2,1136(sp)
   1c928:	47412483          	lw	s1,1140(sp)
   1c92c:	48010113          	addi	sp,sp,1152
   1c930:	00008067          	jalr	zero,0(ra)

0001c934 <_wctomb_r>:
   1c934:	1c01a783          	lw	a5,448(gp) # 25b90 <_impure_ptr>
   1c938:	0347a783          	lw	a5,52(a5)
   1c93c:	00079463          	bne	a5,zero,1c944 <_wctomb_r+0x10>
   1c940:	c2818793          	addi	a5,gp,-984 # 255f8 <__global_locale>
   1c944:	0e07a303          	lw	t1,224(a5)
   1c948:	00030067          	jalr	zero,0(t1)

0001c94c <__ascii_wctomb>:
   1c94c:	02058463          	beq	a1,zero,1c974 <__ascii_wctomb+0x28>
   1c950:	0ff00793          	addi	a5,zero,255
   1c954:	00c7fa63          	bgeu	a5,a2,1c968 <__ascii_wctomb+0x1c>
   1c958:	08a00793          	addi	a5,zero,138
   1c95c:	00f52023          	sw	a5,0(a0)
   1c960:	fff00513          	addi	a0,zero,-1
   1c964:	00008067          	jalr	zero,0(ra)
   1c968:	00c58023          	sb	a2,0(a1)
   1c96c:	00100513          	addi	a0,zero,1
   1c970:	00008067          	jalr	zero,0(ra)
   1c974:	00000513          	addi	a0,zero,0
   1c978:	00008067          	jalr	zero,0(ra)

0001c97c <_write_r>:
   1c97c:	ff010113          	addi	sp,sp,-16
   1c980:	00812423          	sw	s0,8(sp)
   1c984:	00912223          	sw	s1,4(sp)
   1c988:	00050493          	addi	s1,a0,0
   1c98c:	00058513          	addi	a0,a1,0
   1c990:	00060593          	addi	a1,a2,0
   1c994:	00068613          	addi	a2,a3,0
   1c998:	00112623          	sw	ra,12(sp)
   1c99c:	2201a223          	sw	zero,548(gp) # 25bf4 <errno>
   1c9a0:	740010ef          	jal	ra,1e0e0 <_write>
   1c9a4:	fff00793          	addi	a5,zero,-1
   1c9a8:	00f51863          	bne	a0,a5,1c9b8 <_write_r+0x3c>
   1c9ac:	2241a783          	lw	a5,548(gp) # 25bf4 <errno>
   1c9b0:	00078463          	beq	a5,zero,1c9b8 <_write_r+0x3c>
   1c9b4:	00f4a023          	sw	a5,0(s1)
   1c9b8:	00c12083          	lw	ra,12(sp)
   1c9bc:	00812403          	lw	s0,8(sp)
   1c9c0:	00412483          	lw	s1,4(sp)
   1c9c4:	01010113          	addi	sp,sp,16
   1c9c8:	00008067          	jalr	zero,0(ra)

0001c9cc <_calloc_r>:
   1c9cc:	ff010113          	addi	sp,sp,-16
   1c9d0:	00812423          	sw	s0,8(sp)
   1c9d4:	00050413          	addi	s0,a0,0
   1c9d8:	00058513          	addi	a0,a1,0
   1c9dc:	00060593          	addi	a1,a2,0
   1c9e0:	00112623          	sw	ra,12(sp)
   1c9e4:	550060ef          	jal	ra,22f34 <__mulsi3>
   1c9e8:	00050593          	addi	a1,a0,0
   1c9ec:	00040513          	addi	a0,s0,0
   1c9f0:	8ecfb0ef          	jal	ra,17adc <_malloc_r>
   1c9f4:	00050413          	addi	s0,a0,0
   1c9f8:	04050263          	beq	a0,zero,1ca3c <_calloc_r+0x70>
   1c9fc:	ffc52603          	lw	a2,-4(a0)
   1ca00:	02400713          	addi	a4,zero,36
   1ca04:	ffc67613          	andi	a2,a2,-4
   1ca08:	ffc60613          	addi	a2,a2,-4
   1ca0c:	06c76263          	bltu	a4,a2,1ca70 <_calloc_r+0xa4>
   1ca10:	01300693          	addi	a3,zero,19
   1ca14:	00050793          	addi	a5,a0,0
   1ca18:	00c6fc63          	bgeu	a3,a2,1ca30 <_calloc_r+0x64>
   1ca1c:	00052023          	sw	zero,0(a0)
   1ca20:	00052223          	sw	zero,4(a0)
   1ca24:	01b00793          	addi	a5,zero,27
   1ca28:	02c7e463          	bltu	a5,a2,1ca50 <_calloc_r+0x84>
   1ca2c:	00850793          	addi	a5,a0,8
   1ca30:	0007a023          	sw	zero,0(a5)
   1ca34:	0007a223          	sw	zero,4(a5)
   1ca38:	0007a423          	sw	zero,8(a5)
   1ca3c:	00040513          	addi	a0,s0,0
   1ca40:	00c12083          	lw	ra,12(sp)
   1ca44:	00812403          	lw	s0,8(sp)
   1ca48:	01010113          	addi	sp,sp,16
   1ca4c:	00008067          	jalr	zero,0(ra)
   1ca50:	00052423          	sw	zero,8(a0)
   1ca54:	00052623          	sw	zero,12(a0)
   1ca58:	01050793          	addi	a5,a0,16
   1ca5c:	fce61ae3          	bne	a2,a4,1ca30 <_calloc_r+0x64>
   1ca60:	00052823          	sw	zero,16(a0)
   1ca64:	01850793          	addi	a5,a0,24
   1ca68:	00052a23          	sw	zero,20(a0)
   1ca6c:	fc5ff06f          	jal	zero,1ca30 <_calloc_r+0x64>
   1ca70:	00000593          	addi	a1,zero,0
   1ca74:	aa1f30ef          	jal	ra,10514 <memset>
   1ca78:	fc5ff06f          	jal	zero,1ca3c <_calloc_r+0x70>

0001ca7c <_close_r>:
   1ca7c:	ff010113          	addi	sp,sp,-16
   1ca80:	00812423          	sw	s0,8(sp)
   1ca84:	00912223          	sw	s1,4(sp)
   1ca88:	00050493          	addi	s1,a0,0
   1ca8c:	00058513          	addi	a0,a1,0
   1ca90:	00112623          	sw	ra,12(sp)
   1ca94:	2201a223          	sw	zero,548(gp) # 25bf4 <errno>
   1ca98:	3ac010ef          	jal	ra,1de44 <_close>
   1ca9c:	fff00793          	addi	a5,zero,-1
   1caa0:	00f51863          	bne	a0,a5,1cab0 <_close_r+0x34>
   1caa4:	2241a783          	lw	a5,548(gp) # 25bf4 <errno>
   1caa8:	00078463          	beq	a5,zero,1cab0 <_close_r+0x34>
   1caac:	00f4a023          	sw	a5,0(s1)
   1cab0:	00c12083          	lw	ra,12(sp)
   1cab4:	00812403          	lw	s0,8(sp)
   1cab8:	00412483          	lw	s1,4(sp)
   1cabc:	01010113          	addi	sp,sp,16
   1cac0:	00008067          	jalr	zero,0(ra)

0001cac4 <_fclose_r>:
   1cac4:	ff010113          	addi	sp,sp,-16
   1cac8:	00112623          	sw	ra,12(sp)
   1cacc:	00812423          	sw	s0,8(sp)
   1cad0:	00912223          	sw	s1,4(sp)
   1cad4:	01212023          	sw	s2,0(sp)
   1cad8:	02059263          	bne	a1,zero,1cafc <_fclose_r+0x38>
   1cadc:	00000913          	addi	s2,zero,0
   1cae0:	00c12083          	lw	ra,12(sp)
   1cae4:	00812403          	lw	s0,8(sp)
   1cae8:	00090513          	addi	a0,s2,0
   1caec:	00412483          	lw	s1,4(sp)
   1caf0:	00012903          	lw	s2,0(sp)
   1caf4:	01010113          	addi	sp,sp,16
   1caf8:	00008067          	jalr	zero,0(ra)
   1cafc:	00050493          	addi	s1,a0,0
   1cb00:	00058413          	addi	s0,a1,0
   1cb04:	00050863          	beq	a0,zero,1cb14 <_fclose_r+0x50>
   1cb08:	03852783          	lw	a5,56(a0)
   1cb0c:	00079463          	bne	a5,zero,1cb14 <_fclose_r+0x50>
   1cb10:	b04f80ef          	jal	ra,14e14 <__sinit>
   1cb14:	00c41783          	lh	a5,12(s0)
   1cb18:	fc0782e3          	beq	a5,zero,1cadc <_fclose_r+0x18>
   1cb1c:	00040593          	addi	a1,s0,0
   1cb20:	00048513          	addi	a0,s1,0
   1cb24:	f4df70ef          	jal	ra,14a70 <__sflush_r>
   1cb28:	02c42783          	lw	a5,44(s0)
   1cb2c:	00050913          	addi	s2,a0,0
   1cb30:	00078c63          	beq	a5,zero,1cb48 <_fclose_r+0x84>
   1cb34:	01c42583          	lw	a1,28(s0)
   1cb38:	00048513          	addi	a0,s1,0
   1cb3c:	000780e7          	jalr	ra,0(a5)
   1cb40:	00055463          	bge	a0,zero,1cb48 <_fclose_r+0x84>
   1cb44:	fff00913          	addi	s2,zero,-1
   1cb48:	00c45783          	lhu	a5,12(s0)
   1cb4c:	0807f793          	andi	a5,a5,128
   1cb50:	00078863          	beq	a5,zero,1cb60 <_fclose_r+0x9c>
   1cb54:	01042583          	lw	a1,16(s0)
   1cb58:	00048513          	addi	a0,s1,0
   1cb5c:	d5cf80ef          	jal	ra,150b8 <_free_r>
   1cb60:	03042583          	lw	a1,48(s0)
   1cb64:	00058c63          	beq	a1,zero,1cb7c <_fclose_r+0xb8>
   1cb68:	04040793          	addi	a5,s0,64
   1cb6c:	00f58663          	beq	a1,a5,1cb78 <_fclose_r+0xb4>
   1cb70:	00048513          	addi	a0,s1,0
   1cb74:	d44f80ef          	jal	ra,150b8 <_free_r>
   1cb78:	02042823          	sw	zero,48(s0)
   1cb7c:	04442583          	lw	a1,68(s0)
   1cb80:	00058863          	beq	a1,zero,1cb90 <_fclose_r+0xcc>
   1cb84:	00048513          	addi	a0,s1,0
   1cb88:	d30f80ef          	jal	ra,150b8 <_free_r>
   1cb8c:	04042223          	sw	zero,68(s0)
   1cb90:	bf0f80ef          	jal	ra,14f80 <__sfp_lock_acquire>
   1cb94:	00041623          	sh	zero,12(s0)
   1cb98:	becf80ef          	jal	ra,14f84 <__sfp_lock_release>
   1cb9c:	f45ff06f          	jal	zero,1cae0 <_fclose_r+0x1c>

0001cba0 <fclose>:
   1cba0:	00050593          	addi	a1,a0,0
   1cba4:	1c01a503          	lw	a0,448(gp) # 25b90 <_impure_ptr>
   1cba8:	f1dff06f          	jal	zero,1cac4 <_fclose_r>

0001cbac <__fputwc>:
   1cbac:	fd010113          	addi	sp,sp,-48
   1cbb0:	02812423          	sw	s0,40(sp)
   1cbb4:	02912223          	sw	s1,36(sp)
   1cbb8:	01412c23          	sw	s4,24(sp)
   1cbbc:	02112623          	sw	ra,44(sp)
   1cbc0:	03212023          	sw	s2,32(sp)
   1cbc4:	01312e23          	sw	s3,28(sp)
   1cbc8:	01512a23          	sw	s5,20(sp)
   1cbcc:	01612823          	sw	s6,16(sp)
   1cbd0:	00050a13          	addi	s4,a0,0
   1cbd4:	00058493          	addi	s1,a1,0
   1cbd8:	00060413          	addi	s0,a2,0
   1cbdc:	d2dfa0ef          	jal	ra,17908 <__locale_mb_cur_max>
   1cbe0:	00100793          	addi	a5,zero,1
   1cbe4:	04f51a63          	bne	a0,a5,1cc38 <__fputwc+0x8c>
   1cbe8:	fff48793          	addi	a5,s1,-1
   1cbec:	0fe00713          	addi	a4,zero,254
   1cbf0:	04f76463          	bltu	a4,a5,1cc38 <__fputwc+0x8c>
   1cbf4:	00910623          	sb	s1,12(sp)
   1cbf8:	00100993          	addi	s3,zero,1
   1cbfc:	00000913          	addi	s2,zero,0
   1cc00:	fff00a93          	addi	s5,zero,-1
   1cc04:	00a00b13          	addi	s6,zero,10
   1cc08:	07391263          	bne	s2,s3,1cc6c <__fputwc+0xc0>
   1cc0c:	00048513          	addi	a0,s1,0
   1cc10:	02c12083          	lw	ra,44(sp)
   1cc14:	02812403          	lw	s0,40(sp)
   1cc18:	02412483          	lw	s1,36(sp)
   1cc1c:	02012903          	lw	s2,32(sp)
   1cc20:	01c12983          	lw	s3,28(sp)
   1cc24:	01812a03          	lw	s4,24(sp)
   1cc28:	01412a83          	lw	s5,20(sp)
   1cc2c:	01012b03          	lw	s6,16(sp)
   1cc30:	03010113          	addi	sp,sp,48
   1cc34:	00008067          	jalr	zero,0(ra)
   1cc38:	05c40693          	addi	a3,s0,92
   1cc3c:	00048613          	addi	a2,s1,0
   1cc40:	00c10593          	addi	a1,sp,12
   1cc44:	000a0513          	addi	a0,s4,0
   1cc48:	168010ef          	jal	ra,1ddb0 <_wcrtomb_r>
   1cc4c:	fff00793          	addi	a5,zero,-1
   1cc50:	00050993          	addi	s3,a0,0
   1cc54:	faf514e3          	bne	a0,a5,1cbfc <__fputwc+0x50>
   1cc58:	00c45783          	lhu	a5,12(s0)
   1cc5c:	0407e793          	ori	a5,a5,64
   1cc60:	00f41623          	sh	a5,12(s0)
   1cc64:	fff00513          	addi	a0,zero,-1
   1cc68:	fa9ff06f          	jal	zero,1cc10 <__fputwc+0x64>
   1cc6c:	00c10793          	addi	a5,sp,12
   1cc70:	012787b3          	add	a5,a5,s2
   1cc74:	0007c583          	lbu	a1,0(a5)
   1cc78:	00842783          	lw	a5,8(s0)
   1cc7c:	fff78793          	addi	a5,a5,-1
   1cc80:	00f42423          	sw	a5,8(s0)
   1cc84:	0007d863          	bge	a5,zero,1cc94 <__fputwc+0xe8>
   1cc88:	01842703          	lw	a4,24(s0)
   1cc8c:	02e7c063          	blt	a5,a4,1ccac <__fputwc+0x100>
   1cc90:	01658e63          	beq	a1,s6,1ccac <__fputwc+0x100>
   1cc94:	00042783          	lw	a5,0(s0)
   1cc98:	00178713          	addi	a4,a5,1
   1cc9c:	00e42023          	sw	a4,0(s0)
   1cca0:	00b78023          	sb	a1,0(a5)
   1cca4:	00190913          	addi	s2,s2,1
   1cca8:	f61ff06f          	jal	zero,1cc08 <__fputwc+0x5c>
   1ccac:	00040613          	addi	a2,s0,0
   1ccb0:	000a0513          	addi	a0,s4,0
   1ccb4:	b49f70ef          	jal	ra,147fc <__swbuf_r>
   1ccb8:	ff5516e3          	bne	a0,s5,1cca4 <__fputwc+0xf8>
   1ccbc:	fa9ff06f          	jal	zero,1cc64 <__fputwc+0xb8>

0001ccc0 <_fputwc_r>:
   1ccc0:	00c61783          	lh	a5,12(a2)
   1ccc4:	01279713          	slli	a4,a5,0x12
   1ccc8:	02074063          	blt	a4,zero,1cce8 <_fputwc_r+0x28>
   1cccc:	06462703          	lw	a4,100(a2)
   1ccd0:	000026b7          	lui	a3,0x2
   1ccd4:	00d7e7b3          	or	a5,a5,a3
   1ccd8:	00f61623          	sh	a5,12(a2)
   1ccdc:	000027b7          	lui	a5,0x2
   1cce0:	00f767b3          	or	a5,a4,a5
   1cce4:	06f62223          	sw	a5,100(a2)
   1cce8:	ec5ff06f          	jal	zero,1cbac <__fputwc>

0001ccec <fputwc>:
   1ccec:	fe010113          	addi	sp,sp,-32
   1ccf0:	00812c23          	sw	s0,24(sp)
   1ccf4:	1c01a403          	lw	s0,448(gp) # 25b90 <_impure_ptr>
   1ccf8:	00912a23          	sw	s1,20(sp)
   1ccfc:	00112e23          	sw	ra,28(sp)
   1cd00:	00050493          	addi	s1,a0,0
   1cd04:	00058613          	addi	a2,a1,0
   1cd08:	00040e63          	beq	s0,zero,1cd24 <fputwc+0x38>
   1cd0c:	03842783          	lw	a5,56(s0)
   1cd10:	00079a63          	bne	a5,zero,1cd24 <fputwc+0x38>
   1cd14:	00040513          	addi	a0,s0,0
   1cd18:	00b12623          	sw	a1,12(sp)
   1cd1c:	8f8f80ef          	jal	ra,14e14 <__sinit>
   1cd20:	00c12603          	lw	a2,12(sp)
   1cd24:	00040513          	addi	a0,s0,0
   1cd28:	01812403          	lw	s0,24(sp)
   1cd2c:	01c12083          	lw	ra,28(sp)
   1cd30:	00048593          	addi	a1,s1,0
   1cd34:	01412483          	lw	s1,20(sp)
   1cd38:	02010113          	addi	sp,sp,32
   1cd3c:	f85ff06f          	jal	zero,1ccc0 <_fputwc_r>

0001cd40 <_fstat_r>:
   1cd40:	ff010113          	addi	sp,sp,-16
   1cd44:	00812423          	sw	s0,8(sp)
   1cd48:	00912223          	sw	s1,4(sp)
   1cd4c:	00050493          	addi	s1,a0,0
   1cd50:	00058513          	addi	a0,a1,0
   1cd54:	00060593          	addi	a1,a2,0
   1cd58:	00112623          	sw	ra,12(sp)
   1cd5c:	2201a223          	sw	zero,548(gp) # 25bf4 <errno>
   1cd60:	17c010ef          	jal	ra,1dedc <_fstat>
   1cd64:	fff00793          	addi	a5,zero,-1
   1cd68:	00f51863          	bne	a0,a5,1cd78 <_fstat_r+0x38>
   1cd6c:	2241a783          	lw	a5,548(gp) # 25bf4 <errno>
   1cd70:	00078463          	beq	a5,zero,1cd78 <_fstat_r+0x38>
   1cd74:	00f4a023          	sw	a5,0(s1)
   1cd78:	00c12083          	lw	ra,12(sp)
   1cd7c:	00812403          	lw	s0,8(sp)
   1cd80:	00412483          	lw	s1,4(sp)
   1cd84:	01010113          	addi	sp,sp,16
   1cd88:	00008067          	jalr	zero,0(ra)

0001cd8c <_isatty_r>:
   1cd8c:	ff010113          	addi	sp,sp,-16
   1cd90:	00812423          	sw	s0,8(sp)
   1cd94:	00912223          	sw	s1,4(sp)
   1cd98:	00050493          	addi	s1,a0,0
   1cd9c:	00058513          	addi	a0,a1,0
   1cda0:	00112623          	sw	ra,12(sp)
   1cda4:	2201a223          	sw	zero,548(gp) # 25bf4 <errno>
   1cda8:	1a0010ef          	jal	ra,1df48 <_isatty>
   1cdac:	fff00793          	addi	a5,zero,-1
   1cdb0:	00f51863          	bne	a0,a5,1cdc0 <_isatty_r+0x34>
   1cdb4:	2241a783          	lw	a5,548(gp) # 25bf4 <errno>
   1cdb8:	00078463          	beq	a5,zero,1cdc0 <_isatty_r+0x34>
   1cdbc:	00f4a023          	sw	a5,0(s1)
   1cdc0:	00c12083          	lw	ra,12(sp)
   1cdc4:	00812403          	lw	s0,8(sp)
   1cdc8:	00412483          	lw	s1,4(sp)
   1cdcc:	01010113          	addi	sp,sp,16
   1cdd0:	00008067          	jalr	zero,0(ra)

0001cdd4 <_lseek_r>:
   1cdd4:	ff010113          	addi	sp,sp,-16
   1cdd8:	00812423          	sw	s0,8(sp)
   1cddc:	00912223          	sw	s1,4(sp)
   1cde0:	00050493          	addi	s1,a0,0
   1cde4:	00058513          	addi	a0,a1,0
   1cde8:	00060593          	addi	a1,a2,0
   1cdec:	00068613          	addi	a2,a3,0 # 2000 <main-0xe074>
   1cdf0:	00112623          	sw	ra,12(sp)
   1cdf4:	2201a223          	sw	zero,548(gp) # 25bf4 <errno>
   1cdf8:	188010ef          	jal	ra,1df80 <_lseek>
   1cdfc:	fff00793          	addi	a5,zero,-1
   1ce00:	00f51863          	bne	a0,a5,1ce10 <_lseek_r+0x3c>
   1ce04:	2241a783          	lw	a5,548(gp) # 25bf4 <errno>
   1ce08:	00078463          	beq	a5,zero,1ce10 <_lseek_r+0x3c>
   1ce0c:	00f4a023          	sw	a5,0(s1)
   1ce10:	00c12083          	lw	ra,12(sp)
   1ce14:	00812403          	lw	s0,8(sp)
   1ce18:	00412483          	lw	s1,4(sp)
   1ce1c:	01010113          	addi	sp,sp,16
   1ce20:	00008067          	jalr	zero,0(ra)

0001ce24 <_read_r>:
   1ce24:	ff010113          	addi	sp,sp,-16
   1ce28:	00812423          	sw	s0,8(sp)
   1ce2c:	00912223          	sw	s1,4(sp)
   1ce30:	00050493          	addi	s1,a0,0
   1ce34:	00058513          	addi	a0,a1,0
   1ce38:	00060593          	addi	a1,a2,0
   1ce3c:	00068613          	addi	a2,a3,0
   1ce40:	00112623          	sw	ra,12(sp)
   1ce44:	2201a223          	sw	zero,548(gp) # 25bf4 <errno>
   1ce48:	184010ef          	jal	ra,1dfcc <_read>
   1ce4c:	fff00793          	addi	a5,zero,-1
   1ce50:	00f51863          	bne	a0,a5,1ce60 <_read_r+0x3c>
   1ce54:	2241a783          	lw	a5,548(gp) # 25bf4 <errno>
   1ce58:	00078463          	beq	a5,zero,1ce60 <_read_r+0x3c>
   1ce5c:	00f4a023          	sw	a5,0(s1)
   1ce60:	00c12083          	lw	ra,12(sp)
   1ce64:	00812403          	lw	s0,8(sp)
   1ce68:	00412483          	lw	s1,4(sp)
   1ce6c:	01010113          	addi	sp,sp,16
   1ce70:	00008067          	jalr	zero,0(ra)

0001ce74 <cleanup_glue>:
   1ce74:	ff010113          	addi	sp,sp,-16
   1ce78:	00812423          	sw	s0,8(sp)
   1ce7c:	00058413          	addi	s0,a1,0
   1ce80:	0005a583          	lw	a1,0(a1)
   1ce84:	00912223          	sw	s1,4(sp)
   1ce88:	00112623          	sw	ra,12(sp)
   1ce8c:	00050493          	addi	s1,a0,0
   1ce90:	00058463          	beq	a1,zero,1ce98 <cleanup_glue+0x24>
   1ce94:	fe1ff0ef          	jal	ra,1ce74 <cleanup_glue>
   1ce98:	00040593          	addi	a1,s0,0
   1ce9c:	00812403          	lw	s0,8(sp)
   1cea0:	00c12083          	lw	ra,12(sp)
   1cea4:	00048513          	addi	a0,s1,0
   1cea8:	00412483          	lw	s1,4(sp)
   1ceac:	01010113          	addi	sp,sp,16
   1ceb0:	a08f806f          	jal	zero,150b8 <_free_r>

0001ceb4 <_reclaim_reent>:
   1ceb4:	1c01a783          	lw	a5,448(gp) # 25b90 <_impure_ptr>
   1ceb8:	10a78463          	beq	a5,a0,1cfc0 <_reclaim_reent+0x10c>
   1cebc:	04c52783          	lw	a5,76(a0)
   1cec0:	fe010113          	addi	sp,sp,-32
   1cec4:	00812c23          	sw	s0,24(sp)
   1cec8:	00912a23          	sw	s1,20(sp)
   1cecc:	01212823          	sw	s2,16(sp)
   1ced0:	00112e23          	sw	ra,28(sp)
   1ced4:	01312623          	sw	s3,12(sp)
   1ced8:	00050413          	addi	s0,a0,0
   1cedc:	00000493          	addi	s1,zero,0
   1cee0:	08000913          	addi	s2,zero,128
   1cee4:	06079a63          	bne	a5,zero,1cf58 <_reclaim_reent+0xa4>
   1cee8:	04042583          	lw	a1,64(s0)
   1ceec:	00058663          	beq	a1,zero,1cef8 <_reclaim_reent+0x44>
   1cef0:	00040513          	addi	a0,s0,0
   1cef4:	9c4f80ef          	jal	ra,150b8 <_free_r>
   1cef8:	14842583          	lw	a1,328(s0)
   1cefc:	14c40493          	addi	s1,s0,332
   1cf00:	08059063          	bne	a1,zero,1cf80 <_reclaim_reent+0xcc>
   1cf04:	05442583          	lw	a1,84(s0)
   1cf08:	08059863          	bne	a1,zero,1cf98 <_reclaim_reent+0xe4>
   1cf0c:	03842783          	lw	a5,56(s0)
   1cf10:	08078a63          	beq	a5,zero,1cfa4 <_reclaim_reent+0xf0>
   1cf14:	03c42783          	lw	a5,60(s0)
   1cf18:	00040513          	addi	a0,s0,0
   1cf1c:	000780e7          	jalr	ra,0(a5) # 2000 <main-0xe074>
   1cf20:	2e042583          	lw	a1,736(s0)
   1cf24:	08058063          	beq	a1,zero,1cfa4 <_reclaim_reent+0xf0>
   1cf28:	00040513          	addi	a0,s0,0
   1cf2c:	01812403          	lw	s0,24(sp)
   1cf30:	01c12083          	lw	ra,28(sp)
   1cf34:	01412483          	lw	s1,20(sp)
   1cf38:	01012903          	lw	s2,16(sp)
   1cf3c:	00c12983          	lw	s3,12(sp)
   1cf40:	02010113          	addi	sp,sp,32
   1cf44:	f31ff06f          	jal	zero,1ce74 <cleanup_glue>
   1cf48:	009585b3          	add	a1,a1,s1
   1cf4c:	0005a583          	lw	a1,0(a1)
   1cf50:	00059e63          	bne	a1,zero,1cf6c <_reclaim_reent+0xb8>
   1cf54:	00448493          	addi	s1,s1,4
   1cf58:	04c42583          	lw	a1,76(s0)
   1cf5c:	ff2496e3          	bne	s1,s2,1cf48 <_reclaim_reent+0x94>
   1cf60:	00040513          	addi	a0,s0,0
   1cf64:	954f80ef          	jal	ra,150b8 <_free_r>
   1cf68:	f81ff06f          	jal	zero,1cee8 <_reclaim_reent+0x34>
   1cf6c:	0005a983          	lw	s3,0(a1)
   1cf70:	00040513          	addi	a0,s0,0
   1cf74:	944f80ef          	jal	ra,150b8 <_free_r>
   1cf78:	00098593          	addi	a1,s3,0
   1cf7c:	fd5ff06f          	jal	zero,1cf50 <_reclaim_reent+0x9c>
   1cf80:	f89582e3          	beq	a1,s1,1cf04 <_reclaim_reent+0x50>
   1cf84:	0005a903          	lw	s2,0(a1)
   1cf88:	00040513          	addi	a0,s0,0
   1cf8c:	92cf80ef          	jal	ra,150b8 <_free_r>
   1cf90:	00090593          	addi	a1,s2,0
   1cf94:	fedff06f          	jal	zero,1cf80 <_reclaim_reent+0xcc>
   1cf98:	00040513          	addi	a0,s0,0
   1cf9c:	91cf80ef          	jal	ra,150b8 <_free_r>
   1cfa0:	f6dff06f          	jal	zero,1cf0c <_reclaim_reent+0x58>
   1cfa4:	01c12083          	lw	ra,28(sp)
   1cfa8:	01812403          	lw	s0,24(sp)
   1cfac:	01412483          	lw	s1,20(sp)
   1cfb0:	01012903          	lw	s2,16(sp)
   1cfb4:	00c12983          	lw	s3,12(sp)
   1cfb8:	02010113          	addi	sp,sp,32
   1cfbc:	00008067          	jalr	zero,0(ra)
   1cfc0:	00008067          	jalr	zero,0(ra)

0001cfc4 <__ssprint_r>:
   1cfc4:	00862783          	lw	a5,8(a2)
   1cfc8:	fd010113          	addi	sp,sp,-48
   1cfcc:	01312e23          	sw	s3,28(sp)
   1cfd0:	02112623          	sw	ra,44(sp)
   1cfd4:	02812423          	sw	s0,40(sp)
   1cfd8:	02912223          	sw	s1,36(sp)
   1cfdc:	03212023          	sw	s2,32(sp)
   1cfe0:	01412c23          	sw	s4,24(sp)
   1cfe4:	01512a23          	sw	s5,20(sp)
   1cfe8:	01612823          	sw	s6,16(sp)
   1cfec:	01712623          	sw	s7,12(sp)
   1cff0:	01812423          	sw	s8,8(sp)
   1cff4:	00060993          	addi	s3,a2,0
   1cff8:	12078663          	beq	a5,zero,1d124 <__ssprint_r+0x160>
   1cffc:	00062b03          	lw	s6,0(a2)
   1d000:	00050a93          	addi	s5,a0,0
   1d004:	00058413          	addi	s0,a1,0
   1d008:	00000b93          	addi	s7,zero,0
   1d00c:	00000913          	addi	s2,zero,0
   1d010:	08090663          	beq	s2,zero,1d09c <__ssprint_r+0xd8>
   1d014:	00842a03          	lw	s4,8(s0)
   1d018:	0d496663          	bltu	s2,s4,1d0e4 <__ssprint_r+0x120>
   1d01c:	00c45783          	lhu	a5,12(s0)
   1d020:	4807f713          	andi	a4,a5,1152
   1d024:	0c070063          	beq	a4,zero,1d0e4 <__ssprint_r+0x120>
   1d028:	00042483          	lw	s1,0(s0)
   1d02c:	01442703          	lw	a4,20(s0)
   1d030:	01042583          	lw	a1,16(s0)
   1d034:	40b48c33          	sub	s8,s1,a1
   1d038:	00171493          	slli	s1,a4,0x1
   1d03c:	00e48733          	add	a4,s1,a4
   1d040:	01f75493          	srli	s1,a4,0x1f
   1d044:	00e484b3          	add	s1,s1,a4
   1d048:	001c0713          	addi	a4,s8,1
   1d04c:	4014d493          	srai	s1,s1,0x1
   1d050:	01270733          	add	a4,a4,s2
   1d054:	00e4f463          	bgeu	s1,a4,1d05c <__ssprint_r+0x98>
   1d058:	00070493          	addi	s1,a4,0
   1d05c:	4007f793          	andi	a5,a5,1024
   1d060:	0e078e63          	beq	a5,zero,1d15c <__ssprint_r+0x198>
   1d064:	00048593          	addi	a1,s1,0
   1d068:	000a8513          	addi	a0,s5,0
   1d06c:	a71fa0ef          	jal	ra,17adc <_malloc_r>
   1d070:	00050a13          	addi	s4,a0,0
   1d074:	02051c63          	bne	a0,zero,1d0ac <__ssprint_r+0xe8>
   1d078:	00c00793          	addi	a5,zero,12
   1d07c:	00faa023          	sw	a5,0(s5)
   1d080:	00c45783          	lhu	a5,12(s0)
   1d084:	fff00513          	addi	a0,zero,-1
   1d088:	0407e793          	ori	a5,a5,64
   1d08c:	00f41623          	sh	a5,12(s0)
   1d090:	0009a423          	sw	zero,8(s3)
   1d094:	0009a223          	sw	zero,4(s3)
   1d098:	0940006f          	jal	zero,1d12c <__ssprint_r+0x168>
   1d09c:	000b2b83          	lw	s7,0(s6)
   1d0a0:	004b2903          	lw	s2,4(s6)
   1d0a4:	008b0b13          	addi	s6,s6,8
   1d0a8:	f69ff06f          	jal	zero,1d010 <__ssprint_r+0x4c>
   1d0ac:	01042583          	lw	a1,16(s0)
   1d0b0:	000c0613          	addi	a2,s8,0
   1d0b4:	bb8f50ef          	jal	ra,1246c <memcpy>
   1d0b8:	00c45783          	lhu	a5,12(s0)
   1d0bc:	b7f7f793          	andi	a5,a5,-1153
   1d0c0:	0807e793          	ori	a5,a5,128
   1d0c4:	00f41623          	sh	a5,12(s0)
   1d0c8:	01442823          	sw	s4,16(s0)
   1d0cc:	00942a23          	sw	s1,20(s0)
   1d0d0:	018a0a33          	add	s4,s4,s8
   1d0d4:	418484b3          	sub	s1,s1,s8
   1d0d8:	01442023          	sw	s4,0(s0)
   1d0dc:	00942423          	sw	s1,8(s0)
   1d0e0:	00090a13          	addi	s4,s2,0
   1d0e4:	01497463          	bgeu	s2,s4,1d0ec <__ssprint_r+0x128>
   1d0e8:	00090a13          	addi	s4,s2,0
   1d0ec:	00042503          	lw	a0,0(s0)
   1d0f0:	000a0613          	addi	a2,s4,0
   1d0f4:	000b8593          	addi	a1,s7,0
   1d0f8:	8d4fb0ef          	jal	ra,181cc <memmove>
   1d0fc:	00842783          	lw	a5,8(s0)
   1d100:	414787b3          	sub	a5,a5,s4
   1d104:	00f42423          	sw	a5,8(s0)
   1d108:	00042783          	lw	a5,0(s0)
   1d10c:	01478a33          	add	s4,a5,s4
   1d110:	0089a783          	lw	a5,8(s3)
   1d114:	01442023          	sw	s4,0(s0)
   1d118:	41278933          	sub	s2,a5,s2
   1d11c:	0129a423          	sw	s2,8(s3)
   1d120:	f6091ee3          	bne	s2,zero,1d09c <__ssprint_r+0xd8>
   1d124:	0009a223          	sw	zero,4(s3)
   1d128:	00000513          	addi	a0,zero,0
   1d12c:	02c12083          	lw	ra,44(sp)
   1d130:	02812403          	lw	s0,40(sp)
   1d134:	02412483          	lw	s1,36(sp)
   1d138:	02012903          	lw	s2,32(sp)
   1d13c:	01c12983          	lw	s3,28(sp)
   1d140:	01812a03          	lw	s4,24(sp)
   1d144:	01412a83          	lw	s5,20(sp)
   1d148:	01012b03          	lw	s6,16(sp)
   1d14c:	00c12b83          	lw	s7,12(sp)
   1d150:	00812c03          	lw	s8,8(sp)
   1d154:	03010113          	addi	sp,sp,48
   1d158:	00008067          	jalr	zero,0(ra)
   1d15c:	00048613          	addi	a2,s1,0
   1d160:	000a8513          	addi	a0,s5,0
   1d164:	ff5fb0ef          	jal	ra,19158 <_realloc_r>
   1d168:	00050a13          	addi	s4,a0,0
   1d16c:	f4051ee3          	bne	a0,zero,1d0c8 <__ssprint_r+0x104>
   1d170:	01042583          	lw	a1,16(s0)
   1d174:	000a8513          	addi	a0,s5,0
   1d178:	f41f70ef          	jal	ra,150b8 <_free_r>
   1d17c:	efdff06f          	jal	zero,1d078 <__ssprint_r+0xb4>

0001d180 <_svfiprintf_r>:
   1d180:	00c5d783          	lhu	a5,12(a1)
   1d184:	ed010113          	addi	sp,sp,-304
   1d188:	12812423          	sw	s0,296(sp)
   1d18c:	13212023          	sw	s2,288(sp)
   1d190:	11312e23          	sw	s3,284(sp)
   1d194:	11612823          	sw	s6,272(sp)
   1d198:	12112623          	sw	ra,300(sp)
   1d19c:	12912223          	sw	s1,292(sp)
   1d1a0:	11412c23          	sw	s4,280(sp)
   1d1a4:	11512a23          	sw	s5,276(sp)
   1d1a8:	11712623          	sw	s7,268(sp)
   1d1ac:	11812423          	sw	s8,264(sp)
   1d1b0:	11912223          	sw	s9,260(sp)
   1d1b4:	11a12023          	sw	s10,256(sp)
   1d1b8:	0fb12e23          	sw	s11,252(sp)
   1d1bc:	0807f793          	andi	a5,a5,128
   1d1c0:	00050993          	addi	s3,a0,0
   1d1c4:	00058913          	addi	s2,a1,0
   1d1c8:	00060b13          	addi	s6,a2,0
   1d1cc:	00068413          	addi	s0,a3,0
   1d1d0:	02078c63          	beq	a5,zero,1d208 <_svfiprintf_r+0x88>
   1d1d4:	0105a783          	lw	a5,16(a1)
   1d1d8:	02079863          	bne	a5,zero,1d208 <_svfiprintf_r+0x88>
   1d1dc:	04000593          	addi	a1,zero,64
   1d1e0:	8fdfa0ef          	jal	ra,17adc <_malloc_r>
   1d1e4:	00a92023          	sw	a0,0(s2)
   1d1e8:	00a92823          	sw	a0,16(s2)
   1d1ec:	00051a63          	bne	a0,zero,1d200 <_svfiprintf_r+0x80>
   1d1f0:	00c00793          	addi	a5,zero,12
   1d1f4:	00f9a023          	sw	a5,0(s3)
   1d1f8:	fff00c13          	addi	s8,zero,-1
   1d1fc:	2fd0006f          	jal	zero,1dcf8 <_svfiprintf_r+0xb78>
   1d200:	04000793          	addi	a5,zero,64
   1d204:	00f92a23          	sw	a5,20(s2)
   1d208:	000247b7          	lui	a5,0x24
   1d20c:	dd478793          	addi	a5,a5,-556 # 23dd4 <_ctype_+0x104>
   1d210:	02f12423          	sw	a5,40(sp)
   1d214:	000247b7          	lui	a5,0x24
   1d218:	f5078793          	addi	a5,a5,-176 # 23f50 <zeroes.4476>
   1d21c:	00f12a23          	sw	a5,20(sp)
   1d220:	000247b7          	lui	a5,0x24
   1d224:	04c10b93          	addi	s7,sp,76
   1d228:	f4078793          	addi	a5,a5,-192 # 23f40 <blanks.4475>
   1d22c:	05712023          	sw	s7,64(sp)
   1d230:	04012423          	sw	zero,72(sp)
   1d234:	04012223          	sw	zero,68(sp)
   1d238:	000b8d93          	addi	s11,s7,0
   1d23c:	00012823          	sw	zero,16(sp)
   1d240:	00012423          	sw	zero,8(sp)
   1d244:	00012623          	sw	zero,12(sp)
   1d248:	00012e23          	sw	zero,28(sp)
   1d24c:	00000c13          	addi	s8,zero,0
   1d250:	00f12c23          	sw	a5,24(sp)
   1d254:	000b0493          	addi	s1,s6,0
   1d258:	02500713          	addi	a4,zero,37
   1d25c:	0004c783          	lbu	a5,0(s1)
   1d260:	00078463          	beq	a5,zero,1d268 <_svfiprintf_r+0xe8>
   1d264:	0ae79063          	bne	a5,a4,1d304 <_svfiprintf_r+0x184>
   1d268:	41648a33          	sub	s4,s1,s6
   1d26c:	040a0663          	beq	s4,zero,1d2b8 <_svfiprintf_r+0x138>
   1d270:	04812783          	lw	a5,72(sp)
   1d274:	016da023          	sw	s6,0(s11)
   1d278:	014da223          	sw	s4,4(s11)
   1d27c:	014787b3          	add	a5,a5,s4
   1d280:	04f12423          	sw	a5,72(sp)
   1d284:	04412783          	lw	a5,68(sp)
   1d288:	00700713          	addi	a4,zero,7
   1d28c:	008d8d93          	addi	s11,s11,8
   1d290:	00178793          	addi	a5,a5,1
   1d294:	04f12223          	sw	a5,68(sp)
   1d298:	00f75e63          	bge	a4,a5,1d2b4 <_svfiprintf_r+0x134>
   1d29c:	04010613          	addi	a2,sp,64
   1d2a0:	00090593          	addi	a1,s2,0
   1d2a4:	00098513          	addi	a0,s3,0
   1d2a8:	d1dff0ef          	jal	ra,1cfc4 <__ssprint_r>
   1d2ac:	240510e3          	bne	a0,zero,1dcec <_svfiprintf_r+0xb6c>
   1d2b0:	000b8d93          	addi	s11,s7,0
   1d2b4:	014c0c33          	add	s8,s8,s4
   1d2b8:	0004c783          	lbu	a5,0(s1)
   1d2bc:	2a078ae3          	beq	a5,zero,1dd70 <_svfiprintf_r+0xbf0>
   1d2c0:	00148713          	addi	a4,s1,1
   1d2c4:	02010da3          	sb	zero,59(sp)
   1d2c8:	fff00493          	addi	s1,zero,-1
   1d2cc:	00000a93          	addi	s5,zero,0
   1d2d0:	00000d13          	addi	s10,zero,0
   1d2d4:	00900a13          	addi	s4,zero,9
   1d2d8:	02a00c93          	addi	s9,zero,42
   1d2dc:	00074603          	lbu	a2,0(a4)
   1d2e0:	00170b13          	addi	s6,a4,1
   1d2e4:	05a00593          	addi	a1,zero,90
   1d2e8:	fe060713          	addi	a4,a2,-32
   1d2ec:	0ce5e2e3          	bltu	a1,a4,1dbb0 <_svfiprintf_r+0xa30>
   1d2f0:	02812783          	lw	a5,40(sp)
   1d2f4:	00271713          	slli	a4,a4,0x2
   1d2f8:	00f70733          	add	a4,a4,a5
   1d2fc:	00072703          	lw	a4,0(a4)
   1d300:	00070067          	jalr	zero,0(a4)
   1d304:	00148493          	addi	s1,s1,1
   1d308:	f55ff06f          	jal	zero,1d25c <_svfiprintf_r+0xdc>
   1d30c:	00023737          	lui	a4,0x23
   1d310:	5d870793          	addi	a5,a4,1496 # 235d8 <zeroes.4514+0x20>
   1d314:	00f12823          	sw	a5,16(sp)
   1d318:	020d7713          	andi	a4,s10,32
   1d31c:	6a070463          	beq	a4,zero,1d9c4 <_svfiprintf_r+0x844>
   1d320:	00740413          	addi	s0,s0,7
   1d324:	ff847413          	andi	s0,s0,-8
   1d328:	00042703          	lw	a4,0(s0)
   1d32c:	00442a03          	lw	s4,4(s0)
   1d330:	00840c93          	addi	s9,s0,8
   1d334:	001d7693          	andi	a3,s10,1
   1d338:	00068e63          	beq	a3,zero,1d354 <_svfiprintf_r+0x1d4>
   1d33c:	014766b3          	or	a3,a4,s4
   1d340:	00068a63          	beq	a3,zero,1d354 <_svfiprintf_r+0x1d4>
   1d344:	03000693          	addi	a3,zero,48
   1d348:	02d10e23          	sb	a3,60(sp)
   1d34c:	02c10ea3          	sb	a2,61(sp)
   1d350:	002d6d13          	ori	s10,s10,2
   1d354:	bffd7d13          	andi	s10,s10,-1025
   1d358:	30c0006f          	jal	zero,1d664 <_svfiprintf_r+0x4e4>
   1d35c:	00098513          	addi	a0,s3,0
   1d360:	d04fa0ef          	jal	ra,17864 <_localeconv_r>
   1d364:	00452783          	lw	a5,4(a0)
   1d368:	00078513          	addi	a0,a5,0
   1d36c:	00f12e23          	sw	a5,28(sp)
   1d370:	becf50ef          	jal	ra,1275c <strlen>
   1d374:	00a12623          	sw	a0,12(sp)
   1d378:	00098513          	addi	a0,s3,0
   1d37c:	ce8fa0ef          	jal	ra,17864 <_localeconv_r>
   1d380:	00852783          	lw	a5,8(a0)
   1d384:	00f12423          	sw	a5,8(sp)
   1d388:	00c12783          	lw	a5,12(sp)
   1d38c:	00078c63          	beq	a5,zero,1d3a4 <_svfiprintf_r+0x224>
   1d390:	00812783          	lw	a5,8(sp)
   1d394:	00078863          	beq	a5,zero,1d3a4 <_svfiprintf_r+0x224>
   1d398:	0007c703          	lbu	a4,0(a5)
   1d39c:	00070463          	beq	a4,zero,1d3a4 <_svfiprintf_r+0x224>
   1d3a0:	400d6d13          	ori	s10,s10,1024
   1d3a4:	000b0713          	addi	a4,s6,0
   1d3a8:	f35ff06f          	jal	zero,1d2dc <_svfiprintf_r+0x15c>
   1d3ac:	03b14703          	lbu	a4,59(sp)
   1d3b0:	fe071ae3          	bne	a4,zero,1d3a4 <_svfiprintf_r+0x224>
   1d3b4:	02000713          	addi	a4,zero,32
   1d3b8:	02e10da3          	sb	a4,59(sp)
   1d3bc:	fe9ff06f          	jal	zero,1d3a4 <_svfiprintf_r+0x224>
   1d3c0:	001d6d13          	ori	s10,s10,1
   1d3c4:	fe1ff06f          	jal	zero,1d3a4 <_svfiprintf_r+0x224>
   1d3c8:	00042a83          	lw	s5,0(s0)
   1d3cc:	00440413          	addi	s0,s0,4
   1d3d0:	fc0adae3          	bge	s5,zero,1d3a4 <_svfiprintf_r+0x224>
   1d3d4:	41500ab3          	sub	s5,zero,s5
   1d3d8:	004d6d13          	ori	s10,s10,4
   1d3dc:	fc9ff06f          	jal	zero,1d3a4 <_svfiprintf_r+0x224>
   1d3e0:	02b00713          	addi	a4,zero,43
   1d3e4:	fd5ff06f          	jal	zero,1d3b8 <_svfiprintf_r+0x238>
   1d3e8:	000b4603          	lbu	a2,0(s6)
   1d3ec:	001b0713          	addi	a4,s6,1
   1d3f0:	05961463          	bne	a2,s9,1d438 <_svfiprintf_r+0x2b8>
   1d3f4:	00042483          	lw	s1,0(s0)
   1d3f8:	00440693          	addi	a3,s0,4
   1d3fc:	0004d463          	bge	s1,zero,1d404 <_svfiprintf_r+0x284>
   1d400:	fff00493          	addi	s1,zero,-1
   1d404:	00068413          	addi	s0,a3,0
   1d408:	00070b13          	addi	s6,a4,0
   1d40c:	f99ff06f          	jal	zero,1d3a4 <_svfiprintf_r+0x224>
   1d410:	00249693          	slli	a3,s1,0x2
   1d414:	00170713          	addi	a4,a4,1
   1d418:	009684b3          	add	s1,a3,s1
   1d41c:	fff74603          	lbu	a2,-1(a4)
   1d420:	00149493          	slli	s1,s1,0x1
   1d424:	00a484b3          	add	s1,s1,a0
   1d428:	fd060513          	addi	a0,a2,-48
   1d42c:	feaa72e3          	bgeu	s4,a0,1d410 <_svfiprintf_r+0x290>
   1d430:	00070b13          	addi	s6,a4,0
   1d434:	eb5ff06f          	jal	zero,1d2e8 <_svfiprintf_r+0x168>
   1d438:	00000493          	addi	s1,zero,0
   1d43c:	fedff06f          	jal	zero,1d428 <_svfiprintf_r+0x2a8>
   1d440:	080d6d13          	ori	s10,s10,128
   1d444:	f61ff06f          	jal	zero,1d3a4 <_svfiprintf_r+0x224>
   1d448:	000b0713          	addi	a4,s6,0
   1d44c:	00000a93          	addi	s5,zero,0
   1d450:	002a9693          	slli	a3,s5,0x2
   1d454:	01568ab3          	add	s5,a3,s5
   1d458:	fd060613          	addi	a2,a2,-48
   1d45c:	001a9a93          	slli	s5,s5,0x1
   1d460:	00170713          	addi	a4,a4,1
   1d464:	01560ab3          	add	s5,a2,s5
   1d468:	fff74603          	lbu	a2,-1(a4)
   1d46c:	fd060693          	addi	a3,a2,-48
   1d470:	feda70e3          	bgeu	s4,a3,1d450 <_svfiprintf_r+0x2d0>
   1d474:	fbdff06f          	jal	zero,1d430 <_svfiprintf_r+0x2b0>
   1d478:	000b4683          	lbu	a3,0(s6)
   1d47c:	06800713          	addi	a4,zero,104
   1d480:	00e69863          	bne	a3,a4,1d490 <_svfiprintf_r+0x310>
   1d484:	001b0b13          	addi	s6,s6,1
   1d488:	200d6d13          	ori	s10,s10,512
   1d48c:	f19ff06f          	jal	zero,1d3a4 <_svfiprintf_r+0x224>
   1d490:	040d6d13          	ori	s10,s10,64
   1d494:	f11ff06f          	jal	zero,1d3a4 <_svfiprintf_r+0x224>
   1d498:	000b4683          	lbu	a3,0(s6)
   1d49c:	06c00713          	addi	a4,zero,108
   1d4a0:	00e69863          	bne	a3,a4,1d4b0 <_svfiprintf_r+0x330>
   1d4a4:	001b0b13          	addi	s6,s6,1
   1d4a8:	020d6d13          	ori	s10,s10,32
   1d4ac:	ef9ff06f          	jal	zero,1d3a4 <_svfiprintf_r+0x224>
   1d4b0:	010d6d13          	ori	s10,s10,16
   1d4b4:	ef1ff06f          	jal	zero,1d3a4 <_svfiprintf_r+0x224>
   1d4b8:	00042703          	lw	a4,0(s0)
   1d4bc:	00440c93          	addi	s9,s0,4
   1d4c0:	02010da3          	sb	zero,59(sp)
   1d4c4:	08e10623          	sb	a4,140(sp)
   1d4c8:	00100493          	addi	s1,zero,1
   1d4cc:	00000a13          	addi	s4,zero,0
   1d4d0:	08c10413          	addi	s0,sp,140
   1d4d4:	1c80006f          	jal	zero,1d69c <_svfiprintf_r+0x51c>
   1d4d8:	010d6d13          	ori	s10,s10,16
   1d4dc:	020d7713          	andi	a4,s10,32
   1d4e0:	06070063          	beq	a4,zero,1d540 <_svfiprintf_r+0x3c0>
   1d4e4:	00740413          	addi	s0,s0,7
   1d4e8:	ff847413          	andi	s0,s0,-8
   1d4ec:	00042703          	lw	a4,0(s0)
   1d4f0:	00442a03          	lw	s4,4(s0)
   1d4f4:	00840c93          	addi	s9,s0,8
   1d4f8:	080a5ae3          	bge	s4,zero,1dd8c <_svfiprintf_r+0xc0c>
   1d4fc:	40e00733          	sub	a4,zero,a4
   1d500:	00e036b3          	sltu	a3,zero,a4
   1d504:	414008b3          	sub	a7,zero,s4
   1d508:	40d88a33          	sub	s4,a7,a3
   1d50c:	02d00693          	addi	a3,zero,45
   1d510:	02d10da3          	sb	a3,59(sp)
   1d514:	00100693          	addi	a3,zero,1
   1d518:	fff00613          	addi	a2,zero,-1
   1d51c:	4ec48663          	beq	s1,a2,1da08 <_svfiprintf_r+0x888>
   1d520:	000d0613          	addi	a2,s10,0
   1d524:	014765b3          	or	a1,a4,s4
   1d528:	f7fd7d13          	andi	s10,s10,-129
   1d52c:	4c059e63          	bne	a1,zero,1da08 <_svfiprintf_r+0x888>
   1d530:	66048463          	beq	s1,zero,1db98 <_svfiprintf_r+0xa18>
   1d534:	00100613          	addi	a2,zero,1
   1d538:	4cc69c63          	bne	a3,a2,1da10 <_svfiprintf_r+0x890>
   1d53c:	0650006f          	jal	zero,1dda0 <_svfiprintf_r+0xc20>
   1d540:	010d7713          	andi	a4,s10,16
   1d544:	00440c93          	addi	s9,s0,4
   1d548:	00070863          	beq	a4,zero,1d558 <_svfiprintf_r+0x3d8>
   1d54c:	00042703          	lw	a4,0(s0)
   1d550:	41f75a13          	srai	s4,a4,0x1f
   1d554:	fa5ff06f          	jal	zero,1d4f8 <_svfiprintf_r+0x378>
   1d558:	040d7693          	andi	a3,s10,64
   1d55c:	00042703          	lw	a4,0(s0)
   1d560:	00068863          	beq	a3,zero,1d570 <_svfiprintf_r+0x3f0>
   1d564:	01071713          	slli	a4,a4,0x10
   1d568:	41075713          	srai	a4,a4,0x10
   1d56c:	fe5ff06f          	jal	zero,1d550 <_svfiprintf_r+0x3d0>
   1d570:	200d7693          	andi	a3,s10,512
   1d574:	fc068ee3          	beq	a3,zero,1d550 <_svfiprintf_r+0x3d0>
   1d578:	01871713          	slli	a4,a4,0x18
   1d57c:	41875713          	srai	a4,a4,0x18
   1d580:	fd1ff06f          	jal	zero,1d550 <_svfiprintf_r+0x3d0>
   1d584:	020d7693          	andi	a3,s10,32
   1d588:	00042703          	lw	a4,0(s0)
   1d58c:	00440413          	addi	s0,s0,4
   1d590:	00068a63          	beq	a3,zero,1d5a4 <_svfiprintf_r+0x424>
   1d594:	41fc5793          	srai	a5,s8,0x1f
   1d598:	01872023          	sw	s8,0(a4)
   1d59c:	00f72223          	sw	a5,4(a4)
   1d5a0:	cb5ff06f          	jal	zero,1d254 <_svfiprintf_r+0xd4>
   1d5a4:	010d7693          	andi	a3,s10,16
   1d5a8:	00068663          	beq	a3,zero,1d5b4 <_svfiprintf_r+0x434>
   1d5ac:	01872023          	sw	s8,0(a4)
   1d5b0:	ca5ff06f          	jal	zero,1d254 <_svfiprintf_r+0xd4>
   1d5b4:	040d7693          	andi	a3,s10,64
   1d5b8:	00068663          	beq	a3,zero,1d5c4 <_svfiprintf_r+0x444>
   1d5bc:	01871023          	sh	s8,0(a4)
   1d5c0:	c95ff06f          	jal	zero,1d254 <_svfiprintf_r+0xd4>
   1d5c4:	200d7793          	andi	a5,s10,512
   1d5c8:	fe0782e3          	beq	a5,zero,1d5ac <_svfiprintf_r+0x42c>
   1d5cc:	01870023          	sb	s8,0(a4)
   1d5d0:	c85ff06f          	jal	zero,1d254 <_svfiprintf_r+0xd4>
   1d5d4:	010d6d13          	ori	s10,s10,16
   1d5d8:	020d7713          	andi	a4,s10,32
   1d5dc:	02070463          	beq	a4,zero,1d604 <_svfiprintf_r+0x484>
   1d5e0:	00740413          	addi	s0,s0,7
   1d5e4:	ff847413          	andi	s0,s0,-8
   1d5e8:	00042703          	lw	a4,0(s0)
   1d5ec:	00442a03          	lw	s4,4(s0)
   1d5f0:	00840c93          	addi	s9,s0,8
   1d5f4:	bffd7d13          	andi	s10,s10,-1025
   1d5f8:	00000693          	addi	a3,zero,0
   1d5fc:	02010da3          	sb	zero,59(sp)
   1d600:	f19ff06f          	jal	zero,1d518 <_svfiprintf_r+0x398>
   1d604:	010d7713          	andi	a4,s10,16
   1d608:	00440c93          	addi	s9,s0,4
   1d60c:	00070663          	beq	a4,zero,1d618 <_svfiprintf_r+0x498>
   1d610:	00042703          	lw	a4,0(s0)
   1d614:	0100006f          	jal	zero,1d624 <_svfiprintf_r+0x4a4>
   1d618:	040d7713          	andi	a4,s10,64
   1d61c:	00070863          	beq	a4,zero,1d62c <_svfiprintf_r+0x4ac>
   1d620:	00045703          	lhu	a4,0(s0)
   1d624:	00000a13          	addi	s4,zero,0
   1d628:	fcdff06f          	jal	zero,1d5f4 <_svfiprintf_r+0x474>
   1d62c:	200d7713          	andi	a4,s10,512
   1d630:	fe0700e3          	beq	a4,zero,1d610 <_svfiprintf_r+0x490>
   1d634:	00044703          	lbu	a4,0(s0)
   1d638:	fedff06f          	jal	zero,1d624 <_svfiprintf_r+0x4a4>
   1d63c:	ffff86b7          	lui	a3,0xffff8
   1d640:	8306c693          	xori	a3,a3,-2000
   1d644:	02d11e23          	sh	a3,60(sp)
   1d648:	00042703          	lw	a4,0(s0)
   1d64c:	000236b7          	lui	a3,0x23
   1d650:	5d868793          	addi	a5,a3,1496 # 235d8 <zeroes.4514+0x20>
   1d654:	00440c93          	addi	s9,s0,4
   1d658:	00000a13          	addi	s4,zero,0
   1d65c:	002d6d13          	ori	s10,s10,2
   1d660:	00f12823          	sw	a5,16(sp)
   1d664:	00200693          	addi	a3,zero,2
   1d668:	f95ff06f          	jal	zero,1d5fc <_svfiprintf_r+0x47c>
   1d66c:	02010da3          	sb	zero,59(sp)
   1d670:	fff00713          	addi	a4,zero,-1
   1d674:	00440c93          	addi	s9,s0,4
   1d678:	00042403          	lw	s0,0(s0)
   1d67c:	2ce48463          	beq	s1,a4,1d944 <_svfiprintf_r+0x7c4>
   1d680:	00048613          	addi	a2,s1,0
   1d684:	00000593          	addi	a1,zero,0
   1d688:	00040513          	addi	a0,s0,0
   1d68c:	b1dfa0ef          	jal	ra,181a8 <memchr>
   1d690:	00000a13          	addi	s4,zero,0
   1d694:	00050463          	beq	a0,zero,1d69c <_svfiprintf_r+0x51c>
   1d698:	408504b3          	sub	s1,a0,s0
   1d69c:	01412223          	sw	s4,4(sp)
   1d6a0:	009a5463          	bge	s4,s1,1d6a8 <_svfiprintf_r+0x528>
   1d6a4:	00912223          	sw	s1,4(sp)
   1d6a8:	03b14703          	lbu	a4,59(sp)
   1d6ac:	00070863          	beq	a4,zero,1d6bc <_svfiprintf_r+0x53c>
   1d6b0:	00412783          	lw	a5,4(sp)
   1d6b4:	00178793          	addi	a5,a5,1
   1d6b8:	00f12223          	sw	a5,4(sp)
   1d6bc:	002d7793          	andi	a5,s10,2
   1d6c0:	02f12023          	sw	a5,32(sp)
   1d6c4:	00078863          	beq	a5,zero,1d6d4 <_svfiprintf_r+0x554>
   1d6c8:	00412783          	lw	a5,4(sp)
   1d6cc:	00278793          	addi	a5,a5,2
   1d6d0:	00f12223          	sw	a5,4(sp)
   1d6d4:	084d7793          	andi	a5,s10,132
   1d6d8:	02f12223          	sw	a5,36(sp)
   1d6dc:	06079463          	bne	a5,zero,1d744 <_svfiprintf_r+0x5c4>
   1d6e0:	00412783          	lw	a5,4(sp)
   1d6e4:	40fa8733          	sub	a4,s5,a5
   1d6e8:	04e05e63          	bge	zero,a4,1d744 <_svfiprintf_r+0x5c4>
   1d6ec:	01000893          	addi	a7,zero,16
   1d6f0:	00700313          	addi	t1,zero,7
   1d6f4:	01812783          	lw	a5,24(sp)
   1d6f8:	04412683          	lw	a3,68(sp)
   1d6fc:	04812603          	lw	a2,72(sp)
   1d700:	00fda023          	sw	a5,0(s11)
   1d704:	00168693          	addi	a3,a3,1
   1d708:	008d8593          	addi	a1,s11,8
   1d70c:	4ae8cc63          	blt	a7,a4,1dbc4 <_svfiprintf_r+0xa44>
   1d710:	00eda223          	sw	a4,4(s11)
   1d714:	00c70733          	add	a4,a4,a2
   1d718:	04e12423          	sw	a4,72(sp)
   1d71c:	04d12223          	sw	a3,68(sp)
   1d720:	00700713          	addi	a4,zero,7
   1d724:	00058d93          	addi	s11,a1,0
   1d728:	00d75e63          	bge	a4,a3,1d744 <_svfiprintf_r+0x5c4>
   1d72c:	04010613          	addi	a2,sp,64
   1d730:	00090593          	addi	a1,s2,0
   1d734:	00098513          	addi	a0,s3,0
   1d738:	88dff0ef          	jal	ra,1cfc4 <__ssprint_r>
   1d73c:	5a051863          	bne	a0,zero,1dcec <_svfiprintf_r+0xb6c>
   1d740:	000b8d93          	addi	s11,s7,0
   1d744:	03b14703          	lbu	a4,59(sp)
   1d748:	04070863          	beq	a4,zero,1d798 <_svfiprintf_r+0x618>
   1d74c:	03b10693          	addi	a3,sp,59
   1d750:	00dda023          	sw	a3,0(s11)
   1d754:	00100693          	addi	a3,zero,1
   1d758:	04412703          	lw	a4,68(sp)
   1d75c:	00dda223          	sw	a3,4(s11)
   1d760:	04812683          	lw	a3,72(sp)
   1d764:	00170713          	addi	a4,a4,1
   1d768:	04e12223          	sw	a4,68(sp)
   1d76c:	00168693          	addi	a3,a3,1
   1d770:	04d12423          	sw	a3,72(sp)
   1d774:	00700693          	addi	a3,zero,7
   1d778:	008d8d93          	addi	s11,s11,8
   1d77c:	00e6de63          	bge	a3,a4,1d798 <_svfiprintf_r+0x618>
   1d780:	04010613          	addi	a2,sp,64
   1d784:	00090593          	addi	a1,s2,0
   1d788:	00098513          	addi	a0,s3,0
   1d78c:	839ff0ef          	jal	ra,1cfc4 <__ssprint_r>
   1d790:	54051e63          	bne	a0,zero,1dcec <_svfiprintf_r+0xb6c>
   1d794:	000b8d93          	addi	s11,s7,0
   1d798:	02012783          	lw	a5,32(sp)
   1d79c:	04078863          	beq	a5,zero,1d7ec <_svfiprintf_r+0x66c>
   1d7a0:	03c10693          	addi	a3,sp,60
   1d7a4:	00dda023          	sw	a3,0(s11)
   1d7a8:	00200693          	addi	a3,zero,2
   1d7ac:	04412703          	lw	a4,68(sp)
   1d7b0:	00dda223          	sw	a3,4(s11)
   1d7b4:	04812683          	lw	a3,72(sp)
   1d7b8:	00170713          	addi	a4,a4,1
   1d7bc:	04e12223          	sw	a4,68(sp)
   1d7c0:	00268693          	addi	a3,a3,2
   1d7c4:	04d12423          	sw	a3,72(sp)
   1d7c8:	00700693          	addi	a3,zero,7
   1d7cc:	008d8d93          	addi	s11,s11,8
   1d7d0:	00e6de63          	bge	a3,a4,1d7ec <_svfiprintf_r+0x66c>
   1d7d4:	04010613          	addi	a2,sp,64
   1d7d8:	00090593          	addi	a1,s2,0
   1d7dc:	00098513          	addi	a0,s3,0
   1d7e0:	fe4ff0ef          	jal	ra,1cfc4 <__ssprint_r>
   1d7e4:	50051463          	bne	a0,zero,1dcec <_svfiprintf_r+0xb6c>
   1d7e8:	000b8d93          	addi	s11,s7,0
   1d7ec:	02412783          	lw	a5,36(sp)
   1d7f0:	08000713          	addi	a4,zero,128
   1d7f4:	06e79463          	bne	a5,a4,1d85c <_svfiprintf_r+0x6dc>
   1d7f8:	00412783          	lw	a5,4(sp)
   1d7fc:	40fa8733          	sub	a4,s5,a5
   1d800:	04e05e63          	bge	zero,a4,1d85c <_svfiprintf_r+0x6dc>
   1d804:	01000893          	addi	a7,zero,16
   1d808:	00700313          	addi	t1,zero,7
   1d80c:	01412783          	lw	a5,20(sp)
   1d810:	04412683          	lw	a3,68(sp)
   1d814:	04812603          	lw	a2,72(sp)
   1d818:	00fda023          	sw	a5,0(s11)
   1d81c:	00168693          	addi	a3,a3,1
   1d820:	008d8593          	addi	a1,s11,8
   1d824:	3ee8c463          	blt	a7,a4,1dc0c <_svfiprintf_r+0xa8c>
   1d828:	00eda223          	sw	a4,4(s11)
   1d82c:	00c70733          	add	a4,a4,a2
   1d830:	04e12423          	sw	a4,72(sp)
   1d834:	04d12223          	sw	a3,68(sp)
   1d838:	00700713          	addi	a4,zero,7
   1d83c:	00058d93          	addi	s11,a1,0
   1d840:	00d75e63          	bge	a4,a3,1d85c <_svfiprintf_r+0x6dc>
   1d844:	04010613          	addi	a2,sp,64
   1d848:	00090593          	addi	a1,s2,0
   1d84c:	00098513          	addi	a0,s3,0
   1d850:	f74ff0ef          	jal	ra,1cfc4 <__ssprint_r>
   1d854:	48051c63          	bne	a0,zero,1dcec <_svfiprintf_r+0xb6c>
   1d858:	000b8d93          	addi	s11,s7,0
   1d85c:	409a0a33          	sub	s4,s4,s1
   1d860:	05405e63          	bge	zero,s4,1d8bc <_svfiprintf_r+0x73c>
   1d864:	01000893          	addi	a7,zero,16
   1d868:	00700313          	addi	t1,zero,7
   1d86c:	01412783          	lw	a5,20(sp)
   1d870:	04412703          	lw	a4,68(sp)
   1d874:	04812683          	lw	a3,72(sp)
   1d878:	00fda023          	sw	a5,0(s11)
   1d87c:	00170713          	addi	a4,a4,1
   1d880:	008d8613          	addi	a2,s11,8
   1d884:	3d48c863          	blt	a7,s4,1dc54 <_svfiprintf_r+0xad4>
   1d888:	014da223          	sw	s4,4(s11)
   1d88c:	00da0a33          	add	s4,s4,a3
   1d890:	05412423          	sw	s4,72(sp)
   1d894:	04e12223          	sw	a4,68(sp)
   1d898:	00700693          	addi	a3,zero,7
   1d89c:	00060d93          	addi	s11,a2,0
   1d8a0:	00e6de63          	bge	a3,a4,1d8bc <_svfiprintf_r+0x73c>
   1d8a4:	04010613          	addi	a2,sp,64
   1d8a8:	00090593          	addi	a1,s2,0
   1d8ac:	00098513          	addi	a0,s3,0
   1d8b0:	f14ff0ef          	jal	ra,1cfc4 <__ssprint_r>
   1d8b4:	42051c63          	bne	a0,zero,1dcec <_svfiprintf_r+0xb6c>
   1d8b8:	000b8d93          	addi	s11,s7,0
   1d8bc:	04812703          	lw	a4,72(sp)
   1d8c0:	009da223          	sw	s1,4(s11)
   1d8c4:	008da023          	sw	s0,0(s11)
   1d8c8:	009704b3          	add	s1,a4,s1
   1d8cc:	04412703          	lw	a4,68(sp)
   1d8d0:	04912423          	sw	s1,72(sp)
   1d8d4:	00700693          	addi	a3,zero,7
   1d8d8:	00170713          	addi	a4,a4,1
   1d8dc:	04e12223          	sw	a4,68(sp)
   1d8e0:	008d8813          	addi	a6,s11,8
   1d8e4:	00e6de63          	bge	a3,a4,1d900 <_svfiprintf_r+0x780>
   1d8e8:	04010613          	addi	a2,sp,64
   1d8ec:	00090593          	addi	a1,s2,0
   1d8f0:	00098513          	addi	a0,s3,0
   1d8f4:	ed0ff0ef          	jal	ra,1cfc4 <__ssprint_r>
   1d8f8:	3e051a63          	bne	a0,zero,1dcec <_svfiprintf_r+0xb6c>
   1d8fc:	000b8813          	addi	a6,s7,0
   1d900:	004d7793          	andi	a5,s10,4
   1d904:	38079863          	bne	a5,zero,1dc94 <_svfiprintf_r+0xb14>
   1d908:	00412783          	lw	a5,4(sp)
   1d90c:	00fad463          	bge	s5,a5,1d914 <_svfiprintf_r+0x794>
   1d910:	00078a93          	addi	s5,a5,0
   1d914:	04812783          	lw	a5,72(sp)
   1d918:	015c0c33          	add	s8,s8,s5
   1d91c:	00078c63          	beq	a5,zero,1d934 <_svfiprintf_r+0x7b4>
   1d920:	04010613          	addi	a2,sp,64
   1d924:	00090593          	addi	a1,s2,0
   1d928:	00098513          	addi	a0,s3,0
   1d92c:	e98ff0ef          	jal	ra,1cfc4 <__ssprint_r>
   1d930:	3a051e63          	bne	a0,zero,1dcec <_svfiprintf_r+0xb6c>
   1d934:	04012223          	sw	zero,68(sp)
   1d938:	000c8413          	addi	s0,s9,0
   1d93c:	000b8d93          	addi	s11,s7,0
   1d940:	915ff06f          	jal	zero,1d254 <_svfiprintf_r+0xd4>
   1d944:	00040513          	addi	a0,s0,0
   1d948:	e15f40ef          	jal	ra,1275c <strlen>
   1d94c:	00050493          	addi	s1,a0,0
   1d950:	00000a13          	addi	s4,zero,0
   1d954:	d49ff06f          	jal	zero,1d69c <_svfiprintf_r+0x51c>
   1d958:	010d6d13          	ori	s10,s10,16
   1d95c:	020d7713          	andi	a4,s10,32
   1d960:	02070063          	beq	a4,zero,1d980 <_svfiprintf_r+0x800>
   1d964:	00740413          	addi	s0,s0,7
   1d968:	ff847413          	andi	s0,s0,-8
   1d96c:	00042703          	lw	a4,0(s0)
   1d970:	00442a03          	lw	s4,4(s0)
   1d974:	00840c93          	addi	s9,s0,8
   1d978:	00100693          	addi	a3,zero,1
   1d97c:	c81ff06f          	jal	zero,1d5fc <_svfiprintf_r+0x47c>
   1d980:	010d7713          	andi	a4,s10,16
   1d984:	00440c93          	addi	s9,s0,4
   1d988:	00070663          	beq	a4,zero,1d994 <_svfiprintf_r+0x814>
   1d98c:	00042703          	lw	a4,0(s0)
   1d990:	0100006f          	jal	zero,1d9a0 <_svfiprintf_r+0x820>
   1d994:	040d7713          	andi	a4,s10,64
   1d998:	00070863          	beq	a4,zero,1d9a8 <_svfiprintf_r+0x828>
   1d99c:	00045703          	lhu	a4,0(s0)
   1d9a0:	00000a13          	addi	s4,zero,0
   1d9a4:	fd5ff06f          	jal	zero,1d978 <_svfiprintf_r+0x7f8>
   1d9a8:	200d7713          	andi	a4,s10,512
   1d9ac:	fe0700e3          	beq	a4,zero,1d98c <_svfiprintf_r+0x80c>
   1d9b0:	00044703          	lbu	a4,0(s0)
   1d9b4:	fedff06f          	jal	zero,1d9a0 <_svfiprintf_r+0x820>
   1d9b8:	00023737          	lui	a4,0x23
   1d9bc:	5ec70793          	addi	a5,a4,1516 # 235ec <zeroes.4514+0x34>
   1d9c0:	955ff06f          	jal	zero,1d314 <_svfiprintf_r+0x194>
   1d9c4:	010d7713          	andi	a4,s10,16
   1d9c8:	00440c93          	addi	s9,s0,4
   1d9cc:	00070663          	beq	a4,zero,1d9d8 <_svfiprintf_r+0x858>
   1d9d0:	00042703          	lw	a4,0(s0)
   1d9d4:	0100006f          	jal	zero,1d9e4 <_svfiprintf_r+0x864>
   1d9d8:	040d7713          	andi	a4,s10,64
   1d9dc:	00070863          	beq	a4,zero,1d9ec <_svfiprintf_r+0x86c>
   1d9e0:	00045703          	lhu	a4,0(s0)
   1d9e4:	00000a13          	addi	s4,zero,0
   1d9e8:	94dff06f          	jal	zero,1d334 <_svfiprintf_r+0x1b4>
   1d9ec:	200d7713          	andi	a4,s10,512
   1d9f0:	fe0700e3          	beq	a4,zero,1d9d0 <_svfiprintf_r+0x850>
   1d9f4:	00044703          	lbu	a4,0(s0)
   1d9f8:	fedff06f          	jal	zero,1d9e4 <_svfiprintf_r+0x864>
   1d9fc:	000d0613          	addi	a2,s10,0
   1da00:	00100693          	addi	a3,zero,1
   1da04:	b21ff06f          	jal	zero,1d524 <_svfiprintf_r+0x3a4>
   1da08:	00100613          	addi	a2,zero,1
   1da0c:	38c68463          	beq	a3,a2,1dd94 <_svfiprintf_r+0xc14>
   1da10:	00200613          	addi	a2,zero,2
   1da14:	14c68663          	beq	a3,a2,1db60 <_svfiprintf_r+0x9e0>
   1da18:	0f010693          	addi	a3,sp,240
   1da1c:	01da1593          	slli	a1,s4,0x1d
   1da20:	00777613          	andi	a2,a4,7
   1da24:	00375713          	srli	a4,a4,0x3
   1da28:	03060613          	addi	a2,a2,48
   1da2c:	00e5e733          	or	a4,a1,a4
   1da30:	003a5a13          	srli	s4,s4,0x3
   1da34:	fec68fa3          	sb	a2,-1(a3)
   1da38:	014765b3          	or	a1,a4,s4
   1da3c:	fff68413          	addi	s0,a3,-1
   1da40:	02059663          	bne	a1,zero,1da6c <_svfiprintf_r+0x8ec>
   1da44:	001d7713          	andi	a4,s10,1
   1da48:	00070a63          	beq	a4,zero,1da5c <_svfiprintf_r+0x8dc>
   1da4c:	03000713          	addi	a4,zero,48
   1da50:	00e60663          	beq	a2,a4,1da5c <_svfiprintf_r+0x8dc>
   1da54:	fee40fa3          	sb	a4,-1(s0)
   1da58:	ffe68413          	addi	s0,a3,-2
   1da5c:	0f010793          	addi	a5,sp,240
   1da60:	00048a13          	addi	s4,s1,0
   1da64:	408784b3          	sub	s1,a5,s0
   1da68:	c35ff06f          	jal	zero,1d69c <_svfiprintf_r+0x51c>
   1da6c:	00040693          	addi	a3,s0,0
   1da70:	fadff06f          	jal	zero,1da1c <_svfiprintf_r+0x89c>
   1da74:	400d7793          	andi	a5,s10,1024
   1da78:	00000313          	addi	t1,zero,0
   1da7c:	0f010e13          	addi	t3,sp,240
   1da80:	00f12223          	sw	a5,4(sp)
   1da84:	00070513          	addi	a0,a4,0
   1da88:	00a00613          	addi	a2,zero,10
   1da8c:	00000693          	addi	a3,zero,0
   1da90:	000a0593          	addi	a1,s4,0
   1da94:	02612623          	sw	t1,44(sp)
   1da98:	fffe0413          	addi	s0,t3,-1
   1da9c:	03c12223          	sw	t3,36(sp)
   1daa0:	02e12023          	sw	a4,32(sp)
   1daa4:	4e9000ef          	jal	ra,1e78c <__umoddi3>
   1daa8:	02412e03          	lw	t3,36(sp)
   1daac:	02c12303          	lw	t1,44(sp)
   1dab0:	00412783          	lw	a5,4(sp)
   1dab4:	03050513          	addi	a0,a0,48
   1dab8:	feae0fa3          	sb	a0,-1(t3)
   1dabc:	00130313          	addi	t1,t1,1
   1dac0:	02012703          	lw	a4,32(sp)
   1dac4:	04078e63          	beq	a5,zero,1db20 <_svfiprintf_r+0x9a0>
   1dac8:	00812783          	lw	a5,8(sp)
   1dacc:	0007c683          	lbu	a3,0(a5)
   1dad0:	04669863          	bne	a3,t1,1db20 <_svfiprintf_r+0x9a0>
   1dad4:	0ff00793          	addi	a5,zero,255
   1dad8:	04f30463          	beq	t1,a5,1db20 <_svfiprintf_r+0x9a0>
   1dadc:	000a1663          	bne	s4,zero,1dae8 <_svfiprintf_r+0x968>
   1dae0:	00900793          	addi	a5,zero,9
   1dae4:	02e7fe63          	bgeu	a5,a4,1db20 <_svfiprintf_r+0x9a0>
   1dae8:	00c12783          	lw	a5,12(sp)
   1daec:	01c12583          	lw	a1,28(sp)
   1daf0:	02e12023          	sw	a4,32(sp)
   1daf4:	40f40433          	sub	s0,s0,a5
   1daf8:	00078613          	addi	a2,a5,0
   1dafc:	00040513          	addi	a0,s0,0
   1db00:	84cfc0ef          	jal	ra,19b4c <strncpy>
   1db04:	00812783          	lw	a5,8(sp)
   1db08:	00000313          	addi	t1,zero,0
   1db0c:	02012703          	lw	a4,32(sp)
   1db10:	0017c683          	lbu	a3,1(a5)
   1db14:	00068663          	beq	a3,zero,1db20 <_svfiprintf_r+0x9a0>
   1db18:	00178793          	addi	a5,a5,1
   1db1c:	00f12423          	sw	a5,8(sp)
   1db20:	00070513          	addi	a0,a4,0
   1db24:	00a00613          	addi	a2,zero,10
   1db28:	00000693          	addi	a3,zero,0
   1db2c:	000a0593          	addi	a1,s4,0
   1db30:	02612223          	sw	t1,36(sp)
   1db34:	02e12023          	sw	a4,32(sp)
   1db38:	680000ef          	jal	ra,1e1b8 <__udivdi3>
   1db3c:	02012703          	lw	a4,32(sp)
   1db40:	02412303          	lw	t1,36(sp)
   1db44:	000a1663          	bne	s4,zero,1db50 <_svfiprintf_r+0x9d0>
   1db48:	00900793          	addi	a5,zero,9
   1db4c:	f0e7f8e3          	bgeu	a5,a4,1da5c <_svfiprintf_r+0x8dc>
   1db50:	00050713          	addi	a4,a0,0
   1db54:	00058a13          	addi	s4,a1,0
   1db58:	00040e13          	addi	t3,s0,0
   1db5c:	f29ff06f          	jal	zero,1da84 <_svfiprintf_r+0x904>
   1db60:	0f010413          	addi	s0,sp,240
   1db64:	01012783          	lw	a5,16(sp)
   1db68:	00f77693          	andi	a3,a4,15
   1db6c:	fff40413          	addi	s0,s0,-1
   1db70:	00d786b3          	add	a3,a5,a3
   1db74:	0006c683          	lbu	a3,0(a3)
   1db78:	00475713          	srli	a4,a4,0x4
   1db7c:	00d40023          	sb	a3,0(s0)
   1db80:	01ca1693          	slli	a3,s4,0x1c
   1db84:	00e6e733          	or	a4,a3,a4
   1db88:	004a5a13          	srli	s4,s4,0x4
   1db8c:	014766b3          	or	a3,a4,s4
   1db90:	fc069ae3          	bne	a3,zero,1db64 <_svfiprintf_r+0x9e4>
   1db94:	ec9ff06f          	jal	zero,1da5c <_svfiprintf_r+0x8dc>
   1db98:	0f010413          	addi	s0,sp,240
   1db9c:	ec0690e3          	bne	a3,zero,1da5c <_svfiprintf_r+0x8dc>
   1dba0:	00167613          	andi	a2,a2,1
   1dba4:	ea060ce3          	beq	a2,zero,1da5c <_svfiprintf_r+0x8dc>
   1dba8:	03000713          	addi	a4,zero,48
   1dbac:	1f80006f          	jal	zero,1dda4 <_svfiprintf_r+0xc24>
   1dbb0:	1c060063          	beq	a2,zero,1dd70 <_svfiprintf_r+0xbf0>
   1dbb4:	08c10623          	sb	a2,140(sp)
   1dbb8:	02010da3          	sb	zero,59(sp)
   1dbbc:	00040c93          	addi	s9,s0,0
   1dbc0:	909ff06f          	jal	zero,1d4c8 <_svfiprintf_r+0x348>
   1dbc4:	01060613          	addi	a2,a2,16
   1dbc8:	011da223          	sw	a7,4(s11)
   1dbcc:	04c12423          	sw	a2,72(sp)
   1dbd0:	04d12223          	sw	a3,68(sp)
   1dbd4:	02d35663          	bge	t1,a3,1dc00 <_svfiprintf_r+0xa80>
   1dbd8:	04010613          	addi	a2,sp,64
   1dbdc:	00090593          	addi	a1,s2,0
   1dbe0:	00098513          	addi	a0,s3,0
   1dbe4:	02e12623          	sw	a4,44(sp)
   1dbe8:	bdcff0ef          	jal	ra,1cfc4 <__ssprint_r>
   1dbec:	10051063          	bne	a0,zero,1dcec <_svfiprintf_r+0xb6c>
   1dbf0:	02c12703          	lw	a4,44(sp)
   1dbf4:	000b8593          	addi	a1,s7,0
   1dbf8:	00700313          	addi	t1,zero,7
   1dbfc:	01000893          	addi	a7,zero,16
   1dc00:	ff070713          	addi	a4,a4,-16
   1dc04:	00058d93          	addi	s11,a1,0
   1dc08:	aedff06f          	jal	zero,1d6f4 <_svfiprintf_r+0x574>
   1dc0c:	01060613          	addi	a2,a2,16
   1dc10:	011da223          	sw	a7,4(s11)
   1dc14:	04c12423          	sw	a2,72(sp)
   1dc18:	04d12223          	sw	a3,68(sp)
   1dc1c:	02d35663          	bge	t1,a3,1dc48 <_svfiprintf_r+0xac8>
   1dc20:	04010613          	addi	a2,sp,64
   1dc24:	00090593          	addi	a1,s2,0
   1dc28:	00098513          	addi	a0,s3,0
   1dc2c:	02e12023          	sw	a4,32(sp)
   1dc30:	b94ff0ef          	jal	ra,1cfc4 <__ssprint_r>
   1dc34:	0a051c63          	bne	a0,zero,1dcec <_svfiprintf_r+0xb6c>
   1dc38:	02012703          	lw	a4,32(sp)
   1dc3c:	000b8593          	addi	a1,s7,0
   1dc40:	00700313          	addi	t1,zero,7
   1dc44:	01000893          	addi	a7,zero,16
   1dc48:	ff070713          	addi	a4,a4,-16
   1dc4c:	00058d93          	addi	s11,a1,0
   1dc50:	bbdff06f          	jal	zero,1d80c <_svfiprintf_r+0x68c>
   1dc54:	01068693          	addi	a3,a3,16
   1dc58:	011da223          	sw	a7,4(s11)
   1dc5c:	04d12423          	sw	a3,72(sp)
   1dc60:	04e12223          	sw	a4,68(sp)
   1dc64:	02e35263          	bge	t1,a4,1dc88 <_svfiprintf_r+0xb08>
   1dc68:	04010613          	addi	a2,sp,64
   1dc6c:	00090593          	addi	a1,s2,0
   1dc70:	00098513          	addi	a0,s3,0
   1dc74:	b50ff0ef          	jal	ra,1cfc4 <__ssprint_r>
   1dc78:	06051a63          	bne	a0,zero,1dcec <_svfiprintf_r+0xb6c>
   1dc7c:	000b8613          	addi	a2,s7,0
   1dc80:	00700313          	addi	t1,zero,7
   1dc84:	01000893          	addi	a7,zero,16
   1dc88:	ff0a0a13          	addi	s4,s4,-16
   1dc8c:	00060d93          	addi	s11,a2,0
   1dc90:	bddff06f          	jal	zero,1d86c <_svfiprintf_r+0x6ec>
   1dc94:	00412783          	lw	a5,4(sp)
   1dc98:	40fa8433          	sub	s0,s5,a5
   1dc9c:	c68056e3          	bge	zero,s0,1d908 <_svfiprintf_r+0x788>
   1dca0:	01000493          	addi	s1,zero,16
   1dca4:	00700a13          	addi	s4,zero,7
   1dca8:	01812683          	lw	a3,24(sp)
   1dcac:	04412783          	lw	a5,68(sp)
   1dcb0:	04812703          	lw	a4,72(sp)
   1dcb4:	00d82023          	sw	a3,0(a6)
   1dcb8:	00178793          	addi	a5,a5,1
   1dcbc:	0684ce63          	blt	s1,s0,1dd38 <_svfiprintf_r+0xbb8>
   1dcc0:	00870733          	add	a4,a4,s0
   1dcc4:	04e12423          	sw	a4,72(sp)
   1dcc8:	00882223          	sw	s0,4(a6)
   1dccc:	04f12223          	sw	a5,68(sp)
   1dcd0:	00700713          	addi	a4,zero,7
   1dcd4:	c2f75ae3          	bge	a4,a5,1d908 <_svfiprintf_r+0x788>
   1dcd8:	04010613          	addi	a2,sp,64
   1dcdc:	00090593          	addi	a1,s2,0
   1dce0:	00098513          	addi	a0,s3,0
   1dce4:	ae0ff0ef          	jal	ra,1cfc4 <__ssprint_r>
   1dce8:	c20500e3          	beq	a0,zero,1d908 <_svfiprintf_r+0x788>
   1dcec:	00c95783          	lhu	a5,12(s2)
   1dcf0:	0407f793          	andi	a5,a5,64
   1dcf4:	d0079263          	bne	a5,zero,1d1f8 <_svfiprintf_r+0x78>
   1dcf8:	12c12083          	lw	ra,300(sp)
   1dcfc:	12812403          	lw	s0,296(sp)
   1dd00:	000c0513          	addi	a0,s8,0
   1dd04:	12412483          	lw	s1,292(sp)
   1dd08:	12012903          	lw	s2,288(sp)
   1dd0c:	11c12983          	lw	s3,284(sp)
   1dd10:	11812a03          	lw	s4,280(sp)
   1dd14:	11412a83          	lw	s5,276(sp)
   1dd18:	11012b03          	lw	s6,272(sp)
   1dd1c:	10c12b83          	lw	s7,268(sp)
   1dd20:	10812c03          	lw	s8,264(sp)
   1dd24:	10412c83          	lw	s9,260(sp)
   1dd28:	10012d03          	lw	s10,256(sp)
   1dd2c:	0fc12d83          	lw	s11,252(sp)
   1dd30:	13010113          	addi	sp,sp,304
   1dd34:	00008067          	jalr	zero,0(ra)
   1dd38:	01070713          	addi	a4,a4,16
   1dd3c:	00982223          	sw	s1,4(a6)
   1dd40:	04e12423          	sw	a4,72(sp)
   1dd44:	04f12223          	sw	a5,68(sp)
   1dd48:	00880813          	addi	a6,a6,8
   1dd4c:	00fa5e63          	bge	s4,a5,1dd68 <_svfiprintf_r+0xbe8>
   1dd50:	04010613          	addi	a2,sp,64
   1dd54:	00090593          	addi	a1,s2,0
   1dd58:	00098513          	addi	a0,s3,0
   1dd5c:	a68ff0ef          	jal	ra,1cfc4 <__ssprint_r>
   1dd60:	f80516e3          	bne	a0,zero,1dcec <_svfiprintf_r+0xb6c>
   1dd64:	000b8813          	addi	a6,s7,0
   1dd68:	ff040413          	addi	s0,s0,-16
   1dd6c:	f3dff06f          	jal	zero,1dca8 <_svfiprintf_r+0xb28>
   1dd70:	04812783          	lw	a5,72(sp)
   1dd74:	f6078ce3          	beq	a5,zero,1dcec <_svfiprintf_r+0xb6c>
   1dd78:	04010613          	addi	a2,sp,64
   1dd7c:	00090593          	addi	a1,s2,0
   1dd80:	00098513          	addi	a0,s3,0
   1dd84:	a40ff0ef          	jal	ra,1cfc4 <__ssprint_r>
   1dd88:	f65ff06f          	jal	zero,1dcec <_svfiprintf_r+0xb6c>
   1dd8c:	fff00693          	addi	a3,zero,-1
   1dd90:	c6d496e3          	bne	s1,a3,1d9fc <_svfiprintf_r+0x87c>
   1dd94:	ce0a10e3          	bne	s4,zero,1da74 <_svfiprintf_r+0x8f4>
   1dd98:	00900693          	addi	a3,zero,9
   1dd9c:	cce6ece3          	bltu	a3,a4,1da74 <_svfiprintf_r+0x8f4>
   1dda0:	03070713          	addi	a4,a4,48
   1dda4:	0ee107a3          	sb	a4,239(sp)
   1dda8:	0ef10413          	addi	s0,sp,239
   1ddac:	cb1ff06f          	jal	zero,1da5c <_svfiprintf_r+0x8dc>

0001ddb0 <_wcrtomb_r>:
   1ddb0:	1c01a783          	lw	a5,448(gp) # 25b90 <_impure_ptr>
   1ddb4:	fe010113          	addi	sp,sp,-32
   1ddb8:	00812c23          	sw	s0,24(sp)
   1ddbc:	00912a23          	sw	s1,20(sp)
   1ddc0:	00112e23          	sw	ra,28(sp)
   1ddc4:	00050413          	addi	s0,a0,0
   1ddc8:	00068493          	addi	s1,a3,0
   1ddcc:	0347a783          	lw	a5,52(a5)
   1ddd0:	04059663          	bne	a1,zero,1de1c <_wcrtomb_r+0x6c>
   1ddd4:	00079463          	bne	a5,zero,1dddc <_wcrtomb_r+0x2c>
   1ddd8:	c2818793          	addi	a5,gp,-984 # 255f8 <__global_locale>
   1dddc:	0e07a783          	lw	a5,224(a5)
   1dde0:	00048693          	addi	a3,s1,0
   1dde4:	00000613          	addi	a2,zero,0
   1dde8:	00410593          	addi	a1,sp,4
   1ddec:	00040513          	addi	a0,s0,0
   1ddf0:	000780e7          	jalr	ra,0(a5)
   1ddf4:	fff00793          	addi	a5,zero,-1
   1ddf8:	00f51863          	bne	a0,a5,1de08 <_wcrtomb_r+0x58>
   1ddfc:	0004a023          	sw	zero,0(s1)
   1de00:	08a00793          	addi	a5,zero,138
   1de04:	00f42023          	sw	a5,0(s0)
   1de08:	01c12083          	lw	ra,28(sp)
   1de0c:	01812403          	lw	s0,24(sp)
   1de10:	01412483          	lw	s1,20(sp)
   1de14:	02010113          	addi	sp,sp,32
   1de18:	00008067          	jalr	zero,0(ra)
   1de1c:	00079463          	bne	a5,zero,1de24 <_wcrtomb_r+0x74>
   1de20:	c2818793          	addi	a5,gp,-984 # 255f8 <__global_locale>
   1de24:	0e07a783          	lw	a5,224(a5)
   1de28:	00048693          	addi	a3,s1,0
   1de2c:	fc1ff06f          	jal	zero,1ddec <_wcrtomb_r+0x3c>

0001de30 <wcrtomb>:
   1de30:	00060693          	addi	a3,a2,0
   1de34:	00058613          	addi	a2,a1,0
   1de38:	00050593          	addi	a1,a0,0
   1de3c:	1c01a503          	lw	a0,448(gp) # 25b90 <_impure_ptr>
   1de40:	f71ff06f          	jal	zero,1ddb0 <_wcrtomb_r>

0001de44 <_close>:
   1de44:	ff010113          	addi	sp,sp,-16
   1de48:	00112623          	sw	ra,12(sp)
   1de4c:	00812423          	sw	s0,8(sp)
   1de50:	00000593          	addi	a1,zero,0
   1de54:	00000613          	addi	a2,zero,0
   1de58:	00000693          	addi	a3,zero,0
   1de5c:	00000713          	addi	a4,zero,0
   1de60:	00000793          	addi	a5,zero,0
   1de64:	03900893          	addi	a7,zero,57
   1de68:	00000073          	ecall
   1de6c:	00050413          	addi	s0,a0,0
   1de70:	00055a63          	bge	a0,zero,1de84 <_close+0x40>
   1de74:	40800433          	sub	s0,zero,s0
   1de78:	338000ef          	jal	ra,1e1b0 <__errno>
   1de7c:	00852023          	sw	s0,0(a0)
   1de80:	fff00413          	addi	s0,zero,-1
   1de84:	00040513          	addi	a0,s0,0
   1de88:	00c12083          	lw	ra,12(sp)
   1de8c:	00812403          	lw	s0,8(sp)
   1de90:	01010113          	addi	sp,sp,16
   1de94:	00008067          	jalr	zero,0(ra)

0001de98 <_exit>:
   1de98:	00000593          	addi	a1,zero,0
   1de9c:	00000613          	addi	a2,zero,0
   1dea0:	00000693          	addi	a3,zero,0
   1dea4:	00000713          	addi	a4,zero,0
   1dea8:	00000793          	addi	a5,zero,0
   1deac:	05d00893          	addi	a7,zero,93
   1deb0:	00000073          	ecall
   1deb4:	02055263          	bge	a0,zero,1ded8 <_exit+0x40>
   1deb8:	ff010113          	addi	sp,sp,-16
   1debc:	00812423          	sw	s0,8(sp)
   1dec0:	00050413          	addi	s0,a0,0
   1dec4:	00112623          	sw	ra,12(sp)
   1dec8:	40800433          	sub	s0,zero,s0
   1decc:	2e4000ef          	jal	ra,1e1b0 <__errno>
   1ded0:	00852023          	sw	s0,0(a0)
   1ded4:	0000006f          	jal	zero,1ded4 <_exit+0x3c>
   1ded8:	0000006f          	jal	zero,1ded8 <_exit+0x40>

0001dedc <_fstat>:
   1dedc:	f7010113          	addi	sp,sp,-144
   1dee0:	08912223          	sw	s1,132(sp)
   1dee4:	08112623          	sw	ra,140(sp)
   1dee8:	00058493          	addi	s1,a1,0
   1deec:	08812423          	sw	s0,136(sp)
   1def0:	00010593          	addi	a1,sp,0
   1def4:	00000613          	addi	a2,zero,0
   1def8:	00000693          	addi	a3,zero,0
   1defc:	00000713          	addi	a4,zero,0
   1df00:	00000793          	addi	a5,zero,0
   1df04:	05000893          	addi	a7,zero,80
   1df08:	00000073          	ecall
   1df0c:	00050413          	addi	s0,a0,0
   1df10:	00055a63          	bge	a0,zero,1df24 <_fstat+0x48>
   1df14:	40800433          	sub	s0,zero,s0
   1df18:	298000ef          	jal	ra,1e1b0 <__errno>
   1df1c:	00852023          	sw	s0,0(a0)
   1df20:	fff00413          	addi	s0,zero,-1
   1df24:	00048513          	addi	a0,s1,0
   1df28:	00010593          	addi	a1,sp,0
   1df2c:	200000ef          	jal	ra,1e12c <_conv_stat>
   1df30:	00040513          	addi	a0,s0,0
   1df34:	08c12083          	lw	ra,140(sp)
   1df38:	08812403          	lw	s0,136(sp)
   1df3c:	08412483          	lw	s1,132(sp)
   1df40:	09010113          	addi	sp,sp,144
   1df44:	00008067          	jalr	zero,0(ra)

0001df48 <_isatty>:
   1df48:	f9010113          	addi	sp,sp,-112
   1df4c:	00810593          	addi	a1,sp,8
   1df50:	06112623          	sw	ra,108(sp)
   1df54:	f89ff0ef          	jal	ra,1dedc <_fstat>
   1df58:	fff00793          	addi	a5,zero,-1
   1df5c:	00f50e63          	beq	a0,a5,1df78 <_isatty+0x30>
   1df60:	00c12503          	lw	a0,12(sp)
   1df64:	00d55513          	srli	a0,a0,0xd
   1df68:	00157513          	andi	a0,a0,1
   1df6c:	06c12083          	lw	ra,108(sp)
   1df70:	07010113          	addi	sp,sp,112
   1df74:	00008067          	jalr	zero,0(ra)
   1df78:	00000513          	addi	a0,zero,0
   1df7c:	ff1ff06f          	jal	zero,1df6c <_isatty+0x24>

0001df80 <_lseek>:
   1df80:	ff010113          	addi	sp,sp,-16
   1df84:	00112623          	sw	ra,12(sp)
   1df88:	00812423          	sw	s0,8(sp)
   1df8c:	00000693          	addi	a3,zero,0
   1df90:	00000713          	addi	a4,zero,0
   1df94:	00000793          	addi	a5,zero,0
   1df98:	03e00893          	addi	a7,zero,62
   1df9c:	00000073          	ecall
   1dfa0:	00050413          	addi	s0,a0,0
   1dfa4:	00055a63          	bge	a0,zero,1dfb8 <_lseek+0x38>
   1dfa8:	40800433          	sub	s0,zero,s0
   1dfac:	204000ef          	jal	ra,1e1b0 <__errno>
   1dfb0:	00852023          	sw	s0,0(a0)
   1dfb4:	fff00413          	addi	s0,zero,-1
   1dfb8:	00040513          	addi	a0,s0,0
   1dfbc:	00c12083          	lw	ra,12(sp)
   1dfc0:	00812403          	lw	s0,8(sp)
   1dfc4:	01010113          	addi	sp,sp,16
   1dfc8:	00008067          	jalr	zero,0(ra)

0001dfcc <_read>:
   1dfcc:	ff010113          	addi	sp,sp,-16
   1dfd0:	00112623          	sw	ra,12(sp)
   1dfd4:	00812423          	sw	s0,8(sp)
   1dfd8:	00000693          	addi	a3,zero,0
   1dfdc:	00000713          	addi	a4,zero,0
   1dfe0:	00000793          	addi	a5,zero,0
   1dfe4:	03f00893          	addi	a7,zero,63
   1dfe8:	00000073          	ecall
   1dfec:	00050413          	addi	s0,a0,0
   1dff0:	00055a63          	bge	a0,zero,1e004 <_read+0x38>
   1dff4:	40800433          	sub	s0,zero,s0
   1dff8:	1b8000ef          	jal	ra,1e1b0 <__errno>
   1dffc:	00852023          	sw	s0,0(a0)
   1e000:	fff00413          	addi	s0,zero,-1
   1e004:	00040513          	addi	a0,s0,0
   1e008:	00c12083          	lw	ra,12(sp)
   1e00c:	00812403          	lw	s0,8(sp)
   1e010:	01010113          	addi	sp,sp,16
   1e014:	00008067          	jalr	zero,0(ra)

0001e018 <_sbrk>:
   1e018:	ff010113          	addi	sp,sp,-16
   1e01c:	00812423          	sw	s0,8(sp)
   1e020:	1dc1a783          	lw	a5,476(gp) # 25bac <heap_end.1852>
   1e024:	01212023          	sw	s2,0(sp)
   1e028:	00112623          	sw	ra,12(sp)
   1e02c:	00912223          	sw	s1,4(sp)
   1e030:	00050913          	addi	s2,a0,0
   1e034:	04079a63          	bne	a5,zero,1e088 <_sbrk+0x70>
   1e038:	00000513          	addi	a0,zero,0
   1e03c:	00000593          	addi	a1,zero,0
   1e040:	00000613          	addi	a2,zero,0
   1e044:	00000693          	addi	a3,zero,0
   1e048:	00000713          	addi	a4,zero,0
   1e04c:	0d600893          	addi	a7,zero,214
   1e050:	00000073          	ecall
   1e054:	00050493          	addi	s1,a0,0
   1e058:	02055663          	bge	a0,zero,1e084 <_sbrk+0x6c>
   1e05c:	154000ef          	jal	ra,1e1b0 <__errno>
   1e060:	409004b3          	sub	s1,zero,s1
   1e064:	00952023          	sw	s1,0(a0)
   1e068:	fff00513          	addi	a0,zero,-1
   1e06c:	00c12083          	lw	ra,12(sp)
   1e070:	00812403          	lw	s0,8(sp)
   1e074:	00412483          	lw	s1,4(sp)
   1e078:	00012903          	lw	s2,0(sp)
   1e07c:	01010113          	addi	sp,sp,16
   1e080:	00008067          	jalr	zero,0(ra)
   1e084:	1ca1ae23          	sw	a0,476(gp) # 25bac <heap_end.1852>
   1e088:	1dc1a503          	lw	a0,476(gp) # 25bac <heap_end.1852>
   1e08c:	00000593          	addi	a1,zero,0
   1e090:	00000613          	addi	a2,zero,0
   1e094:	00a90533          	add	a0,s2,a0
   1e098:	00000693          	addi	a3,zero,0
   1e09c:	00000713          	addi	a4,zero,0
   1e0a0:	00000793          	addi	a5,zero,0
   1e0a4:	0d600893          	addi	a7,zero,214
   1e0a8:	00000073          	ecall
   1e0ac:	00050493          	addi	s1,a0,0
   1e0b0:	00055a63          	bge	a0,zero,1e0c4 <_sbrk+0xac>
   1e0b4:	409004b3          	sub	s1,zero,s1
   1e0b8:	0f8000ef          	jal	ra,1e1b0 <__errno>
   1e0bc:	00952023          	sw	s1,0(a0)
   1e0c0:	fff00493          	addi	s1,zero,-1
   1e0c4:	1dc1a783          	lw	a5,476(gp) # 25bac <heap_end.1852>
   1e0c8:	fff00513          	addi	a0,zero,-1
   1e0cc:	00f90933          	add	s2,s2,a5
   1e0d0:	f9249ee3          	bne	s1,s2,1e06c <_sbrk+0x54>
   1e0d4:	1c91ae23          	sw	s1,476(gp) # 25bac <heap_end.1852>
   1e0d8:	00078513          	addi	a0,a5,0
   1e0dc:	f91ff06f          	jal	zero,1e06c <_sbrk+0x54>

0001e0e0 <_write>:
   1e0e0:	ff010113          	addi	sp,sp,-16
   1e0e4:	00112623          	sw	ra,12(sp)
   1e0e8:	00812423          	sw	s0,8(sp)
   1e0ec:	00000693          	addi	a3,zero,0
   1e0f0:	00000713          	addi	a4,zero,0
   1e0f4:	00000793          	addi	a5,zero,0
   1e0f8:	04000893          	addi	a7,zero,64
   1e0fc:	00000073          	ecall
   1e100:	00050413          	addi	s0,a0,0
   1e104:	00055a63          	bge	a0,zero,1e118 <_write+0x38>
   1e108:	40800433          	sub	s0,zero,s0
   1e10c:	0a4000ef          	jal	ra,1e1b0 <__errno>
   1e110:	00852023          	sw	s0,0(a0)
   1e114:	fff00413          	addi	s0,zero,-1
   1e118:	00040513          	addi	a0,s0,0
   1e11c:	00c12083          	lw	ra,12(sp)
   1e120:	00812403          	lw	s0,8(sp)
   1e124:	01010113          	addi	sp,sp,16
   1e128:	00008067          	jalr	zero,0(ra)

0001e12c <_conv_stat>:
   1e12c:	0005a783          	lw	a5,0(a1)
   1e130:	0485a703          	lw	a4,72(a1)
   1e134:	00f51023          	sh	a5,0(a0)
   1e138:	0085a783          	lw	a5,8(a1)
   1e13c:	00f51123          	sh	a5,2(a0)
   1e140:	0105a783          	lw	a5,16(a1)
   1e144:	00f52223          	sw	a5,4(a0)
   1e148:	0145a783          	lw	a5,20(a1)
   1e14c:	00f51423          	sh	a5,8(a0)
   1e150:	0185a783          	lw	a5,24(a1)
   1e154:	00f51523          	sh	a5,10(a0)
   1e158:	01c5a783          	lw	a5,28(a1)
   1e15c:	00f51623          	sh	a5,12(a0)
   1e160:	0205a783          	lw	a5,32(a1)
   1e164:	00f51723          	sh	a5,14(a0)
   1e168:	0305a783          	lw	a5,48(a1)
   1e16c:	00f52823          	sw	a5,16(a0)
   1e170:	0405a783          	lw	a5,64(a1)
   1e174:	04f52423          	sw	a5,72(a0)
   1e178:	0385a783          	lw	a5,56(a1)
   1e17c:	04f52223          	sw	a5,68(a0)
   1e180:	04c5a783          	lw	a5,76(a1)
   1e184:	00e52c23          	sw	a4,24(a0)
   1e188:	0585a703          	lw	a4,88(a1)
   1e18c:	00f52e23          	sw	a5,28(a0)
   1e190:	05c5a783          	lw	a5,92(a1)
   1e194:	02e52423          	sw	a4,40(a0)
   1e198:	0685a703          	lw	a4,104(a1)
   1e19c:	02f52623          	sw	a5,44(a0)
   1e1a0:	06c5a783          	lw	a5,108(a1)
   1e1a4:	02e52c23          	sw	a4,56(a0)
   1e1a8:	02f52e23          	sw	a5,60(a0)
   1e1ac:	00008067          	jalr	zero,0(ra)

0001e1b0 <__errno>:
   1e1b0:	1c01a503          	lw	a0,448(gp) # 25b90 <_impure_ptr>
   1e1b4:	00008067          	jalr	zero,0(ra)

0001e1b8 <__udivdi3>:
   1e1b8:	fd010113          	addi	sp,sp,-48
   1e1bc:	02912223          	sw	s1,36(sp)
   1e1c0:	01612823          	sw	s6,16(sp)
   1e1c4:	02112623          	sw	ra,44(sp)
   1e1c8:	02812423          	sw	s0,40(sp)
   1e1cc:	03212023          	sw	s2,32(sp)
   1e1d0:	01312e23          	sw	s3,28(sp)
   1e1d4:	01412c23          	sw	s4,24(sp)
   1e1d8:	01512a23          	sw	s5,20(sp)
   1e1dc:	01712623          	sw	s7,12(sp)
   1e1e0:	01812423          	sw	s8,8(sp)
   1e1e4:	01912223          	sw	s9,4(sp)
   1e1e8:	00050b13          	addi	s6,a0,0
   1e1ec:	00058493          	addi	s1,a1,0
   1e1f0:	38069c63          	bne	a3,zero,1e588 <__udivdi3+0x3d0>
   1e1f4:	00024937          	lui	s2,0x24
   1e1f8:	00060413          	addi	s0,a2,0
   1e1fc:	00050993          	addi	s3,a0,0
   1e200:	01490913          	addi	s2,s2,20 # 24014 <__clz_tab>
   1e204:	12c5f863          	bgeu	a1,a2,1e334 <__udivdi3+0x17c>
   1e208:	000107b7          	lui	a5,0x10
   1e20c:	00058a93          	addi	s5,a1,0
   1e210:	10f67863          	bgeu	a2,a5,1e320 <__udivdi3+0x168>
   1e214:	0ff00693          	addi	a3,zero,255
   1e218:	00c6b6b3          	sltu	a3,a3,a2
   1e21c:	00369693          	slli	a3,a3,0x3
   1e220:	00d657b3          	srl	a5,a2,a3
   1e224:	00f90933          	add	s2,s2,a5
   1e228:	00094703          	lbu	a4,0(s2)
   1e22c:	00d706b3          	add	a3,a4,a3
   1e230:	02000713          	addi	a4,zero,32
   1e234:	40d70733          	sub	a4,a4,a3
   1e238:	00070c63          	beq	a4,zero,1e250 <__udivdi3+0x98>
   1e23c:	00e494b3          	sll	s1,s1,a4
   1e240:	00db56b3          	srl	a3,s6,a3
   1e244:	00e61433          	sll	s0,a2,a4
   1e248:	0096eab3          	or	s5,a3,s1
   1e24c:	00eb19b3          	sll	s3,s6,a4
   1e250:	01045b13          	srli	s6,s0,0x10
   1e254:	000b0593          	addi	a1,s6,0
   1e258:	000a8513          	addi	a0,s5,0
   1e25c:	54d040ef          	jal	ra,22fa8 <__umodsi3>
   1e260:	00050913          	addi	s2,a0,0
   1e264:	000b0593          	addi	a1,s6,0
   1e268:	01041b93          	slli	s7,s0,0x10
   1e26c:	000a8513          	addi	a0,s5,0
   1e270:	4f1040ef          	jal	ra,22f60 <__udivsi3>
   1e274:	010bdb93          	srli	s7,s7,0x10
   1e278:	00050493          	addi	s1,a0,0
   1e27c:	00050593          	addi	a1,a0,0
   1e280:	000b8513          	addi	a0,s7,0
   1e284:	4b1040ef          	jal	ra,22f34 <__mulsi3>
   1e288:	01091913          	slli	s2,s2,0x10
   1e28c:	0109d713          	srli	a4,s3,0x10
   1e290:	00e96733          	or	a4,s2,a4
   1e294:	00048a13          	addi	s4,s1,0
   1e298:	00a77e63          	bgeu	a4,a0,1e2b4 <__udivdi3+0xfc>
   1e29c:	00870733          	add	a4,a4,s0
   1e2a0:	fff48a13          	addi	s4,s1,-1
   1e2a4:	00876863          	bltu	a4,s0,1e2b4 <__udivdi3+0xfc>
   1e2a8:	00a77663          	bgeu	a4,a0,1e2b4 <__udivdi3+0xfc>
   1e2ac:	ffe48a13          	addi	s4,s1,-2
   1e2b0:	00870733          	add	a4,a4,s0
   1e2b4:	40a704b3          	sub	s1,a4,a0
   1e2b8:	000b0593          	addi	a1,s6,0
   1e2bc:	00048513          	addi	a0,s1,0
   1e2c0:	4e9040ef          	jal	ra,22fa8 <__umodsi3>
   1e2c4:	00050913          	addi	s2,a0,0
   1e2c8:	000b0593          	addi	a1,s6,0
   1e2cc:	00048513          	addi	a0,s1,0
   1e2d0:	491040ef          	jal	ra,22f60 <__udivsi3>
   1e2d4:	01099993          	slli	s3,s3,0x10
   1e2d8:	00050493          	addi	s1,a0,0
   1e2dc:	00050593          	addi	a1,a0,0
   1e2e0:	01091913          	slli	s2,s2,0x10
   1e2e4:	000b8513          	addi	a0,s7,0
   1e2e8:	0109d993          	srli	s3,s3,0x10
   1e2ec:	449040ef          	jal	ra,22f34 <__mulsi3>
   1e2f0:	013969b3          	or	s3,s2,s3
   1e2f4:	00048613          	addi	a2,s1,0
   1e2f8:	00a9fc63          	bgeu	s3,a0,1e310 <__udivdi3+0x158>
   1e2fc:	013409b3          	add	s3,s0,s3
   1e300:	fff48613          	addi	a2,s1,-1
   1e304:	0089e663          	bltu	s3,s0,1e310 <__udivdi3+0x158>
   1e308:	00a9f463          	bgeu	s3,a0,1e310 <__udivdi3+0x158>
   1e30c:	ffe48613          	addi	a2,s1,-2
   1e310:	010a1793          	slli	a5,s4,0x10
   1e314:	00c7e7b3          	or	a5,a5,a2
   1e318:	00000a13          	addi	s4,zero,0
   1e31c:	1300006f          	jal	zero,1e44c <__udivdi3+0x294>
   1e320:	010007b7          	lui	a5,0x1000
   1e324:	01000693          	addi	a3,zero,16
   1e328:	eef66ce3          	bltu	a2,a5,1e220 <__udivdi3+0x68>
   1e32c:	01800693          	addi	a3,zero,24
   1e330:	ef1ff06f          	jal	zero,1e220 <__udivdi3+0x68>
   1e334:	00068a13          	addi	s4,a3,0
   1e338:	00061a63          	bne	a2,zero,1e34c <__udivdi3+0x194>
   1e33c:	00000593          	addi	a1,zero,0
   1e340:	00100513          	addi	a0,zero,1
   1e344:	41d040ef          	jal	ra,22f60 <__udivsi3>
   1e348:	00050413          	addi	s0,a0,0
   1e34c:	000107b7          	lui	a5,0x10
   1e350:	12f47c63          	bgeu	s0,a5,1e488 <__udivdi3+0x2d0>
   1e354:	0ff00793          	addi	a5,zero,255
   1e358:	0087f463          	bgeu	a5,s0,1e360 <__udivdi3+0x1a8>
   1e35c:	00800a13          	addi	s4,zero,8
   1e360:	014457b3          	srl	a5,s0,s4
   1e364:	00f90933          	add	s2,s2,a5
   1e368:	00094683          	lbu	a3,0(s2)
   1e36c:	02000613          	addi	a2,zero,32
   1e370:	014686b3          	add	a3,a3,s4
   1e374:	40d60633          	sub	a2,a2,a3
   1e378:	12061263          	bne	a2,zero,1e49c <__udivdi3+0x2e4>
   1e37c:	408484b3          	sub	s1,s1,s0
   1e380:	00100a13          	addi	s4,zero,1
   1e384:	01045b13          	srli	s6,s0,0x10
   1e388:	000b0593          	addi	a1,s6,0
   1e38c:	00048513          	addi	a0,s1,0
   1e390:	419040ef          	jal	ra,22fa8 <__umodsi3>
   1e394:	00050913          	addi	s2,a0,0
   1e398:	000b0593          	addi	a1,s6,0
   1e39c:	00048513          	addi	a0,s1,0
   1e3a0:	01041b93          	slli	s7,s0,0x10
   1e3a4:	3bd040ef          	jal	ra,22f60 <__udivsi3>
   1e3a8:	010bdb93          	srli	s7,s7,0x10
   1e3ac:	00050493          	addi	s1,a0,0
   1e3b0:	00050593          	addi	a1,a0,0
   1e3b4:	000b8513          	addi	a0,s7,0
   1e3b8:	37d040ef          	jal	ra,22f34 <__mulsi3>
   1e3bc:	01091913          	slli	s2,s2,0x10
   1e3c0:	0109d713          	srli	a4,s3,0x10
   1e3c4:	00e96733          	or	a4,s2,a4
   1e3c8:	00048a93          	addi	s5,s1,0
   1e3cc:	00a77e63          	bgeu	a4,a0,1e3e8 <__udivdi3+0x230>
   1e3d0:	00870733          	add	a4,a4,s0
   1e3d4:	fff48a93          	addi	s5,s1,-1
   1e3d8:	00876863          	bltu	a4,s0,1e3e8 <__udivdi3+0x230>
   1e3dc:	00a77663          	bgeu	a4,a0,1e3e8 <__udivdi3+0x230>
   1e3e0:	ffe48a93          	addi	s5,s1,-2
   1e3e4:	00870733          	add	a4,a4,s0
   1e3e8:	40a704b3          	sub	s1,a4,a0
   1e3ec:	000b0593          	addi	a1,s6,0
   1e3f0:	00048513          	addi	a0,s1,0
   1e3f4:	3b5040ef          	jal	ra,22fa8 <__umodsi3>
   1e3f8:	00050913          	addi	s2,a0,0
   1e3fc:	000b0593          	addi	a1,s6,0
   1e400:	00048513          	addi	a0,s1,0
   1e404:	35d040ef          	jal	ra,22f60 <__udivsi3>
   1e408:	01099993          	slli	s3,s3,0x10
   1e40c:	00050493          	addi	s1,a0,0
   1e410:	00050593          	addi	a1,a0,0
   1e414:	01091913          	slli	s2,s2,0x10
   1e418:	000b8513          	addi	a0,s7,0
   1e41c:	0109d993          	srli	s3,s3,0x10
   1e420:	315040ef          	jal	ra,22f34 <__mulsi3>
   1e424:	013969b3          	or	s3,s2,s3
   1e428:	00048613          	addi	a2,s1,0
   1e42c:	00a9fc63          	bgeu	s3,a0,1e444 <__udivdi3+0x28c>
   1e430:	013409b3          	add	s3,s0,s3
   1e434:	fff48613          	addi	a2,s1,-1
   1e438:	0089e663          	bltu	s3,s0,1e444 <__udivdi3+0x28c>
   1e43c:	00a9f463          	bgeu	s3,a0,1e444 <__udivdi3+0x28c>
   1e440:	ffe48613          	addi	a2,s1,-2
   1e444:	010a9793          	slli	a5,s5,0x10
   1e448:	00c7e7b3          	or	a5,a5,a2
   1e44c:	00078513          	addi	a0,a5,0 # 10000 <main-0x74>
   1e450:	000a0593          	addi	a1,s4,0
   1e454:	02c12083          	lw	ra,44(sp)
   1e458:	02812403          	lw	s0,40(sp)
   1e45c:	02412483          	lw	s1,36(sp)
   1e460:	02012903          	lw	s2,32(sp)
   1e464:	01c12983          	lw	s3,28(sp)
   1e468:	01812a03          	lw	s4,24(sp)
   1e46c:	01412a83          	lw	s5,20(sp)
   1e470:	01012b03          	lw	s6,16(sp)
   1e474:	00c12b83          	lw	s7,12(sp)
   1e478:	00812c03          	lw	s8,8(sp)
   1e47c:	00412c83          	lw	s9,4(sp)
   1e480:	03010113          	addi	sp,sp,48
   1e484:	00008067          	jalr	zero,0(ra)
   1e488:	010007b7          	lui	a5,0x1000
   1e48c:	01000a13          	addi	s4,zero,16
   1e490:	ecf468e3          	bltu	s0,a5,1e360 <__udivdi3+0x1a8>
   1e494:	01800a13          	addi	s4,zero,24
   1e498:	ec9ff06f          	jal	zero,1e360 <__udivdi3+0x1a8>
   1e49c:	00c41433          	sll	s0,s0,a2
   1e4a0:	00d4da33          	srl	s4,s1,a3
   1e4a4:	00cb19b3          	sll	s3,s6,a2
   1e4a8:	00db56b3          	srl	a3,s6,a3
   1e4ac:	01045b13          	srli	s6,s0,0x10
   1e4b0:	00c494b3          	sll	s1,s1,a2
   1e4b4:	000b0593          	addi	a1,s6,0
   1e4b8:	000a0513          	addi	a0,s4,0
   1e4bc:	0096eab3          	or	s5,a3,s1
   1e4c0:	2e9040ef          	jal	ra,22fa8 <__umodsi3>
   1e4c4:	00050913          	addi	s2,a0,0
   1e4c8:	000b0593          	addi	a1,s6,0
   1e4cc:	000a0513          	addi	a0,s4,0
   1e4d0:	01041b93          	slli	s7,s0,0x10
   1e4d4:	28d040ef          	jal	ra,22f60 <__udivsi3>
   1e4d8:	010bdb93          	srli	s7,s7,0x10
   1e4dc:	00050493          	addi	s1,a0,0
   1e4e0:	00050593          	addi	a1,a0,0
   1e4e4:	000b8513          	addi	a0,s7,0
   1e4e8:	24d040ef          	jal	ra,22f34 <__mulsi3>
   1e4ec:	01091913          	slli	s2,s2,0x10
   1e4f0:	010ad713          	srli	a4,s5,0x10
   1e4f4:	00e96733          	or	a4,s2,a4
   1e4f8:	00048a13          	addi	s4,s1,0
   1e4fc:	00a77e63          	bgeu	a4,a0,1e518 <__udivdi3+0x360>
   1e500:	00870733          	add	a4,a4,s0
   1e504:	fff48a13          	addi	s4,s1,-1
   1e508:	00876863          	bltu	a4,s0,1e518 <__udivdi3+0x360>
   1e50c:	00a77663          	bgeu	a4,a0,1e518 <__udivdi3+0x360>
   1e510:	ffe48a13          	addi	s4,s1,-2
   1e514:	00870733          	add	a4,a4,s0
   1e518:	40a704b3          	sub	s1,a4,a0
   1e51c:	000b0593          	addi	a1,s6,0
   1e520:	00048513          	addi	a0,s1,0
   1e524:	285040ef          	jal	ra,22fa8 <__umodsi3>
   1e528:	00050913          	addi	s2,a0,0
   1e52c:	000b0593          	addi	a1,s6,0
   1e530:	00048513          	addi	a0,s1,0
   1e534:	22d040ef          	jal	ra,22f60 <__udivsi3>
   1e538:	00050493          	addi	s1,a0,0
   1e53c:	00050593          	addi	a1,a0,0
   1e540:	000b8513          	addi	a0,s7,0
   1e544:	1f1040ef          	jal	ra,22f34 <__mulsi3>
   1e548:	010a9693          	slli	a3,s5,0x10
   1e54c:	01091913          	slli	s2,s2,0x10
   1e550:	0106d693          	srli	a3,a3,0x10
   1e554:	00d967b3          	or	a5,s2,a3
   1e558:	00048713          	addi	a4,s1,0
   1e55c:	00a7fe63          	bgeu	a5,a0,1e578 <__udivdi3+0x3c0>
   1e560:	008787b3          	add	a5,a5,s0
   1e564:	fff48713          	addi	a4,s1,-1
   1e568:	0087e863          	bltu	a5,s0,1e578 <__udivdi3+0x3c0>
   1e56c:	00a7f663          	bgeu	a5,a0,1e578 <__udivdi3+0x3c0>
   1e570:	ffe48713          	addi	a4,s1,-2
   1e574:	008787b3          	add	a5,a5,s0
   1e578:	010a1a13          	slli	s4,s4,0x10
   1e57c:	40a784b3          	sub	s1,a5,a0
   1e580:	00ea6a33          	or	s4,s4,a4
   1e584:	e01ff06f          	jal	zero,1e384 <__udivdi3+0x1cc>
   1e588:	1ed5ec63          	bltu	a1,a3,1e780 <__udivdi3+0x5c8>
   1e58c:	000107b7          	lui	a5,0x10
   1e590:	04f6f463          	bgeu	a3,a5,1e5d8 <__udivdi3+0x420>
   1e594:	0ff00593          	addi	a1,zero,255
   1e598:	00d5b533          	sltu	a0,a1,a3
   1e59c:	00351513          	slli	a0,a0,0x3
   1e5a0:	00024737          	lui	a4,0x24
   1e5a4:	00a6d7b3          	srl	a5,a3,a0
   1e5a8:	01470713          	addi	a4,a4,20 # 24014 <__clz_tab>
   1e5ac:	00e787b3          	add	a5,a5,a4
   1e5b0:	0007c583          	lbu	a1,0(a5) # 10000 <main-0x74>
   1e5b4:	02000a13          	addi	s4,zero,32
   1e5b8:	00a585b3          	add	a1,a1,a0
   1e5bc:	40ba0a33          	sub	s4,s4,a1
   1e5c0:	020a1663          	bne	s4,zero,1e5ec <__udivdi3+0x434>
   1e5c4:	00100793          	addi	a5,zero,1
   1e5c8:	e896e2e3          	bltu	a3,s1,1e44c <__udivdi3+0x294>
   1e5cc:	00cb3633          	sltu	a2,s6,a2
   1e5d0:	00164793          	xori	a5,a2,1
   1e5d4:	e79ff06f          	jal	zero,1e44c <__udivdi3+0x294>
   1e5d8:	010007b7          	lui	a5,0x1000
   1e5dc:	01000513          	addi	a0,zero,16
   1e5e0:	fcf6e0e3          	bltu	a3,a5,1e5a0 <__udivdi3+0x3e8>
   1e5e4:	01800513          	addi	a0,zero,24
   1e5e8:	fb9ff06f          	jal	zero,1e5a0 <__udivdi3+0x3e8>
   1e5ec:	00b65ab3          	srl	s5,a2,a1
   1e5f0:	014696b3          	sll	a3,a3,s4
   1e5f4:	00daeab3          	or	s5,s5,a3
   1e5f8:	00b4d933          	srl	s2,s1,a1
   1e5fc:	014497b3          	sll	a5,s1,s4
   1e600:	00bb55b3          	srl	a1,s6,a1
   1e604:	010adb93          	srli	s7,s5,0x10
   1e608:	00f5e4b3          	or	s1,a1,a5
   1e60c:	00090513          	addi	a0,s2,0
   1e610:	000b8593          	addi	a1,s7,0
   1e614:	014619b3          	sll	s3,a2,s4
   1e618:	191040ef          	jal	ra,22fa8 <__umodsi3>
   1e61c:	00050413          	addi	s0,a0,0
   1e620:	000b8593          	addi	a1,s7,0
   1e624:	00090513          	addi	a0,s2,0
   1e628:	010a9c13          	slli	s8,s5,0x10
   1e62c:	135040ef          	jal	ra,22f60 <__udivsi3>
   1e630:	010c5c13          	srli	s8,s8,0x10
   1e634:	00050913          	addi	s2,a0,0
   1e638:	00050593          	addi	a1,a0,0
   1e63c:	000c0513          	addi	a0,s8,0
   1e640:	0f5040ef          	jal	ra,22f34 <__mulsi3>
   1e644:	01041413          	slli	s0,s0,0x10
   1e648:	0104d713          	srli	a4,s1,0x10
   1e64c:	00e46733          	or	a4,s0,a4
   1e650:	00090c93          	addi	s9,s2,0
   1e654:	00a77e63          	bgeu	a4,a0,1e670 <__udivdi3+0x4b8>
   1e658:	01570733          	add	a4,a4,s5
   1e65c:	fff90c93          	addi	s9,s2,-1
   1e660:	01576863          	bltu	a4,s5,1e670 <__udivdi3+0x4b8>
   1e664:	00a77663          	bgeu	a4,a0,1e670 <__udivdi3+0x4b8>
   1e668:	ffe90c93          	addi	s9,s2,-2
   1e66c:	01570733          	add	a4,a4,s5
   1e670:	40a70933          	sub	s2,a4,a0
   1e674:	000b8593          	addi	a1,s7,0
   1e678:	00090513          	addi	a0,s2,0
   1e67c:	12d040ef          	jal	ra,22fa8 <__umodsi3>
   1e680:	00050413          	addi	s0,a0,0
   1e684:	000b8593          	addi	a1,s7,0
   1e688:	00090513          	addi	a0,s2,0
   1e68c:	0d5040ef          	jal	ra,22f60 <__udivsi3>
   1e690:	00050913          	addi	s2,a0,0
   1e694:	00050593          	addi	a1,a0,0
   1e698:	000c0513          	addi	a0,s8,0
   1e69c:	099040ef          	jal	ra,22f34 <__mulsi3>
   1e6a0:	01049793          	slli	a5,s1,0x10
   1e6a4:	01041413          	slli	s0,s0,0x10
   1e6a8:	0107d793          	srli	a5,a5,0x10
   1e6ac:	00f46733          	or	a4,s0,a5
   1e6b0:	00090613          	addi	a2,s2,0
   1e6b4:	00a77e63          	bgeu	a4,a0,1e6d0 <__udivdi3+0x518>
   1e6b8:	01570733          	add	a4,a4,s5
   1e6bc:	fff90613          	addi	a2,s2,-1
   1e6c0:	01576863          	bltu	a4,s5,1e6d0 <__udivdi3+0x518>
   1e6c4:	00a77663          	bgeu	a4,a0,1e6d0 <__udivdi3+0x518>
   1e6c8:	ffe90613          	addi	a2,s2,-2
   1e6cc:	01570733          	add	a4,a4,s5
   1e6d0:	010c9793          	slli	a5,s9,0x10
   1e6d4:	00010e37          	lui	t3,0x10
   1e6d8:	00c7e7b3          	or	a5,a5,a2
   1e6dc:	fffe0813          	addi	a6,t3,-1 # ffff <main-0x75>
   1e6e0:	0107f333          	and	t1,a5,a6
   1e6e4:	0109f833          	and	a6,s3,a6
   1e6e8:	40a70733          	sub	a4,a4,a0
   1e6ec:	0107de93          	srli	t4,a5,0x10
   1e6f0:	0109d993          	srli	s3,s3,0x10
   1e6f4:	00030513          	addi	a0,t1,0
   1e6f8:	00080593          	addi	a1,a6,0
   1e6fc:	039040ef          	jal	ra,22f34 <__mulsi3>
   1e700:	00050893          	addi	a7,a0,0
   1e704:	00098593          	addi	a1,s3,0
   1e708:	00030513          	addi	a0,t1,0
   1e70c:	029040ef          	jal	ra,22f34 <__mulsi3>
   1e710:	00050313          	addi	t1,a0,0
   1e714:	00080593          	addi	a1,a6,0
   1e718:	000e8513          	addi	a0,t4,0
   1e71c:	019040ef          	jal	ra,22f34 <__mulsi3>
   1e720:	00050813          	addi	a6,a0,0
   1e724:	00098593          	addi	a1,s3,0
   1e728:	000e8513          	addi	a0,t4,0
   1e72c:	009040ef          	jal	ra,22f34 <__mulsi3>
   1e730:	0108d693          	srli	a3,a7,0x10
   1e734:	01030333          	add	t1,t1,a6
   1e738:	006686b3          	add	a3,a3,t1
   1e73c:	0106f463          	bgeu	a3,a6,1e744 <__udivdi3+0x58c>
   1e740:	01c50533          	add	a0,a0,t3
   1e744:	0106d613          	srli	a2,a3,0x10
   1e748:	00a60533          	add	a0,a2,a0
   1e74c:	02a76663          	bltu	a4,a0,1e778 <__udivdi3+0x5c0>
   1e750:	bca714e3          	bne	a4,a0,1e318 <__udivdi3+0x160>
   1e754:	00010737          	lui	a4,0x10
   1e758:	fff70713          	addi	a4,a4,-1 # ffff <main-0x75>
   1e75c:	00e6f6b3          	and	a3,a3,a4
   1e760:	01069693          	slli	a3,a3,0x10
   1e764:	00e8f8b3          	and	a7,a7,a4
   1e768:	014b1633          	sll	a2,s6,s4
   1e76c:	011686b3          	add	a3,a3,a7
   1e770:	00000a13          	addi	s4,zero,0
   1e774:	ccd67ce3          	bgeu	a2,a3,1e44c <__udivdi3+0x294>
   1e778:	fff78793          	addi	a5,a5,-1 # ffffff <__BSS_END__+0xfda407>
   1e77c:	b9dff06f          	jal	zero,1e318 <__udivdi3+0x160>
   1e780:	00000a13          	addi	s4,zero,0
   1e784:	00000793          	addi	a5,zero,0
   1e788:	cc5ff06f          	jal	zero,1e44c <__udivdi3+0x294>

0001e78c <__umoddi3>:
   1e78c:	fd010113          	addi	sp,sp,-48
   1e790:	02812423          	sw	s0,40(sp)
   1e794:	02912223          	sw	s1,36(sp)
   1e798:	01312e23          	sw	s3,28(sp)
   1e79c:	01612823          	sw	s6,16(sp)
   1e7a0:	02112623          	sw	ra,44(sp)
   1e7a4:	03212023          	sw	s2,32(sp)
   1e7a8:	01412c23          	sw	s4,24(sp)
   1e7ac:	01512a23          	sw	s5,20(sp)
   1e7b0:	01712623          	sw	s7,12(sp)
   1e7b4:	01812423          	sw	s8,8(sp)
   1e7b8:	01912223          	sw	s9,4(sp)
   1e7bc:	01a12023          	sw	s10,0(sp)
   1e7c0:	00050b13          	addi	s6,a0,0
   1e7c4:	00058993          	addi	s3,a1,0
   1e7c8:	00050413          	addi	s0,a0,0
   1e7cc:	00058493          	addi	s1,a1,0
   1e7d0:	26069c63          	bne	a3,zero,1ea48 <__umoddi3+0x2bc>
   1e7d4:	00024ab7          	lui	s5,0x24
   1e7d8:	00060913          	addi	s2,a2,0
   1e7dc:	00068a13          	addi	s4,a3,0
   1e7e0:	014a8a93          	addi	s5,s5,20 # 24014 <__clz_tab>
   1e7e4:	14c5f263          	bgeu	a1,a2,1e928 <__umoddi3+0x19c>
   1e7e8:	000107b7          	lui	a5,0x10
   1e7ec:	12f67463          	bgeu	a2,a5,1e914 <__umoddi3+0x188>
   1e7f0:	0ff00793          	addi	a5,zero,255
   1e7f4:	00c7f463          	bgeu	a5,a2,1e7fc <__umoddi3+0x70>
   1e7f8:	00800a13          	addi	s4,zero,8
   1e7fc:	014657b3          	srl	a5,a2,s4
   1e800:	00fa8ab3          	add	s5,s5,a5
   1e804:	000ac703          	lbu	a4,0(s5)
   1e808:	02000513          	addi	a0,zero,32
   1e80c:	01470733          	add	a4,a4,s4
   1e810:	40e50a33          	sub	s4,a0,a4
   1e814:	000a0c63          	beq	s4,zero,1e82c <__umoddi3+0xa0>
   1e818:	014995b3          	sll	a1,s3,s4
   1e81c:	00eb5733          	srl	a4,s6,a4
   1e820:	01461933          	sll	s2,a2,s4
   1e824:	00b764b3          	or	s1,a4,a1
   1e828:	014b1433          	sll	s0,s6,s4
   1e82c:	01095a93          	srli	s5,s2,0x10
   1e830:	000a8593          	addi	a1,s5,0
   1e834:	00048513          	addi	a0,s1,0
   1e838:	770040ef          	jal	ra,22fa8 <__umodsi3>
   1e83c:	00050993          	addi	s3,a0,0
   1e840:	000a8593          	addi	a1,s5,0
   1e844:	01091b13          	slli	s6,s2,0x10
   1e848:	00048513          	addi	a0,s1,0
   1e84c:	714040ef          	jal	ra,22f60 <__udivsi3>
   1e850:	010b5b13          	srli	s6,s6,0x10
   1e854:	00050593          	addi	a1,a0,0
   1e858:	000b0513          	addi	a0,s6,0
   1e85c:	6d8040ef          	jal	ra,22f34 <__mulsi3>
   1e860:	01099993          	slli	s3,s3,0x10
   1e864:	01045793          	srli	a5,s0,0x10
   1e868:	00f9e7b3          	or	a5,s3,a5
   1e86c:	00a7fa63          	bgeu	a5,a0,1e880 <__umoddi3+0xf4>
   1e870:	012787b3          	add	a5,a5,s2
   1e874:	0127e663          	bltu	a5,s2,1e880 <__umoddi3+0xf4>
   1e878:	00a7f463          	bgeu	a5,a0,1e880 <__umoddi3+0xf4>
   1e87c:	012787b3          	add	a5,a5,s2
   1e880:	40a784b3          	sub	s1,a5,a0
   1e884:	000a8593          	addi	a1,s5,0
   1e888:	00048513          	addi	a0,s1,0
   1e88c:	71c040ef          	jal	ra,22fa8 <__umodsi3>
   1e890:	00050993          	addi	s3,a0,0
   1e894:	000a8593          	addi	a1,s5,0
   1e898:	00048513          	addi	a0,s1,0
   1e89c:	6c4040ef          	jal	ra,22f60 <__udivsi3>
   1e8a0:	01041413          	slli	s0,s0,0x10
   1e8a4:	00050593          	addi	a1,a0,0
   1e8a8:	01099993          	slli	s3,s3,0x10
   1e8ac:	000b0513          	addi	a0,s6,0
   1e8b0:	01045413          	srli	s0,s0,0x10
   1e8b4:	680040ef          	jal	ra,22f34 <__mulsi3>
   1e8b8:	0089e433          	or	s0,s3,s0
   1e8bc:	00a47a63          	bgeu	s0,a0,1e8d0 <__umoddi3+0x144>
   1e8c0:	01240433          	add	s0,s0,s2
   1e8c4:	01246663          	bltu	s0,s2,1e8d0 <__umoddi3+0x144>
   1e8c8:	00a47463          	bgeu	s0,a0,1e8d0 <__umoddi3+0x144>
   1e8cc:	01240433          	add	s0,s0,s2
   1e8d0:	40a40433          	sub	s0,s0,a0
   1e8d4:	01445533          	srl	a0,s0,s4
   1e8d8:	00000593          	addi	a1,zero,0
   1e8dc:	02c12083          	lw	ra,44(sp)
   1e8e0:	02812403          	lw	s0,40(sp)
   1e8e4:	02412483          	lw	s1,36(sp)
   1e8e8:	02012903          	lw	s2,32(sp)
   1e8ec:	01c12983          	lw	s3,28(sp)
   1e8f0:	01812a03          	lw	s4,24(sp)
   1e8f4:	01412a83          	lw	s5,20(sp)
   1e8f8:	01012b03          	lw	s6,16(sp)
   1e8fc:	00c12b83          	lw	s7,12(sp)
   1e900:	00812c03          	lw	s8,8(sp)
   1e904:	00412c83          	lw	s9,4(sp)
   1e908:	00012d03          	lw	s10,0(sp)
   1e90c:	03010113          	addi	sp,sp,48
   1e910:	00008067          	jalr	zero,0(ra)
   1e914:	010007b7          	lui	a5,0x1000
   1e918:	01000a13          	addi	s4,zero,16
   1e91c:	eef660e3          	bltu	a2,a5,1e7fc <__umoddi3+0x70>
   1e920:	01800a13          	addi	s4,zero,24
   1e924:	ed9ff06f          	jal	zero,1e7fc <__umoddi3+0x70>
   1e928:	00061a63          	bne	a2,zero,1e93c <__umoddi3+0x1b0>
   1e92c:	00000593          	addi	a1,zero,0
   1e930:	00100513          	addi	a0,zero,1
   1e934:	62c040ef          	jal	ra,22f60 <__udivsi3>
   1e938:	00050913          	addi	s2,a0,0
   1e93c:	000107b7          	lui	a5,0x10
   1e940:	0ef97a63          	bgeu	s2,a5,1ea34 <__umoddi3+0x2a8>
   1e944:	0ff00793          	addi	a5,zero,255
   1e948:	0127f463          	bgeu	a5,s2,1e950 <__umoddi3+0x1c4>
   1e94c:	00800a13          	addi	s4,zero,8
   1e950:	014957b3          	srl	a5,s2,s4
   1e954:	00fa8ab3          	add	s5,s5,a5
   1e958:	000ac703          	lbu	a4,0(s5)
   1e95c:	02000513          	addi	a0,zero,32
   1e960:	412984b3          	sub	s1,s3,s2
   1e964:	01470733          	add	a4,a4,s4
   1e968:	40e50a33          	sub	s4,a0,a4
   1e96c:	ec0a00e3          	beq	s4,zero,1e82c <__umoddi3+0xa0>
   1e970:	01491933          	sll	s2,s2,s4
   1e974:	00e9dab3          	srl	s5,s3,a4
   1e978:	014995b3          	sll	a1,s3,s4
   1e97c:	00eb5733          	srl	a4,s6,a4
   1e980:	01095493          	srli	s1,s2,0x10
   1e984:	00b76bb3          	or	s7,a4,a1
   1e988:	000a8513          	addi	a0,s5,0
   1e98c:	00048593          	addi	a1,s1,0
   1e990:	618040ef          	jal	ra,22fa8 <__umodsi3>
   1e994:	00050993          	addi	s3,a0,0
   1e998:	00048593          	addi	a1,s1,0
   1e99c:	014b1433          	sll	s0,s6,s4
   1e9a0:	000a8513          	addi	a0,s5,0
   1e9a4:	01091b13          	slli	s6,s2,0x10
   1e9a8:	5b8040ef          	jal	ra,22f60 <__udivsi3>
   1e9ac:	010b5b13          	srli	s6,s6,0x10
   1e9b0:	00050593          	addi	a1,a0,0
   1e9b4:	000b0513          	addi	a0,s6,0
   1e9b8:	57c040ef          	jal	ra,22f34 <__mulsi3>
   1e9bc:	01099993          	slli	s3,s3,0x10
   1e9c0:	010bd793          	srli	a5,s7,0x10
   1e9c4:	00f9e7b3          	or	a5,s3,a5
   1e9c8:	00a7fa63          	bgeu	a5,a0,1e9dc <__umoddi3+0x250>
   1e9cc:	012787b3          	add	a5,a5,s2
   1e9d0:	0127e663          	bltu	a5,s2,1e9dc <__umoddi3+0x250>
   1e9d4:	00a7f463          	bgeu	a5,a0,1e9dc <__umoddi3+0x250>
   1e9d8:	012787b3          	add	a5,a5,s2
   1e9dc:	40a78ab3          	sub	s5,a5,a0
   1e9e0:	00048593          	addi	a1,s1,0
   1e9e4:	000a8513          	addi	a0,s5,0
   1e9e8:	5c0040ef          	jal	ra,22fa8 <__umodsi3>
   1e9ec:	00050993          	addi	s3,a0,0
   1e9f0:	00048593          	addi	a1,s1,0
   1e9f4:	000a8513          	addi	a0,s5,0
   1e9f8:	568040ef          	jal	ra,22f60 <__udivsi3>
   1e9fc:	00050593          	addi	a1,a0,0
   1ea00:	000b0513          	addi	a0,s6,0
   1ea04:	530040ef          	jal	ra,22f34 <__mulsi3>
   1ea08:	010b9593          	slli	a1,s7,0x10
   1ea0c:	01099993          	slli	s3,s3,0x10
   1ea10:	0105d593          	srli	a1,a1,0x10
   1ea14:	00b9e5b3          	or	a1,s3,a1
   1ea18:	00a5fa63          	bgeu	a1,a0,1ea2c <__umoddi3+0x2a0>
   1ea1c:	012585b3          	add	a1,a1,s2
   1ea20:	0125e663          	bltu	a1,s2,1ea2c <__umoddi3+0x2a0>
   1ea24:	00a5f463          	bgeu	a1,a0,1ea2c <__umoddi3+0x2a0>
   1ea28:	012585b3          	add	a1,a1,s2
   1ea2c:	40a584b3          	sub	s1,a1,a0
   1ea30:	dfdff06f          	jal	zero,1e82c <__umoddi3+0xa0>
   1ea34:	010007b7          	lui	a5,0x1000
   1ea38:	01000a13          	addi	s4,zero,16
   1ea3c:	f0f96ae3          	bltu	s2,a5,1e950 <__umoddi3+0x1c4>
   1ea40:	01800a13          	addi	s4,zero,24
   1ea44:	f0dff06f          	jal	zero,1e950 <__umoddi3+0x1c4>
   1ea48:	e8d5eae3          	bltu	a1,a3,1e8dc <__umoddi3+0x150>
   1ea4c:	000107b7          	lui	a5,0x10
   1ea50:	04f6fc63          	bgeu	a3,a5,1eaa8 <__umoddi3+0x31c>
   1ea54:	0ff00a93          	addi	s5,zero,255
   1ea58:	00dab533          	sltu	a0,s5,a3
   1ea5c:	00351513          	slli	a0,a0,0x3
   1ea60:	00024737          	lui	a4,0x24
   1ea64:	00a6d7b3          	srl	a5,a3,a0
   1ea68:	01470713          	addi	a4,a4,20 # 24014 <__clz_tab>
   1ea6c:	00e787b3          	add	a5,a5,a4
   1ea70:	0007ca83          	lbu	s5,0(a5) # 10000 <main-0x74>
   1ea74:	02000593          	addi	a1,zero,32
   1ea78:	00aa8ab3          	add	s5,s5,a0
   1ea7c:	41558a33          	sub	s4,a1,s5
   1ea80:	020a1e63          	bne	s4,zero,1eabc <__umoddi3+0x330>
   1ea84:	0136e463          	bltu	a3,s3,1ea8c <__umoddi3+0x300>
   1ea88:	00cb6a63          	bltu	s6,a2,1ea9c <__umoddi3+0x310>
   1ea8c:	40cb0433          	sub	s0,s6,a2
   1ea90:	40d986b3          	sub	a3,s3,a3
   1ea94:	008b3b33          	sltu	s6,s6,s0
   1ea98:	416684b3          	sub	s1,a3,s6
   1ea9c:	00040513          	addi	a0,s0,0
   1eaa0:	00048593          	addi	a1,s1,0
   1eaa4:	e39ff06f          	jal	zero,1e8dc <__umoddi3+0x150>
   1eaa8:	010007b7          	lui	a5,0x1000
   1eaac:	01000513          	addi	a0,zero,16
   1eab0:	faf6e8e3          	bltu	a3,a5,1ea60 <__umoddi3+0x2d4>
   1eab4:	01800513          	addi	a0,zero,24
   1eab8:	fa9ff06f          	jal	zero,1ea60 <__umoddi3+0x2d4>
   1eabc:	014696b3          	sll	a3,a3,s4
   1eac0:	015657b3          	srl	a5,a2,s5
   1eac4:	00d7ebb3          	or	s7,a5,a3
   1eac8:	0159d433          	srl	s0,s3,s5
   1eacc:	014995b3          	sll	a1,s3,s4
   1ead0:	015b54b3          	srl	s1,s6,s5
   1ead4:	010bdc13          	srli	s8,s7,0x10
   1ead8:	00b4e4b3          	or	s1,s1,a1
   1eadc:	00040513          	addi	a0,s0,0
   1eae0:	000c0593          	addi	a1,s8,0
   1eae4:	01461d33          	sll	s10,a2,s4
   1eae8:	4c0040ef          	jal	ra,22fa8 <__umodsi3>
   1eaec:	00050993          	addi	s3,a0,0
   1eaf0:	000c0593          	addi	a1,s8,0
   1eaf4:	00040513          	addi	a0,s0,0
   1eaf8:	010b9c93          	slli	s9,s7,0x10
   1eafc:	464040ef          	jal	ra,22f60 <__udivsi3>
   1eb00:	010cdc93          	srli	s9,s9,0x10
   1eb04:	00050413          	addi	s0,a0,0
   1eb08:	00050593          	addi	a1,a0,0
   1eb0c:	000c8513          	addi	a0,s9,0
   1eb10:	424040ef          	jal	ra,22f34 <__mulsi3>
   1eb14:	01099993          	slli	s3,s3,0x10
   1eb18:	0104d713          	srli	a4,s1,0x10
   1eb1c:	00e9e733          	or	a4,s3,a4
   1eb20:	014b1b33          	sll	s6,s6,s4
   1eb24:	00040993          	addi	s3,s0,0
   1eb28:	00a77e63          	bgeu	a4,a0,1eb44 <__umoddi3+0x3b8>
   1eb2c:	01770733          	add	a4,a4,s7
   1eb30:	fff40993          	addi	s3,s0,-1
   1eb34:	01776863          	bltu	a4,s7,1eb44 <__umoddi3+0x3b8>
   1eb38:	00a77663          	bgeu	a4,a0,1eb44 <__umoddi3+0x3b8>
   1eb3c:	ffe40993          	addi	s3,s0,-2
   1eb40:	01770733          	add	a4,a4,s7
   1eb44:	40a70933          	sub	s2,a4,a0
   1eb48:	000c0593          	addi	a1,s8,0
   1eb4c:	00090513          	addi	a0,s2,0
   1eb50:	458040ef          	jal	ra,22fa8 <__umodsi3>
   1eb54:	00050413          	addi	s0,a0,0
   1eb58:	000c0593          	addi	a1,s8,0
   1eb5c:	00090513          	addi	a0,s2,0
   1eb60:	400040ef          	jal	ra,22f60 <__udivsi3>
   1eb64:	00050593          	addi	a1,a0,0
   1eb68:	00050913          	addi	s2,a0,0
   1eb6c:	000c8513          	addi	a0,s9,0
   1eb70:	3c4040ef          	jal	ra,22f34 <__mulsi3>
   1eb74:	01049593          	slli	a1,s1,0x10
   1eb78:	01041413          	slli	s0,s0,0x10
   1eb7c:	0105d593          	srli	a1,a1,0x10
   1eb80:	00b465b3          	or	a1,s0,a1
   1eb84:	00090793          	addi	a5,s2,0
   1eb88:	00a5fe63          	bgeu	a1,a0,1eba4 <__umoddi3+0x418>
   1eb8c:	017585b3          	add	a1,a1,s7
   1eb90:	fff90793          	addi	a5,s2,-1
   1eb94:	0175e863          	bltu	a1,s7,1eba4 <__umoddi3+0x418>
   1eb98:	00a5f663          	bgeu	a1,a0,1eba4 <__umoddi3+0x418>
   1eb9c:	ffe90793          	addi	a5,s2,-2
   1eba0:	017585b3          	add	a1,a1,s7
   1eba4:	00010e37          	lui	t3,0x10
   1eba8:	01099993          	slli	s3,s3,0x10
   1ebac:	00f9e9b3          	or	s3,s3,a5
   1ebb0:	fffe0813          	addi	a6,t3,-1 # ffff <main-0x75>
   1ebb4:	0109f733          	and	a4,s3,a6
   1ebb8:	010d7833          	and	a6,s10,a6
   1ebbc:	40a584b3          	sub	s1,a1,a0
   1ebc0:	0109d993          	srli	s3,s3,0x10
   1ebc4:	010d5893          	srli	a7,s10,0x10
   1ebc8:	00070513          	addi	a0,a4,0
   1ebcc:	00080593          	addi	a1,a6,0
   1ebd0:	364040ef          	jal	ra,22f34 <__mulsi3>
   1ebd4:	00050793          	addi	a5,a0,0
   1ebd8:	00088593          	addi	a1,a7,0
   1ebdc:	00070513          	addi	a0,a4,0
   1ebe0:	354040ef          	jal	ra,22f34 <__mulsi3>
   1ebe4:	00050313          	addi	t1,a0,0
   1ebe8:	00080593          	addi	a1,a6,0
   1ebec:	00098513          	addi	a0,s3,0
   1ebf0:	344040ef          	jal	ra,22f34 <__mulsi3>
   1ebf4:	00050813          	addi	a6,a0,0
   1ebf8:	00088593          	addi	a1,a7,0
   1ebfc:	00098513          	addi	a0,s3,0
   1ec00:	334040ef          	jal	ra,22f34 <__mulsi3>
   1ec04:	0107d713          	srli	a4,a5,0x10
   1ec08:	01030333          	add	t1,t1,a6
   1ec0c:	00670733          	add	a4,a4,t1
   1ec10:	01077463          	bgeu	a4,a6,1ec18 <__umoddi3+0x48c>
   1ec14:	01c50533          	add	a0,a0,t3
   1ec18:	000106b7          	lui	a3,0x10
   1ec1c:	fff68693          	addi	a3,a3,-1 # ffff <main-0x75>
   1ec20:	01075593          	srli	a1,a4,0x10
   1ec24:	00d77733          	and	a4,a4,a3
   1ec28:	01071713          	slli	a4,a4,0x10
   1ec2c:	00d7f7b3          	and	a5,a5,a3
   1ec30:	00a585b3          	add	a1,a1,a0
   1ec34:	00f707b3          	add	a5,a4,a5
   1ec38:	00b4e663          	bltu	s1,a1,1ec44 <__umoddi3+0x4b8>
   1ec3c:	00b49e63          	bne	s1,a1,1ec58 <__umoddi3+0x4cc>
   1ec40:	00fb7c63          	bgeu	s6,a5,1ec58 <__umoddi3+0x4cc>
   1ec44:	41a78633          	sub	a2,a5,s10
   1ec48:	00c7b7b3          	sltu	a5,a5,a2
   1ec4c:	017787b3          	add	a5,a5,s7
   1ec50:	40f585b3          	sub	a1,a1,a5
   1ec54:	00060793          	addi	a5,a2,0
   1ec58:	40fb07b3          	sub	a5,s6,a5
   1ec5c:	00fb3b33          	sltu	s6,s6,a5
   1ec60:	40b485b3          	sub	a1,s1,a1
   1ec64:	416585b3          	sub	a1,a1,s6
   1ec68:	01559433          	sll	s0,a1,s5
   1ec6c:	0147d7b3          	srl	a5,a5,s4
   1ec70:	00f46533          	or	a0,s0,a5
   1ec74:	0145d5b3          	srl	a1,a1,s4
   1ec78:	c65ff06f          	jal	zero,1e8dc <__umoddi3+0x150>

0001ec7c <__divdf3>:
   1ec7c:	fb010113          	addi	sp,sp,-80
   1ec80:	03312e23          	sw	s3,60(sp)
   1ec84:	0145d993          	srli	s3,a1,0x14
   1ec88:	04912223          	sw	s1,68(sp)
   1ec8c:	05212023          	sw	s2,64(sp)
   1ec90:	03412c23          	sw	s4,56(sp)
   1ec94:	03512a23          	sw	s5,52(sp)
   1ec98:	03612823          	sw	s6,48(sp)
   1ec9c:	00c59493          	slli	s1,a1,0xc
   1eca0:	04112623          	sw	ra,76(sp)
   1eca4:	04812423          	sw	s0,72(sp)
   1eca8:	03712623          	sw	s7,44(sp)
   1ecac:	03812423          	sw	s8,40(sp)
   1ecb0:	03912223          	sw	s9,36(sp)
   1ecb4:	03a12023          	sw	s10,32(sp)
   1ecb8:	01b12e23          	sw	s11,28(sp)
   1ecbc:	7ff9f993          	andi	s3,s3,2047
   1ecc0:	00050913          	addi	s2,a0,0
   1ecc4:	00060b13          	addi	s6,a2,0
   1ecc8:	00068a93          	addi	s5,a3,0
   1eccc:	00c4d493          	srli	s1,s1,0xc
   1ecd0:	01f5da13          	srli	s4,a1,0x1f
   1ecd4:	0a098263          	beq	s3,zero,1ed78 <__divdf3+0xfc>
   1ecd8:	7ff00793          	addi	a5,zero,2047
   1ecdc:	10f98063          	beq	s3,a5,1eddc <__divdf3+0x160>
   1ece0:	01d55c93          	srli	s9,a0,0x1d
   1ece4:	00349493          	slli	s1,s1,0x3
   1ece8:	009ce4b3          	or	s1,s9,s1
   1ecec:	00800cb7          	lui	s9,0x800
   1ecf0:	0194ecb3          	or	s9,s1,s9
   1ecf4:	00351413          	slli	s0,a0,0x3
   1ecf8:	c0198993          	addi	s3,s3,-1023
   1ecfc:	00000b93          	addi	s7,zero,0
   1ed00:	014ad513          	srli	a0,s5,0x14
   1ed04:	00ca9493          	slli	s1,s5,0xc
   1ed08:	7ff57513          	andi	a0,a0,2047
   1ed0c:	000b0813          	addi	a6,s6,0
   1ed10:	00c4d493          	srli	s1,s1,0xc
   1ed14:	01fada93          	srli	s5,s5,0x1f
   1ed18:	10050063          	beq	a0,zero,1ee18 <__divdf3+0x19c>
   1ed1c:	7ff00793          	addi	a5,zero,2047
   1ed20:	16f50063          	beq	a0,a5,1ee80 <__divdf3+0x204>
   1ed24:	01db5793          	srli	a5,s6,0x1d
   1ed28:	00349493          	slli	s1,s1,0x3
   1ed2c:	0097e7b3          	or	a5,a5,s1
   1ed30:	00800937          	lui	s2,0x800
   1ed34:	0127e933          	or	s2,a5,s2
   1ed38:	003b1813          	slli	a6,s6,0x3
   1ed3c:	c0150513          	addi	a0,a0,-1023
   1ed40:	00000793          	addi	a5,zero,0
   1ed44:	002b9713          	slli	a4,s7,0x2
   1ed48:	00f76733          	or	a4,a4,a5
   1ed4c:	fff70713          	addi	a4,a4,-1
   1ed50:	00e00693          	addi	a3,zero,14
   1ed54:	015a44b3          	xor	s1,s4,s5
   1ed58:	40a989b3          	sub	s3,s3,a0
   1ed5c:	14e6ee63          	bltu	a3,a4,1eeb8 <__divdf3+0x23c>
   1ed60:	000246b7          	lui	a3,0x24
   1ed64:	00271713          	slli	a4,a4,0x2
   1ed68:	f6068693          	addi	a3,a3,-160 # 23f60 <zeroes.4476+0x10>
   1ed6c:	00d70733          	add	a4,a4,a3
   1ed70:	00072703          	lw	a4,0(a4)
   1ed74:	00070067          	jalr	zero,0(a4)
   1ed78:	00a4ecb3          	or	s9,s1,a0
   1ed7c:	060c8e63          	beq	s9,zero,1edf8 <__divdf3+0x17c>
   1ed80:	04048063          	beq	s1,zero,1edc0 <__divdf3+0x144>
   1ed84:	00048513          	addi	a0,s1,0
   1ed88:	284040ef          	jal	ra,2300c <__clzsi2>
   1ed8c:	ff550793          	addi	a5,a0,-11
   1ed90:	01c00713          	addi	a4,zero,28
   1ed94:	02f74c63          	blt	a4,a5,1edcc <__divdf3+0x150>
   1ed98:	01d00c93          	addi	s9,zero,29
   1ed9c:	ff850413          	addi	s0,a0,-8
   1eda0:	40fc8cb3          	sub	s9,s9,a5
   1eda4:	008494b3          	sll	s1,s1,s0
   1eda8:	01995cb3          	srl	s9,s2,s9
   1edac:	009cecb3          	or	s9,s9,s1
   1edb0:	00891433          	sll	s0,s2,s0
   1edb4:	c0d00993          	addi	s3,zero,-1011
   1edb8:	40a989b3          	sub	s3,s3,a0
   1edbc:	f41ff06f          	jal	zero,1ecfc <__divdf3+0x80>
   1edc0:	24c040ef          	jal	ra,2300c <__clzsi2>
   1edc4:	02050513          	addi	a0,a0,32
   1edc8:	fc5ff06f          	jal	zero,1ed8c <__divdf3+0x110>
   1edcc:	fd850493          	addi	s1,a0,-40
   1edd0:	00991cb3          	sll	s9,s2,s1
   1edd4:	00000413          	addi	s0,zero,0
   1edd8:	fddff06f          	jal	zero,1edb4 <__divdf3+0x138>
   1eddc:	00a4ecb3          	or	s9,s1,a0
   1ede0:	020c8463          	beq	s9,zero,1ee08 <__divdf3+0x18c>
   1ede4:	00050413          	addi	s0,a0,0
   1ede8:	00048c93          	addi	s9,s1,0
   1edec:	7ff00993          	addi	s3,zero,2047
   1edf0:	00300b93          	addi	s7,zero,3
   1edf4:	f0dff06f          	jal	zero,1ed00 <__divdf3+0x84>
   1edf8:	00000413          	addi	s0,zero,0
   1edfc:	00000993          	addi	s3,zero,0
   1ee00:	00100b93          	addi	s7,zero,1
   1ee04:	efdff06f          	jal	zero,1ed00 <__divdf3+0x84>
   1ee08:	00000413          	addi	s0,zero,0
   1ee0c:	7ff00993          	addi	s3,zero,2047
   1ee10:	00200b93          	addi	s7,zero,2
   1ee14:	eedff06f          	jal	zero,1ed00 <__divdf3+0x84>
   1ee18:	0164e933          	or	s2,s1,s6
   1ee1c:	06090e63          	beq	s2,zero,1ee98 <__divdf3+0x21c>
   1ee20:	04048063          	beq	s1,zero,1ee60 <__divdf3+0x1e4>
   1ee24:	00048513          	addi	a0,s1,0
   1ee28:	1e4040ef          	jal	ra,2300c <__clzsi2>
   1ee2c:	ff550913          	addi	s2,a0,-11
   1ee30:	01c00793          	addi	a5,zero,28
   1ee34:	0327ce63          	blt	a5,s2,1ee70 <__divdf3+0x1f4>
   1ee38:	01d00793          	addi	a5,zero,29
   1ee3c:	ff850813          	addi	a6,a0,-8
   1ee40:	412787b3          	sub	a5,a5,s2
   1ee44:	010494b3          	sll	s1,s1,a6
   1ee48:	00fb57b3          	srl	a5,s6,a5
   1ee4c:	0097e933          	or	s2,a5,s1
   1ee50:	010b1833          	sll	a6,s6,a6
   1ee54:	c0d00793          	addi	a5,zero,-1011
   1ee58:	40a78533          	sub	a0,a5,a0
   1ee5c:	ee5ff06f          	jal	zero,1ed40 <__divdf3+0xc4>
   1ee60:	000b0513          	addi	a0,s6,0
   1ee64:	1a8040ef          	jal	ra,2300c <__clzsi2>
   1ee68:	02050513          	addi	a0,a0,32
   1ee6c:	fc1ff06f          	jal	zero,1ee2c <__divdf3+0x1b0>
   1ee70:	fd850793          	addi	a5,a0,-40
   1ee74:	00fb1933          	sll	s2,s6,a5
   1ee78:	00000813          	addi	a6,zero,0
   1ee7c:	fd9ff06f          	jal	zero,1ee54 <__divdf3+0x1d8>
   1ee80:	0164e933          	or	s2,s1,s6
   1ee84:	02090263          	beq	s2,zero,1eea8 <__divdf3+0x22c>
   1ee88:	00048913          	addi	s2,s1,0
   1ee8c:	7ff00513          	addi	a0,zero,2047
   1ee90:	00300793          	addi	a5,zero,3
   1ee94:	eb1ff06f          	jal	zero,1ed44 <__divdf3+0xc8>
   1ee98:	00000813          	addi	a6,zero,0
   1ee9c:	00000513          	addi	a0,zero,0
   1eea0:	00100793          	addi	a5,zero,1
   1eea4:	ea1ff06f          	jal	zero,1ed44 <__divdf3+0xc8>
   1eea8:	00000813          	addi	a6,zero,0
   1eeac:	7ff00513          	addi	a0,zero,2047
   1eeb0:	00200793          	addi	a5,zero,2
   1eeb4:	e91ff06f          	jal	zero,1ed44 <__divdf3+0xc8>
   1eeb8:	01996663          	bltu	s2,s9,1eec4 <__divdf3+0x248>
   1eebc:	452c9263          	bne	s9,s2,1f300 <__divdf3+0x684>
   1eec0:	45046063          	bltu	s0,a6,1f300 <__divdf3+0x684>
   1eec4:	01fc9713          	slli	a4,s9,0x1f
   1eec8:	00145793          	srli	a5,s0,0x1
   1eecc:	01f41d93          	slli	s11,s0,0x1f
   1eed0:	001cdc93          	srli	s9,s9,0x1
   1eed4:	00f76433          	or	s0,a4,a5
   1eed8:	00891793          	slli	a5,s2,0x8
   1eedc:	01885b93          	srli	s7,a6,0x18
   1eee0:	00fbebb3          	or	s7,s7,a5
   1eee4:	010bda93          	srli	s5,s7,0x10
   1eee8:	000a8593          	addi	a1,s5,0
   1eeec:	010b9b13          	slli	s6,s7,0x10
   1eef0:	000c8513          	addi	a0,s9,0 # 800000 <__BSS_END__+0x7da408>
   1eef4:	00881c13          	slli	s8,a6,0x8
   1eef8:	010b5b13          	srli	s6,s6,0x10
   1eefc:	064040ef          	jal	ra,22f60 <__udivsi3>
   1ef00:	00050593          	addi	a1,a0,0
   1ef04:	00050d13          	addi	s10,a0,0
   1ef08:	000b0513          	addi	a0,s6,0
   1ef0c:	028040ef          	jal	ra,22f34 <__mulsi3>
   1ef10:	00050913          	addi	s2,a0,0
   1ef14:	000a8593          	addi	a1,s5,0
   1ef18:	000c8513          	addi	a0,s9,0
   1ef1c:	08c040ef          	jal	ra,22fa8 <__umodsi3>
   1ef20:	01051513          	slli	a0,a0,0x10
   1ef24:	01045793          	srli	a5,s0,0x10
   1ef28:	00a7e533          	or	a0,a5,a0
   1ef2c:	000d0a13          	addi	s4,s10,0
   1ef30:	01257e63          	bgeu	a0,s2,1ef4c <__divdf3+0x2d0>
   1ef34:	01750533          	add	a0,a0,s7
   1ef38:	fffd0a13          	addi	s4,s10,-1
   1ef3c:	01756863          	bltu	a0,s7,1ef4c <__divdf3+0x2d0>
   1ef40:	01257663          	bgeu	a0,s2,1ef4c <__divdf3+0x2d0>
   1ef44:	ffed0a13          	addi	s4,s10,-2
   1ef48:	01750533          	add	a0,a0,s7
   1ef4c:	41250933          	sub	s2,a0,s2
   1ef50:	000a8593          	addi	a1,s5,0
   1ef54:	00090513          	addi	a0,s2,0 # 800000 <__BSS_END__+0x7da408>
   1ef58:	008040ef          	jal	ra,22f60 <__udivsi3>
   1ef5c:	00050593          	addi	a1,a0,0
   1ef60:	00050d13          	addi	s10,a0,0
   1ef64:	000b0513          	addi	a0,s6,0
   1ef68:	7cd030ef          	jal	ra,22f34 <__mulsi3>
   1ef6c:	00050c93          	addi	s9,a0,0
   1ef70:	000a8593          	addi	a1,s5,0
   1ef74:	00090513          	addi	a0,s2,0
   1ef78:	030040ef          	jal	ra,22fa8 <__umodsi3>
   1ef7c:	01041413          	slli	s0,s0,0x10
   1ef80:	01051513          	slli	a0,a0,0x10
   1ef84:	01045413          	srli	s0,s0,0x10
   1ef88:	00a46433          	or	s0,s0,a0
   1ef8c:	000d0713          	addi	a4,s10,0
   1ef90:	01947e63          	bgeu	s0,s9,1efac <__divdf3+0x330>
   1ef94:	01740433          	add	s0,s0,s7
   1ef98:	fffd0713          	addi	a4,s10,-1
   1ef9c:	01746863          	bltu	s0,s7,1efac <__divdf3+0x330>
   1efa0:	01947663          	bgeu	s0,s9,1efac <__divdf3+0x330>
   1efa4:	ffed0713          	addi	a4,s10,-2
   1efa8:	01740433          	add	s0,s0,s7
   1efac:	010a1813          	slli	a6,s4,0x10
   1efb0:	00010e37          	lui	t3,0x10
   1efb4:	00e86833          	or	a6,a6,a4
   1efb8:	419407b3          	sub	a5,s0,s9
   1efbc:	fffe0c93          	addi	s9,t3,-1 # ffff <main-0x75>
   1efc0:	01987333          	and	t1,a6,s9
   1efc4:	019c7cb3          	and	s9,s8,s9
   1efc8:	01085713          	srli	a4,a6,0x10
   1efcc:	010c5d13          	srli	s10,s8,0x10
   1efd0:	00030513          	addi	a0,t1,0
   1efd4:	000c8593          	addi	a1,s9,0
   1efd8:	75d030ef          	jal	ra,22f34 <__mulsi3>
   1efdc:	00050893          	addi	a7,a0,0
   1efe0:	000d0593          	addi	a1,s10,0
   1efe4:	00030513          	addi	a0,t1,0
   1efe8:	74d030ef          	jal	ra,22f34 <__mulsi3>
   1efec:	00050313          	addi	t1,a0,0
   1eff0:	000c8593          	addi	a1,s9,0
   1eff4:	00070513          	addi	a0,a4,0
   1eff8:	73d030ef          	jal	ra,22f34 <__mulsi3>
   1effc:	00050e93          	addi	t4,a0,0
   1f000:	000d0593          	addi	a1,s10,0
   1f004:	00070513          	addi	a0,a4,0
   1f008:	72d030ef          	jal	ra,22f34 <__mulsi3>
   1f00c:	0108d713          	srli	a4,a7,0x10
   1f010:	01d30333          	add	t1,t1,t4
   1f014:	00670733          	add	a4,a4,t1
   1f018:	01d77463          	bgeu	a4,t4,1f020 <__divdf3+0x3a4>
   1f01c:	01c50533          	add	a0,a0,t3
   1f020:	01075413          	srli	s0,a4,0x10
   1f024:	00a40433          	add	s0,s0,a0
   1f028:	00010537          	lui	a0,0x10
   1f02c:	fff50513          	addi	a0,a0,-1 # ffff <main-0x75>
   1f030:	00a77a33          	and	s4,a4,a0
   1f034:	010a1a13          	slli	s4,s4,0x10
   1f038:	00a8f8b3          	and	a7,a7,a0
   1f03c:	011a0a33          	add	s4,s4,a7
   1f040:	0087e863          	bltu	a5,s0,1f050 <__divdf3+0x3d4>
   1f044:	00080913          	addi	s2,a6,0
   1f048:	04879463          	bne	a5,s0,1f090 <__divdf3+0x414>
   1f04c:	054df263          	bgeu	s11,s4,1f090 <__divdf3+0x414>
   1f050:	018d8db3          	add	s11,s11,s8
   1f054:	018db733          	sltu	a4,s11,s8
   1f058:	01770733          	add	a4,a4,s7
   1f05c:	00e787b3          	add	a5,a5,a4
   1f060:	fff80913          	addi	s2,a6,-1
   1f064:	00fbe663          	bltu	s7,a5,1f070 <__divdf3+0x3f4>
   1f068:	02fb9463          	bne	s7,a5,1f090 <__divdf3+0x414>
   1f06c:	038de263          	bltu	s11,s8,1f090 <__divdf3+0x414>
   1f070:	0087e663          	bltu	a5,s0,1f07c <__divdf3+0x400>
   1f074:	00f41e63          	bne	s0,a5,1f090 <__divdf3+0x414>
   1f078:	014dfc63          	bgeu	s11,s4,1f090 <__divdf3+0x414>
   1f07c:	018d8db3          	add	s11,s11,s8
   1f080:	018db733          	sltu	a4,s11,s8
   1f084:	01770733          	add	a4,a4,s7
   1f088:	ffe80913          	addi	s2,a6,-2
   1f08c:	00e787b3          	add	a5,a5,a4
   1f090:	414d8a33          	sub	s4,s11,s4
   1f094:	40878433          	sub	s0,a5,s0
   1f098:	014db533          	sltu	a0,s11,s4
   1f09c:	40a40433          	sub	s0,s0,a0
   1f0a0:	fff00813          	addi	a6,zero,-1
   1f0a4:	1a8b8063          	beq	s7,s0,1f244 <__divdf3+0x5c8>
   1f0a8:	000a8593          	addi	a1,s5,0
   1f0ac:	00040513          	addi	a0,s0,0
   1f0b0:	6b1030ef          	jal	ra,22f60 <__udivsi3>
   1f0b4:	00050593          	addi	a1,a0,0
   1f0b8:	00a12623          	sw	a0,12(sp)
   1f0bc:	000b0513          	addi	a0,s6,0
   1f0c0:	675030ef          	jal	ra,22f34 <__mulsi3>
   1f0c4:	00a12423          	sw	a0,8(sp)
   1f0c8:	000a8593          	addi	a1,s5,0
   1f0cc:	00040513          	addi	a0,s0,0
   1f0d0:	6d9030ef          	jal	ra,22fa8 <__umodsi3>
   1f0d4:	00c12683          	lw	a3,12(sp)
   1f0d8:	00812783          	lw	a5,8(sp)
   1f0dc:	01051513          	slli	a0,a0,0x10
   1f0e0:	010a5713          	srli	a4,s4,0x10
   1f0e4:	00a76533          	or	a0,a4,a0
   1f0e8:	00068d93          	addi	s11,a3,0
   1f0ec:	00f57e63          	bgeu	a0,a5,1f108 <__divdf3+0x48c>
   1f0f0:	01750533          	add	a0,a0,s7
   1f0f4:	fff68d93          	addi	s11,a3,-1
   1f0f8:	01756863          	bltu	a0,s7,1f108 <__divdf3+0x48c>
   1f0fc:	00f57663          	bgeu	a0,a5,1f108 <__divdf3+0x48c>
   1f100:	ffe68d93          	addi	s11,a3,-2
   1f104:	01750533          	add	a0,a0,s7
   1f108:	40f50433          	sub	s0,a0,a5
   1f10c:	000a8593          	addi	a1,s5,0
   1f110:	00040513          	addi	a0,s0,0
   1f114:	64d030ef          	jal	ra,22f60 <__udivsi3>
   1f118:	00050593          	addi	a1,a0,0
   1f11c:	00a12423          	sw	a0,8(sp)
   1f120:	000b0513          	addi	a0,s6,0
   1f124:	611030ef          	jal	ra,22f34 <__mulsi3>
   1f128:	00050b13          	addi	s6,a0,0
   1f12c:	000a8593          	addi	a1,s5,0
   1f130:	00040513          	addi	a0,s0,0
   1f134:	675030ef          	jal	ra,22fa8 <__umodsi3>
   1f138:	010a1a13          	slli	s4,s4,0x10
   1f13c:	00812783          	lw	a5,8(sp)
   1f140:	01051513          	slli	a0,a0,0x10
   1f144:	010a5a13          	srli	s4,s4,0x10
   1f148:	00aa6533          	or	a0,s4,a0
   1f14c:	00078713          	addi	a4,a5,0 # 1000000 <__BSS_END__+0xfda408>
   1f150:	01657e63          	bgeu	a0,s6,1f16c <__divdf3+0x4f0>
   1f154:	01750533          	add	a0,a0,s7
   1f158:	fff78713          	addi	a4,a5,-1
   1f15c:	01756863          	bltu	a0,s7,1f16c <__divdf3+0x4f0>
   1f160:	01657663          	bgeu	a0,s6,1f16c <__divdf3+0x4f0>
   1f164:	ffe78713          	addi	a4,a5,-2
   1f168:	01750533          	add	a0,a0,s7
   1f16c:	010d9793          	slli	a5,s11,0x10
   1f170:	00e7e7b3          	or	a5,a5,a4
   1f174:	01079313          	slli	t1,a5,0x10
   1f178:	01035313          	srli	t1,t1,0x10
   1f17c:	416508b3          	sub	a7,a0,s6
   1f180:	0107d713          	srli	a4,a5,0x10
   1f184:	00030513          	addi	a0,t1,0
   1f188:	000c8593          	addi	a1,s9,0
   1f18c:	5a9030ef          	jal	ra,22f34 <__mulsi3>
   1f190:	00050813          	addi	a6,a0,0
   1f194:	000d0593          	addi	a1,s10,0
   1f198:	00030513          	addi	a0,t1,0
   1f19c:	599030ef          	jal	ra,22f34 <__mulsi3>
   1f1a0:	00050313          	addi	t1,a0,0
   1f1a4:	000c8593          	addi	a1,s9,0
   1f1a8:	00070513          	addi	a0,a4,0
   1f1ac:	589030ef          	jal	ra,22f34 <__mulsi3>
   1f1b0:	00050e13          	addi	t3,a0,0
   1f1b4:	000d0593          	addi	a1,s10,0
   1f1b8:	00070513          	addi	a0,a4,0
   1f1bc:	579030ef          	jal	ra,22f34 <__mulsi3>
   1f1c0:	01085713          	srli	a4,a6,0x10
   1f1c4:	01c30333          	add	t1,t1,t3
   1f1c8:	00670733          	add	a4,a4,t1
   1f1cc:	01c77663          	bgeu	a4,t3,1f1d8 <__divdf3+0x55c>
   1f1d0:	000106b7          	lui	a3,0x10
   1f1d4:	00d50533          	add	a0,a0,a3
   1f1d8:	000105b7          	lui	a1,0x10
   1f1dc:	fff58593          	addi	a1,a1,-1 # ffff <main-0x75>
   1f1e0:	01075613          	srli	a2,a4,0x10
   1f1e4:	00b776b3          	and	a3,a4,a1
   1f1e8:	01069693          	slli	a3,a3,0x10
   1f1ec:	00b87833          	and	a6,a6,a1
   1f1f0:	00a60633          	add	a2,a2,a0
   1f1f4:	010686b3          	add	a3,a3,a6
   1f1f8:	00c8e863          	bltu	a7,a2,1f208 <__divdf3+0x58c>
   1f1fc:	24c89463          	bne	a7,a2,1f444 <__divdf3+0x7c8>
   1f200:	00078813          	addi	a6,a5,0
   1f204:	04068063          	beq	a3,zero,1f244 <__divdf3+0x5c8>
   1f208:	011b8533          	add	a0,s7,a7
   1f20c:	fff78813          	addi	a6,a5,-1
   1f210:	03756463          	bltu	a0,s7,1f238 <__divdf3+0x5bc>
   1f214:	00c56663          	bltu	a0,a2,1f220 <__divdf3+0x5a4>
   1f218:	22c51463          	bne	a0,a2,1f440 <__divdf3+0x7c4>
   1f21c:	02dc7063          	bgeu	s8,a3,1f23c <__divdf3+0x5c0>
   1f220:	ffe78813          	addi	a6,a5,-2
   1f224:	001c1793          	slli	a5,s8,0x1
   1f228:	0187bc33          	sltu	s8,a5,s8
   1f22c:	017c0bb3          	add	s7,s8,s7
   1f230:	01750533          	add	a0,a0,s7
   1f234:	00078c13          	addi	s8,a5,0
   1f238:	00c51463          	bne	a0,a2,1f240 <__divdf3+0x5c4>
   1f23c:	00dc0463          	beq	s8,a3,1f244 <__divdf3+0x5c8>
   1f240:	00186813          	ori	a6,a6,1
   1f244:	3ff98693          	addi	a3,s3,1023
   1f248:	10d05a63          	bge	zero,a3,1f35c <__divdf3+0x6e0>
   1f24c:	00787793          	andi	a5,a6,7
   1f250:	02078063          	beq	a5,zero,1f270 <__divdf3+0x5f4>
   1f254:	00f87793          	andi	a5,a6,15
   1f258:	00400713          	addi	a4,zero,4
   1f25c:	00e78a63          	beq	a5,a4,1f270 <__divdf3+0x5f4>
   1f260:	00480793          	addi	a5,a6,4
   1f264:	0107b833          	sltu	a6,a5,a6
   1f268:	01090933          	add	s2,s2,a6
   1f26c:	00078813          	addi	a6,a5,0
   1f270:	00791793          	slli	a5,s2,0x7
   1f274:	0007da63          	bge	a5,zero,1f288 <__divdf3+0x60c>
   1f278:	ff0007b7          	lui	a5,0xff000
   1f27c:	fff78793          	addi	a5,a5,-1 # feffffff <__BSS_END__+0xfefda407>
   1f280:	00f97933          	and	s2,s2,a5
   1f284:	40098693          	addi	a3,s3,1024
   1f288:	7fe00793          	addi	a5,zero,2046
   1f28c:	18d7ca63          	blt	a5,a3,1f420 <__divdf3+0x7a4>
   1f290:	00385813          	srli	a6,a6,0x3
   1f294:	01d91713          	slli	a4,s2,0x1d
   1f298:	01076733          	or	a4,a4,a6
   1f29c:	00395793          	srli	a5,s2,0x3
   1f2a0:	00c79793          	slli	a5,a5,0xc
   1f2a4:	7ff6f693          	andi	a3,a3,2047
   1f2a8:	01469693          	slli	a3,a3,0x14
   1f2ac:	04c12083          	lw	ra,76(sp)
   1f2b0:	04812403          	lw	s0,72(sp)
   1f2b4:	00c7d793          	srli	a5,a5,0xc
   1f2b8:	01f49493          	slli	s1,s1,0x1f
   1f2bc:	00d7e7b3          	or	a5,a5,a3
   1f2c0:	0097e6b3          	or	a3,a5,s1
   1f2c4:	04012903          	lw	s2,64(sp)
   1f2c8:	04412483          	lw	s1,68(sp)
   1f2cc:	03c12983          	lw	s3,60(sp)
   1f2d0:	03812a03          	lw	s4,56(sp)
   1f2d4:	03412a83          	lw	s5,52(sp)
   1f2d8:	03012b03          	lw	s6,48(sp)
   1f2dc:	02c12b83          	lw	s7,44(sp)
   1f2e0:	02812c03          	lw	s8,40(sp)
   1f2e4:	02412c83          	lw	s9,36(sp)
   1f2e8:	02012d03          	lw	s10,32(sp)
   1f2ec:	01c12d83          	lw	s11,28(sp)
   1f2f0:	00070513          	addi	a0,a4,0
   1f2f4:	00068593          	addi	a1,a3,0 # 10000 <main-0x74>
   1f2f8:	05010113          	addi	sp,sp,80
   1f2fc:	00008067          	jalr	zero,0(ra)
   1f300:	fff98993          	addi	s3,s3,-1
   1f304:	00000d93          	addi	s11,zero,0
   1f308:	bd1ff06f          	jal	zero,1eed8 <__divdf3+0x25c>
   1f30c:	000a0493          	addi	s1,s4,0
   1f310:	000c8913          	addi	s2,s9,0
   1f314:	00040813          	addi	a6,s0,0
   1f318:	000b8793          	addi	a5,s7,0
   1f31c:	00200713          	addi	a4,zero,2
   1f320:	10e78063          	beq	a5,a4,1f420 <__divdf3+0x7a4>
   1f324:	00300713          	addi	a4,zero,3
   1f328:	0ee78263          	beq	a5,a4,1f40c <__divdf3+0x790>
   1f32c:	00100713          	addi	a4,zero,1
   1f330:	f0e79ae3          	bne	a5,a4,1f244 <__divdf3+0x5c8>
   1f334:	00000793          	addi	a5,zero,0
   1f338:	00000713          	addi	a4,zero,0
   1f33c:	0940006f          	jal	zero,1f3d0 <__divdf3+0x754>
   1f340:	000a8493          	addi	s1,s5,0
   1f344:	fd9ff06f          	jal	zero,1f31c <__divdf3+0x6a0>
   1f348:	00080937          	lui	s2,0x80
   1f34c:	00000813          	addi	a6,zero,0
   1f350:	00000493          	addi	s1,zero,0
   1f354:	00300793          	addi	a5,zero,3
   1f358:	fc5ff06f          	jal	zero,1f31c <__divdf3+0x6a0>
   1f35c:	00100793          	addi	a5,zero,1
   1f360:	40d787b3          	sub	a5,a5,a3
   1f364:	03800713          	addi	a4,zero,56
   1f368:	fcf746e3          	blt	a4,a5,1f334 <__divdf3+0x6b8>
   1f36c:	01f00713          	addi	a4,zero,31
   1f370:	06f74463          	blt	a4,a5,1f3d8 <__divdf3+0x75c>
   1f374:	41e98993          	addi	s3,s3,1054
   1f378:	01391733          	sll	a4,s2,s3
   1f37c:	00f856b3          	srl	a3,a6,a5
   1f380:	013819b3          	sll	s3,a6,s3
   1f384:	00d76733          	or	a4,a4,a3
   1f388:	013039b3          	sltu	s3,zero,s3
   1f38c:	01376733          	or	a4,a4,s3
   1f390:	00f957b3          	srl	a5,s2,a5
   1f394:	00777693          	andi	a3,a4,7
   1f398:	02068063          	beq	a3,zero,1f3b8 <__divdf3+0x73c>
   1f39c:	00f77693          	andi	a3,a4,15
   1f3a0:	00400613          	addi	a2,zero,4
   1f3a4:	00c68a63          	beq	a3,a2,1f3b8 <__divdf3+0x73c>
   1f3a8:	00470693          	addi	a3,a4,4
   1f3ac:	00e6b733          	sltu	a4,a3,a4
   1f3b0:	00e787b3          	add	a5,a5,a4
   1f3b4:	00068713          	addi	a4,a3,0
   1f3b8:	00879693          	slli	a3,a5,0x8
   1f3bc:	0606ca63          	blt	a3,zero,1f430 <__divdf3+0x7b4>
   1f3c0:	01d79693          	slli	a3,a5,0x1d
   1f3c4:	00375713          	srli	a4,a4,0x3
   1f3c8:	00e6e733          	or	a4,a3,a4
   1f3cc:	0037d793          	srli	a5,a5,0x3
   1f3d0:	00000693          	addi	a3,zero,0
   1f3d4:	ecdff06f          	jal	zero,1f2a0 <__divdf3+0x624>
   1f3d8:	fe100713          	addi	a4,zero,-31
   1f3dc:	40d70733          	sub	a4,a4,a3
   1f3e0:	02000613          	addi	a2,zero,32
   1f3e4:	00e95733          	srl	a4,s2,a4
   1f3e8:	00000693          	addi	a3,zero,0
   1f3ec:	00c78663          	beq	a5,a2,1f3f8 <__divdf3+0x77c>
   1f3f0:	43e98993          	addi	s3,s3,1086
   1f3f4:	013916b3          	sll	a3,s2,s3
   1f3f8:	0106e833          	or	a6,a3,a6
   1f3fc:	01003833          	sltu	a6,zero,a6
   1f400:	01076733          	or	a4,a4,a6
   1f404:	00000793          	addi	a5,zero,0
   1f408:	f8dff06f          	jal	zero,1f394 <__divdf3+0x718>
   1f40c:	000807b7          	lui	a5,0x80
   1f410:	00000713          	addi	a4,zero,0
   1f414:	7ff00693          	addi	a3,zero,2047
   1f418:	00000493          	addi	s1,zero,0
   1f41c:	e85ff06f          	jal	zero,1f2a0 <__divdf3+0x624>
   1f420:	00000793          	addi	a5,zero,0
   1f424:	00000713          	addi	a4,zero,0
   1f428:	7ff00693          	addi	a3,zero,2047
   1f42c:	e75ff06f          	jal	zero,1f2a0 <__divdf3+0x624>
   1f430:	00000793          	addi	a5,zero,0
   1f434:	00000713          	addi	a4,zero,0
   1f438:	00100693          	addi	a3,zero,1
   1f43c:	e65ff06f          	jal	zero,1f2a0 <__divdf3+0x624>
   1f440:	00080793          	addi	a5,a6,0
   1f444:	00078813          	addi	a6,a5,0 # 80000 <__BSS_END__+0x5a408>
   1f448:	df9ff06f          	jal	zero,1f240 <__divdf3+0x5c4>

0001f44c <__muldf3>:
   1f44c:	fd010113          	addi	sp,sp,-48
   1f450:	03212023          	sw	s2,32(sp)
   1f454:	0145d913          	srli	s2,a1,0x14
   1f458:	01312e23          	sw	s3,28(sp)
   1f45c:	01412c23          	sw	s4,24(sp)
   1f460:	01512a23          	sw	s5,20(sp)
   1f464:	01612823          	sw	s6,16(sp)
   1f468:	01712623          	sw	s7,12(sp)
   1f46c:	00c59a93          	slli	s5,a1,0xc
   1f470:	02112623          	sw	ra,44(sp)
   1f474:	02812423          	sw	s0,40(sp)
   1f478:	02912223          	sw	s1,36(sp)
   1f47c:	7ff97913          	andi	s2,s2,2047
   1f480:	00050b13          	addi	s6,a0,0
   1f484:	00060b93          	addi	s7,a2,0
   1f488:	00068a13          	addi	s4,a3,0
   1f48c:	00cada93          	srli	s5,s5,0xc
   1f490:	01f5d993          	srli	s3,a1,0x1f
   1f494:	0a090463          	beq	s2,zero,1f53c <__muldf3+0xf0>
   1f498:	7ff00793          	addi	a5,zero,2047
   1f49c:	10f90263          	beq	s2,a5,1f5a0 <__muldf3+0x154>
   1f4a0:	01d55413          	srli	s0,a0,0x1d
   1f4a4:	003a9a93          	slli	s5,s5,0x3
   1f4a8:	01546ab3          	or	s5,s0,s5
   1f4ac:	00800437          	lui	s0,0x800
   1f4b0:	008ae433          	or	s0,s5,s0
   1f4b4:	00351493          	slli	s1,a0,0x3
   1f4b8:	c0190913          	addi	s2,s2,-1023 # 7fc01 <__BSS_END__+0x5a009>
   1f4bc:	00000b13          	addi	s6,zero,0
   1f4c0:	014a5513          	srli	a0,s4,0x14
   1f4c4:	00ca1a93          	slli	s5,s4,0xc
   1f4c8:	7ff57513          	andi	a0,a0,2047
   1f4cc:	000b8713          	addi	a4,s7,0
   1f4d0:	00cada93          	srli	s5,s5,0xc
   1f4d4:	01fa5a13          	srli	s4,s4,0x1f
   1f4d8:	10050263          	beq	a0,zero,1f5dc <__muldf3+0x190>
   1f4dc:	7ff00793          	addi	a5,zero,2047
   1f4e0:	16f50263          	beq	a0,a5,1f644 <__muldf3+0x1f8>
   1f4e4:	01dbd793          	srli	a5,s7,0x1d
   1f4e8:	003a9a93          	slli	s5,s5,0x3
   1f4ec:	0157eab3          	or	s5,a5,s5
   1f4f0:	008007b7          	lui	a5,0x800
   1f4f4:	00fae7b3          	or	a5,s5,a5
   1f4f8:	003b9713          	slli	a4,s7,0x3
   1f4fc:	c0150513          	addi	a0,a0,-1023
   1f500:	00000693          	addi	a3,zero,0
   1f504:	002b1613          	slli	a2,s6,0x2
   1f508:	00d66633          	or	a2,a2,a3
   1f50c:	00a90933          	add	s2,s2,a0
   1f510:	fff60613          	addi	a2,a2,-1
   1f514:	00e00593          	addi	a1,zero,14
   1f518:	0149c833          	xor	a6,s3,s4
   1f51c:	00190893          	addi	a7,s2,1
   1f520:	14c5ee63          	bltu	a1,a2,1f67c <__muldf3+0x230>
   1f524:	000245b7          	lui	a1,0x24
   1f528:	00261613          	slli	a2,a2,0x2
   1f52c:	f9c58593          	addi	a1,a1,-100 # 23f9c <zeroes.4476+0x4c>
   1f530:	00b60633          	add	a2,a2,a1
   1f534:	00062603          	lw	a2,0(a2)
   1f538:	00060067          	jalr	zero,0(a2)
   1f53c:	00aae433          	or	s0,s5,a0
   1f540:	06040e63          	beq	s0,zero,1f5bc <__muldf3+0x170>
   1f544:	040a8063          	beq	s5,zero,1f584 <__muldf3+0x138>
   1f548:	000a8513          	addi	a0,s5,0
   1f54c:	2c1030ef          	jal	ra,2300c <__clzsi2>
   1f550:	ff550793          	addi	a5,a0,-11
   1f554:	01c00713          	addi	a4,zero,28
   1f558:	02f74c63          	blt	a4,a5,1f590 <__muldf3+0x144>
   1f55c:	01d00413          	addi	s0,zero,29
   1f560:	ff850493          	addi	s1,a0,-8
   1f564:	40f40433          	sub	s0,s0,a5
   1f568:	009a9ab3          	sll	s5,s5,s1
   1f56c:	008b5433          	srl	s0,s6,s0
   1f570:	01546433          	or	s0,s0,s5
   1f574:	009b14b3          	sll	s1,s6,s1
   1f578:	c0d00913          	addi	s2,zero,-1011
   1f57c:	40a90933          	sub	s2,s2,a0
   1f580:	f3dff06f          	jal	zero,1f4bc <__muldf3+0x70>
   1f584:	289030ef          	jal	ra,2300c <__clzsi2>
   1f588:	02050513          	addi	a0,a0,32
   1f58c:	fc5ff06f          	jal	zero,1f550 <__muldf3+0x104>
   1f590:	fd850413          	addi	s0,a0,-40
   1f594:	008b1433          	sll	s0,s6,s0
   1f598:	00000493          	addi	s1,zero,0
   1f59c:	fddff06f          	jal	zero,1f578 <__muldf3+0x12c>
   1f5a0:	00aae433          	or	s0,s5,a0
   1f5a4:	02040463          	beq	s0,zero,1f5cc <__muldf3+0x180>
   1f5a8:	00050493          	addi	s1,a0,0
   1f5ac:	000a8413          	addi	s0,s5,0
   1f5b0:	7ff00913          	addi	s2,zero,2047
   1f5b4:	00300b13          	addi	s6,zero,3
   1f5b8:	f09ff06f          	jal	zero,1f4c0 <__muldf3+0x74>
   1f5bc:	00000493          	addi	s1,zero,0
   1f5c0:	00000913          	addi	s2,zero,0
   1f5c4:	00100b13          	addi	s6,zero,1
   1f5c8:	ef9ff06f          	jal	zero,1f4c0 <__muldf3+0x74>
   1f5cc:	00000493          	addi	s1,zero,0
   1f5d0:	7ff00913          	addi	s2,zero,2047
   1f5d4:	00200b13          	addi	s6,zero,2
   1f5d8:	ee9ff06f          	jal	zero,1f4c0 <__muldf3+0x74>
   1f5dc:	017ae7b3          	or	a5,s5,s7
   1f5e0:	06078e63          	beq	a5,zero,1f65c <__muldf3+0x210>
   1f5e4:	040a8063          	beq	s5,zero,1f624 <__muldf3+0x1d8>
   1f5e8:	000a8513          	addi	a0,s5,0
   1f5ec:	221030ef          	jal	ra,2300c <__clzsi2>
   1f5f0:	ff550693          	addi	a3,a0,-11
   1f5f4:	01c00793          	addi	a5,zero,28
   1f5f8:	02d7ce63          	blt	a5,a3,1f634 <__muldf3+0x1e8>
   1f5fc:	01d00793          	addi	a5,zero,29
   1f600:	ff850713          	addi	a4,a0,-8
   1f604:	40d787b3          	sub	a5,a5,a3
   1f608:	00ea9ab3          	sll	s5,s5,a4
   1f60c:	00fbd7b3          	srl	a5,s7,a5
   1f610:	0157e7b3          	or	a5,a5,s5
   1f614:	00eb9733          	sll	a4,s7,a4
   1f618:	c0d00613          	addi	a2,zero,-1011
   1f61c:	40a60533          	sub	a0,a2,a0
   1f620:	ee1ff06f          	jal	zero,1f500 <__muldf3+0xb4>
   1f624:	000b8513          	addi	a0,s7,0
   1f628:	1e5030ef          	jal	ra,2300c <__clzsi2>
   1f62c:	02050513          	addi	a0,a0,32
   1f630:	fc1ff06f          	jal	zero,1f5f0 <__muldf3+0x1a4>
   1f634:	fd850793          	addi	a5,a0,-40
   1f638:	00fb97b3          	sll	a5,s7,a5
   1f63c:	00000713          	addi	a4,zero,0
   1f640:	fd9ff06f          	jal	zero,1f618 <__muldf3+0x1cc>
   1f644:	017ae7b3          	or	a5,s5,s7
   1f648:	02078263          	beq	a5,zero,1f66c <__muldf3+0x220>
   1f64c:	000a8793          	addi	a5,s5,0
   1f650:	7ff00513          	addi	a0,zero,2047
   1f654:	00300693          	addi	a3,zero,3
   1f658:	eadff06f          	jal	zero,1f504 <__muldf3+0xb8>
   1f65c:	00000713          	addi	a4,zero,0
   1f660:	00000513          	addi	a0,zero,0
   1f664:	00100693          	addi	a3,zero,1
   1f668:	e9dff06f          	jal	zero,1f504 <__muldf3+0xb8>
   1f66c:	00000713          	addi	a4,zero,0
   1f670:	7ff00513          	addi	a0,zero,2047
   1f674:	00200693          	addi	a3,zero,2
   1f678:	e8dff06f          	jal	zero,1f504 <__muldf3+0xb8>
   1f67c:	000103b7          	lui	t2,0x10
   1f680:	fff38313          	addi	t1,t2,-1 # ffff <main-0x75>
   1f684:	0104df93          	srli	t6,s1,0x10
   1f688:	01075293          	srli	t0,a4,0x10
   1f68c:	0064f4b3          	and	s1,s1,t1
   1f690:	00677733          	and	a4,a4,t1
   1f694:	00048513          	addi	a0,s1,0
   1f698:	00070593          	addi	a1,a4,0
   1f69c:	099030ef          	jal	ra,22f34 <__mulsi3>
   1f6a0:	00050e93          	addi	t4,a0,0
   1f6a4:	00028593          	addi	a1,t0,0
   1f6a8:	00048513          	addi	a0,s1,0
   1f6ac:	089030ef          	jal	ra,22f34 <__mulsi3>
   1f6b0:	00050e13          	addi	t3,a0,0
   1f6b4:	00070593          	addi	a1,a4,0
   1f6b8:	000f8513          	addi	a0,t6,0
   1f6bc:	079030ef          	jal	ra,22f34 <__mulsi3>
   1f6c0:	00050993          	addi	s3,a0,0
   1f6c4:	00028593          	addi	a1,t0,0
   1f6c8:	000f8513          	addi	a0,t6,0
   1f6cc:	069030ef          	jal	ra,22f34 <__mulsi3>
   1f6d0:	010ed693          	srli	a3,t4,0x10
   1f6d4:	013e0e33          	add	t3,t3,s3
   1f6d8:	01c686b3          	add	a3,a3,t3
   1f6dc:	00050f13          	addi	t5,a0,0
   1f6e0:	0136f463          	bgeu	a3,s3,1f6e8 <__muldf3+0x29c>
   1f6e4:	00750f33          	add	t5,a0,t2
   1f6e8:	0066fe33          	and	t3,a3,t1
   1f6ec:	006efeb3          	and	t4,t4,t1
   1f6f0:	0107d993          	srli	s3,a5,0x10
   1f6f4:	010e1e13          	slli	t3,t3,0x10
   1f6f8:	0067f7b3          	and	a5,a5,t1
   1f6fc:	0106d393          	srli	t2,a3,0x10
   1f700:	01de0e33          	add	t3,t3,t4
   1f704:	00048513          	addi	a0,s1,0
   1f708:	00078593          	addi	a1,a5,0 # 800000 <__BSS_END__+0x7da408>
   1f70c:	029030ef          	jal	ra,22f34 <__mulsi3>
   1f710:	00050e93          	addi	t4,a0,0
   1f714:	00098593          	addi	a1,s3,0
   1f718:	00048513          	addi	a0,s1,0
   1f71c:	019030ef          	jal	ra,22f34 <__mulsi3>
   1f720:	00050313          	addi	t1,a0,0
   1f724:	00078593          	addi	a1,a5,0
   1f728:	000f8513          	addi	a0,t6,0
   1f72c:	009030ef          	jal	ra,22f34 <__mulsi3>
   1f730:	00050493          	addi	s1,a0,0
   1f734:	00098593          	addi	a1,s3,0
   1f738:	000f8513          	addi	a0,t6,0
   1f73c:	7f8030ef          	jal	ra,22f34 <__mulsi3>
   1f740:	010ed613          	srli	a2,t4,0x10
   1f744:	00930333          	add	t1,t1,s1
   1f748:	00660633          	add	a2,a2,t1
   1f74c:	00967663          	bgeu	a2,s1,1f758 <__muldf3+0x30c>
   1f750:	000106b7          	lui	a3,0x10
   1f754:	00d50533          	add	a0,a0,a3
   1f758:	01065693          	srli	a3,a2,0x10
   1f75c:	00010ab7          	lui	s5,0x10
   1f760:	00a68fb3          	add	t6,a3,a0
   1f764:	fffa8693          	addi	a3,s5,-1 # ffff <main-0x75>
   1f768:	00d67633          	and	a2,a2,a3
   1f76c:	01061613          	slli	a2,a2,0x10
   1f770:	00defeb3          	and	t4,t4,a3
   1f774:	01d60eb3          	add	t4,a2,t4
   1f778:	01045493          	srli	s1,s0,0x10
   1f77c:	00d47433          	and	s0,s0,a3
   1f780:	01d383b3          	add	t2,t2,t4
   1f784:	00040513          	addi	a0,s0,0 # 800000 <__BSS_END__+0x7da408>
   1f788:	00070593          	addi	a1,a4,0
   1f78c:	7a8030ef          	jal	ra,22f34 <__mulsi3>
   1f790:	00050a13          	addi	s4,a0,0
   1f794:	00028593          	addi	a1,t0,0
   1f798:	00040513          	addi	a0,s0,0
   1f79c:	798030ef          	jal	ra,22f34 <__mulsi3>
   1f7a0:	00050313          	addi	t1,a0,0
   1f7a4:	00070593          	addi	a1,a4,0
   1f7a8:	00048513          	addi	a0,s1,0
   1f7ac:	788030ef          	jal	ra,22f34 <__mulsi3>
   1f7b0:	00050b13          	addi	s6,a0,0
   1f7b4:	00028593          	addi	a1,t0,0
   1f7b8:	00048513          	addi	a0,s1,0
   1f7bc:	778030ef          	jal	ra,22f34 <__mulsi3>
   1f7c0:	010a5713          	srli	a4,s4,0x10
   1f7c4:	01630333          	add	t1,t1,s6
   1f7c8:	00670733          	add	a4,a4,t1
   1f7cc:	01677463          	bgeu	a4,s6,1f7d4 <__muldf3+0x388>
   1f7d0:	01550533          	add	a0,a0,s5
   1f7d4:	00010ab7          	lui	s5,0x10
   1f7d8:	fffa8693          	addi	a3,s5,-1 # ffff <main-0x75>
   1f7dc:	00d77333          	and	t1,a4,a3
   1f7e0:	01075593          	srli	a1,a4,0x10
   1f7e4:	00da7a33          	and	s4,s4,a3
   1f7e8:	01031313          	slli	t1,t1,0x10
   1f7ec:	00a582b3          	add	t0,a1,a0
   1f7f0:	01430333          	add	t1,t1,s4
   1f7f4:	00040513          	addi	a0,s0,0
   1f7f8:	00078593          	addi	a1,a5,0
   1f7fc:	738030ef          	jal	ra,22f34 <__mulsi3>
   1f800:	00050713          	addi	a4,a0,0
   1f804:	00098593          	addi	a1,s3,0
   1f808:	00040513          	addi	a0,s0,0
   1f80c:	728030ef          	jal	ra,22f34 <__mulsi3>
   1f810:	00050413          	addi	s0,a0,0
   1f814:	00078593          	addi	a1,a5,0
   1f818:	00048513          	addi	a0,s1,0
   1f81c:	718030ef          	jal	ra,22f34 <__mulsi3>
   1f820:	00050a13          	addi	s4,a0,0
   1f824:	00098593          	addi	a1,s3,0
   1f828:	00048513          	addi	a0,s1,0
   1f82c:	708030ef          	jal	ra,22f34 <__mulsi3>
   1f830:	01075613          	srli	a2,a4,0x10
   1f834:	01440433          	add	s0,s0,s4
   1f838:	00860633          	add	a2,a2,s0
   1f83c:	01467463          	bgeu	a2,s4,1f844 <__muldf3+0x3f8>
   1f840:	01550533          	add	a0,a0,s5
   1f844:	000107b7          	lui	a5,0x10
   1f848:	fff78793          	addi	a5,a5,-1 # ffff <main-0x75>
   1f84c:	00f676b3          	and	a3,a2,a5
   1f850:	00f77733          	and	a4,a4,a5
   1f854:	01069693          	slli	a3,a3,0x10
   1f858:	01e383b3          	add	t2,t2,t5
   1f85c:	00e686b3          	add	a3,a3,a4
   1f860:	01d3beb3          	sltu	t4,t2,t4
   1f864:	01f686b3          	add	a3,a3,t6
   1f868:	01d687b3          	add	a5,a3,t4
   1f86c:	006383b3          	add	t2,t2,t1
   1f870:	005785b3          	add	a1,a5,t0
   1f874:	0063b333          	sltu	t1,t2,t1
   1f878:	00658f33          	add	t5,a1,t1
   1f87c:	01f6b6b3          	sltu	a3,a3,t6
   1f880:	01d7b7b3          	sltu	a5,a5,t4
   1f884:	00f6e7b3          	or	a5,a3,a5
   1f888:	01065613          	srli	a2,a2,0x10
   1f88c:	0055b5b3          	sltu	a1,a1,t0
   1f890:	006f3333          	sltu	t1,t5,t1
   1f894:	00c787b3          	add	a5,a5,a2
   1f898:	0065e333          	or	t1,a1,t1
   1f89c:	006787b3          	add	a5,a5,t1
   1f8a0:	00939713          	slli	a4,t2,0x9
   1f8a4:	00a787b3          	add	a5,a5,a0
   1f8a8:	01c76733          	or	a4,a4,t3
   1f8ac:	00979793          	slli	a5,a5,0x9
   1f8b0:	017f5513          	srli	a0,t5,0x17
   1f8b4:	00e03733          	sltu	a4,zero,a4
   1f8b8:	0173de13          	srli	t3,t2,0x17
   1f8bc:	009f1693          	slli	a3,t5,0x9
   1f8c0:	00a7e7b3          	or	a5,a5,a0
   1f8c4:	01c76733          	or	a4,a4,t3
   1f8c8:	00d76733          	or	a4,a4,a3
   1f8cc:	00779693          	slli	a3,a5,0x7
   1f8d0:	1006d263          	bge	a3,zero,1f9d4 <__muldf3+0x588>
   1f8d4:	00175693          	srli	a3,a4,0x1
   1f8d8:	00177713          	andi	a4,a4,1
   1f8dc:	00e6e733          	or	a4,a3,a4
   1f8e0:	01f79693          	slli	a3,a5,0x1f
   1f8e4:	00d76733          	or	a4,a4,a3
   1f8e8:	0017d793          	srli	a5,a5,0x1
   1f8ec:	3ff88613          	addi	a2,a7,1023
   1f8f0:	0ec05663          	bge	zero,a2,1f9dc <__muldf3+0x590>
   1f8f4:	00777693          	andi	a3,a4,7
   1f8f8:	02068063          	beq	a3,zero,1f918 <__muldf3+0x4cc>
   1f8fc:	00f77693          	andi	a3,a4,15
   1f900:	00400593          	addi	a1,zero,4
   1f904:	00b68a63          	beq	a3,a1,1f918 <__muldf3+0x4cc>
   1f908:	00470693          	addi	a3,a4,4
   1f90c:	00e6b733          	sltu	a4,a3,a4
   1f910:	00e787b3          	add	a5,a5,a4
   1f914:	00068713          	addi	a4,a3,0 # 10000 <main-0x74>
   1f918:	00779693          	slli	a3,a5,0x7
   1f91c:	0006da63          	bge	a3,zero,1f930 <__muldf3+0x4e4>
   1f920:	ff0006b7          	lui	a3,0xff000
   1f924:	fff68693          	addi	a3,a3,-1 # feffffff <__BSS_END__+0xfefda407>
   1f928:	00d7f7b3          	and	a5,a5,a3
   1f92c:	40088613          	addi	a2,a7,1024
   1f930:	7fe00693          	addi	a3,zero,2046
   1f934:	16c6c663          	blt	a3,a2,1faa0 <__muldf3+0x654>
   1f938:	00375693          	srli	a3,a4,0x3
   1f93c:	01d79713          	slli	a4,a5,0x1d
   1f940:	00d76733          	or	a4,a4,a3
   1f944:	0037d793          	srli	a5,a5,0x3
   1f948:	00c79793          	slli	a5,a5,0xc
   1f94c:	7ff67693          	andi	a3,a2,2047
   1f950:	01469693          	slli	a3,a3,0x14
   1f954:	02c12083          	lw	ra,44(sp)
   1f958:	02812403          	lw	s0,40(sp)
   1f95c:	00c7d793          	srli	a5,a5,0xc
   1f960:	01f81813          	slli	a6,a6,0x1f
   1f964:	00d7e7b3          	or	a5,a5,a3
   1f968:	0107e6b3          	or	a3,a5,a6
   1f96c:	02412483          	lw	s1,36(sp)
   1f970:	02012903          	lw	s2,32(sp)
   1f974:	01c12983          	lw	s3,28(sp)
   1f978:	01812a03          	lw	s4,24(sp)
   1f97c:	01412a83          	lw	s5,20(sp)
   1f980:	01012b03          	lw	s6,16(sp)
   1f984:	00c12b83          	lw	s7,12(sp)
   1f988:	00070513          	addi	a0,a4,0
   1f98c:	00068593          	addi	a1,a3,0
   1f990:	03010113          	addi	sp,sp,48
   1f994:	00008067          	jalr	zero,0(ra)
   1f998:	00098813          	addi	a6,s3,0
   1f99c:	00040793          	addi	a5,s0,0
   1f9a0:	00048713          	addi	a4,s1,0
   1f9a4:	000b0693          	addi	a3,s6,0
   1f9a8:	00200613          	addi	a2,zero,2
   1f9ac:	0ec68a63          	beq	a3,a2,1faa0 <__muldf3+0x654>
   1f9b0:	00300613          	addi	a2,zero,3
   1f9b4:	0cc68c63          	beq	a3,a2,1fa8c <__muldf3+0x640>
   1f9b8:	00100613          	addi	a2,zero,1
   1f9bc:	f2c698e3          	bne	a3,a2,1f8ec <__muldf3+0x4a0>
   1f9c0:	00000793          	addi	a5,zero,0
   1f9c4:	00000713          	addi	a4,zero,0
   1f9c8:	0880006f          	jal	zero,1fa50 <__muldf3+0x604>
   1f9cc:	000a0813          	addi	a6,s4,0
   1f9d0:	fd9ff06f          	jal	zero,1f9a8 <__muldf3+0x55c>
   1f9d4:	00090893          	addi	a7,s2,0
   1f9d8:	f15ff06f          	jal	zero,1f8ec <__muldf3+0x4a0>
   1f9dc:	00100593          	addi	a1,zero,1
   1f9e0:	40c585b3          	sub	a1,a1,a2
   1f9e4:	03800693          	addi	a3,zero,56
   1f9e8:	fcb6cce3          	blt	a3,a1,1f9c0 <__muldf3+0x574>
   1f9ec:	01f00693          	addi	a3,zero,31
   1f9f0:	06b6c463          	blt	a3,a1,1fa58 <__muldf3+0x60c>
   1f9f4:	41e88893          	addi	a7,a7,1054
   1f9f8:	011796b3          	sll	a3,a5,a7
   1f9fc:	00b75633          	srl	a2,a4,a1
   1fa00:	01171733          	sll	a4,a4,a7
   1fa04:	00c6e6b3          	or	a3,a3,a2
   1fa08:	00e03733          	sltu	a4,zero,a4
   1fa0c:	00e6e733          	or	a4,a3,a4
   1fa10:	00b7d7b3          	srl	a5,a5,a1
   1fa14:	00777693          	andi	a3,a4,7
   1fa18:	02068063          	beq	a3,zero,1fa38 <__muldf3+0x5ec>
   1fa1c:	00f77693          	andi	a3,a4,15
   1fa20:	00400613          	addi	a2,zero,4
   1fa24:	00c68a63          	beq	a3,a2,1fa38 <__muldf3+0x5ec>
   1fa28:	00470693          	addi	a3,a4,4
   1fa2c:	00e6b733          	sltu	a4,a3,a4
   1fa30:	00e787b3          	add	a5,a5,a4
   1fa34:	00068713          	addi	a4,a3,0
   1fa38:	00879693          	slli	a3,a5,0x8
   1fa3c:	0606ca63          	blt	a3,zero,1fab0 <__muldf3+0x664>
   1fa40:	01d79693          	slli	a3,a5,0x1d
   1fa44:	00375713          	srli	a4,a4,0x3
   1fa48:	00e6e733          	or	a4,a3,a4
   1fa4c:	0037d793          	srli	a5,a5,0x3
   1fa50:	00000613          	addi	a2,zero,0
   1fa54:	ef5ff06f          	jal	zero,1f948 <__muldf3+0x4fc>
   1fa58:	fe100693          	addi	a3,zero,-31
   1fa5c:	40c686b3          	sub	a3,a3,a2
   1fa60:	02000513          	addi	a0,zero,32
   1fa64:	00d7d6b3          	srl	a3,a5,a3
   1fa68:	00000613          	addi	a2,zero,0
   1fa6c:	00a58663          	beq	a1,a0,1fa78 <__muldf3+0x62c>
   1fa70:	43e88893          	addi	a7,a7,1086
   1fa74:	01179633          	sll	a2,a5,a7
   1fa78:	00e66733          	or	a4,a2,a4
   1fa7c:	00e03733          	sltu	a4,zero,a4
   1fa80:	00e6e733          	or	a4,a3,a4
   1fa84:	00000793          	addi	a5,zero,0
   1fa88:	f8dff06f          	jal	zero,1fa14 <__muldf3+0x5c8>
   1fa8c:	000807b7          	lui	a5,0x80
   1fa90:	00000713          	addi	a4,zero,0
   1fa94:	7ff00613          	addi	a2,zero,2047
   1fa98:	00000813          	addi	a6,zero,0
   1fa9c:	eadff06f          	jal	zero,1f948 <__muldf3+0x4fc>
   1faa0:	00000793          	addi	a5,zero,0
   1faa4:	00000713          	addi	a4,zero,0
   1faa8:	7ff00613          	addi	a2,zero,2047
   1faac:	e9dff06f          	jal	zero,1f948 <__muldf3+0x4fc>
   1fab0:	00000793          	addi	a5,zero,0
   1fab4:	00000713          	addi	a4,zero,0
   1fab8:	00100613          	addi	a2,zero,1
   1fabc:	e8dff06f          	jal	zero,1f948 <__muldf3+0x4fc>

0001fac0 <__eqtf2>:
   1fac0:	00c52783          	lw	a5,12(a0)
   1fac4:	0005af03          	lw	t5,0(a1)
   1fac8:	0045af83          	lw	t6,4(a1)
   1facc:	0085a283          	lw	t0,8(a1)
   1fad0:	00c5a583          	lw	a1,12(a1)
   1fad4:	00008737          	lui	a4,0x8
   1fad8:	0107d693          	srli	a3,a5,0x10
   1fadc:	fff70713          	addi	a4,a4,-1 # 7fff <main-0x8075>
   1fae0:	01079813          	slli	a6,a5,0x10
   1fae4:	01059e93          	slli	t4,a1,0x10
   1fae8:	01f7d613          	srli	a2,a5,0x1f
   1faec:	00e6f6b3          	and	a3,a3,a4
   1faf0:	0105d793          	srli	a5,a1,0x10
   1faf4:	ff010113          	addi	sp,sp,-16
   1faf8:	00052883          	lw	a7,0(a0)
   1fafc:	00452303          	lw	t1,4(a0)
   1fb00:	00852e03          	lw	t3,8(a0)
   1fb04:	01085813          	srli	a6,a6,0x10
   1fb08:	010ede93          	srli	t4,t4,0x10
   1fb0c:	00e7f7b3          	and	a5,a5,a4
   1fb10:	01f5d593          	srli	a1,a1,0x1f
   1fb14:	02e69063          	bne	a3,a4,1fb34 <__eqtf2+0x74>
   1fb18:	0068e733          	or	a4,a7,t1
   1fb1c:	01c76733          	or	a4,a4,t3
   1fb20:	01076733          	or	a4,a4,a6
   1fb24:	00100513          	addi	a0,zero,1
   1fb28:	04071a63          	bne	a4,zero,1fb7c <__eqtf2+0xbc>
   1fb2c:	04d79863          	bne	a5,a3,1fb7c <__eqtf2+0xbc>
   1fb30:	0080006f          	jal	zero,1fb38 <__eqtf2+0x78>
   1fb34:	00e79c63          	bne	a5,a4,1fb4c <__eqtf2+0x8c>
   1fb38:	01ff6733          	or	a4,t5,t6
   1fb3c:	00576733          	or	a4,a4,t0
   1fb40:	01d76733          	or	a4,a4,t4
   1fb44:	00100513          	addi	a0,zero,1
   1fb48:	02071a63          	bne	a4,zero,1fb7c <__eqtf2+0xbc>
   1fb4c:	00100513          	addi	a0,zero,1
   1fb50:	02d79663          	bne	a5,a3,1fb7c <__eqtf2+0xbc>
   1fb54:	03e89463          	bne	a7,t5,1fb7c <__eqtf2+0xbc>
   1fb58:	03f31263          	bne	t1,t6,1fb7c <__eqtf2+0xbc>
   1fb5c:	025e1063          	bne	t3,t0,1fb7c <__eqtf2+0xbc>
   1fb60:	01d81e63          	bne	a6,t4,1fb7c <__eqtf2+0xbc>
   1fb64:	02b60063          	beq	a2,a1,1fb84 <__eqtf2+0xc4>
   1fb68:	00079a63          	bne	a5,zero,1fb7c <__eqtf2+0xbc>
   1fb6c:	0068e533          	or	a0,a7,t1
   1fb70:	01c56533          	or	a0,a0,t3
   1fb74:	01056533          	or	a0,a0,a6
   1fb78:	00a03533          	sltu	a0,zero,a0
   1fb7c:	01010113          	addi	sp,sp,16
   1fb80:	00008067          	jalr	zero,0(ra)
   1fb84:	00000513          	addi	a0,zero,0
   1fb88:	ff5ff06f          	jal	zero,1fb7c <__eqtf2+0xbc>

0001fb8c <__getf2>:
   1fb8c:	00c52783          	lw	a5,12(a0)
   1fb90:	00c5a603          	lw	a2,12(a1)
   1fb94:	0005a283          	lw	t0,0(a1)
   1fb98:	0045a883          	lw	a7,4(a1)
   1fb9c:	0085af03          	lw	t5,8(a1)
   1fba0:	000085b7          	lui	a1,0x8
   1fba4:	0107d693          	srli	a3,a5,0x10
   1fba8:	fff58593          	addi	a1,a1,-1 # 7fff <main-0x8075>
   1fbac:	01079313          	slli	t1,a5,0x10
   1fbb0:	01061e13          	slli	t3,a2,0x10
   1fbb4:	01065713          	srli	a4,a2,0x10
   1fbb8:	00b6f6b3          	and	a3,a3,a1
   1fbbc:	ff010113          	addi	sp,sp,-16
   1fbc0:	00052f83          	lw	t6,0(a0)
   1fbc4:	00452803          	lw	a6,4(a0)
   1fbc8:	00852e83          	lw	t4,8(a0)
   1fbcc:	01035313          	srli	t1,t1,0x10
   1fbd0:	01f7d793          	srli	a5,a5,0x1f
   1fbd4:	010e5e13          	srli	t3,t3,0x10
   1fbd8:	00b77733          	and	a4,a4,a1
   1fbdc:	01f65613          	srli	a2,a2,0x1f
   1fbe0:	02b69063          	bne	a3,a1,1fc00 <__getf2+0x74>
   1fbe4:	01f865b3          	or	a1,a6,t6
   1fbe8:	01d5e5b3          	or	a1,a1,t4
   1fbec:	0065e5b3          	or	a1,a1,t1
   1fbf0:	ffe00513          	addi	a0,zero,-2
   1fbf4:	0c058863          	beq	a1,zero,1fcc4 <__getf2+0x138>
   1fbf8:	01010113          	addi	sp,sp,16
   1fbfc:	00008067          	jalr	zero,0(ra)
   1fc00:	00b71c63          	bne	a4,a1,1fc18 <__getf2+0x8c>
   1fc04:	0058e5b3          	or	a1,a7,t0
   1fc08:	01e5e5b3          	or	a1,a1,t5
   1fc0c:	01c5e5b3          	or	a1,a1,t3
   1fc10:	ffe00513          	addi	a0,zero,-2
   1fc14:	fe0592e3          	bne	a1,zero,1fbf8 <__getf2+0x6c>
   1fc18:	0a069863          	bne	a3,zero,1fcc8 <__getf2+0x13c>
   1fc1c:	01f86533          	or	a0,a6,t6
   1fc20:	01d56533          	or	a0,a0,t4
   1fc24:	00656533          	or	a0,a0,t1
   1fc28:	00153513          	sltiu	a0,a0,1
   1fc2c:	00071a63          	bne	a4,zero,1fc40 <__getf2+0xb4>
   1fc30:	0058e5b3          	or	a1,a7,t0
   1fc34:	01e5e5b3          	or	a1,a1,t5
   1fc38:	01c5e5b3          	or	a1,a1,t3
   1fc3c:	06058663          	beq	a1,zero,1fca8 <__getf2+0x11c>
   1fc40:	00051a63          	bne	a0,zero,1fc54 <__getf2+0xc8>
   1fc44:	00c78e63          	beq	a5,a2,1fc60 <__getf2+0xd4>
   1fc48:	00100513          	addi	a0,zero,1
   1fc4c:	fa0786e3          	beq	a5,zero,1fbf8 <__getf2+0x6c>
   1fc50:	0080006f          	jal	zero,1fc58 <__getf2+0xcc>
   1fc54:	fa0612e3          	bne	a2,zero,1fbf8 <__getf2+0x6c>
   1fc58:	fff00513          	addi	a0,zero,-1
   1fc5c:	f9dff06f          	jal	zero,1fbf8 <__getf2+0x6c>
   1fc60:	fed744e3          	blt	a4,a3,1fc48 <__getf2+0xbc>
   1fc64:	00e6da63          	bge	a3,a4,1fc78 <__getf2+0xec>
   1fc68:	fff00513          	addi	a0,zero,-1
   1fc6c:	f80786e3          	beq	a5,zero,1fbf8 <__getf2+0x6c>
   1fc70:	00100513          	addi	a0,zero,1
   1fc74:	f85ff06f          	jal	zero,1fbf8 <__getf2+0x6c>
   1fc78:	fc6e68e3          	bltu	t3,t1,1fc48 <__getf2+0xbc>
   1fc7c:	03c31c63          	bne	t1,t3,1fcb4 <__getf2+0x128>
   1fc80:	fddf64e3          	bltu	t5,t4,1fc48 <__getf2+0xbc>
   1fc84:	03df1c63          	bne	t5,t4,1fcbc <__getf2+0x130>
   1fc88:	fd08e0e3          	bltu	a7,a6,1fc48 <__getf2+0xbc>
   1fc8c:	01089463          	bne	a7,a6,1fc94 <__getf2+0x108>
   1fc90:	fbf2ece3          	bltu	t0,t6,1fc48 <__getf2+0xbc>
   1fc94:	fd186ae3          	bltu	a6,a7,1fc68 <__getf2+0xdc>
   1fc98:	00000513          	addi	a0,zero,0
   1fc9c:	f5089ee3          	bne	a7,a6,1fbf8 <__getf2+0x6c>
   1fca0:	f45ffce3          	bgeu	t6,t0,1fbf8 <__getf2+0x6c>
   1fca4:	fc5ff06f          	jal	zero,1fc68 <__getf2+0xdc>
   1fca8:	fa0500e3          	beq	a0,zero,1fc48 <__getf2+0xbc>
   1fcac:	00000513          	addi	a0,zero,0
   1fcb0:	f49ff06f          	jal	zero,1fbf8 <__getf2+0x6c>
   1fcb4:	fbc36ae3          	bltu	t1,t3,1fc68 <__getf2+0xdc>
   1fcb8:	ff5ff06f          	jal	zero,1fcac <__getf2+0x120>
   1fcbc:	fbeee6e3          	bltu	t4,t5,1fc68 <__getf2+0xdc>
   1fcc0:	fedff06f          	jal	zero,1fcac <__getf2+0x120>
   1fcc4:	f4d700e3          	beq	a4,a3,1fc04 <__getf2+0x78>
   1fcc8:	f6071ee3          	bne	a4,zero,1fc44 <__getf2+0xb8>
   1fccc:	00000513          	addi	a0,zero,0
   1fcd0:	f61ff06f          	jal	zero,1fc30 <__getf2+0xa4>

0001fcd4 <__letf2>:
   1fcd4:	00c52783          	lw	a5,12(a0)
   1fcd8:	00c5a603          	lw	a2,12(a1)
   1fcdc:	0005a283          	lw	t0,0(a1)
   1fce0:	0045a883          	lw	a7,4(a1)
   1fce4:	0085af03          	lw	t5,8(a1)
   1fce8:	000085b7          	lui	a1,0x8
   1fcec:	0107d693          	srli	a3,a5,0x10
   1fcf0:	fff58593          	addi	a1,a1,-1 # 7fff <main-0x8075>
   1fcf4:	01079313          	slli	t1,a5,0x10
   1fcf8:	01061e13          	slli	t3,a2,0x10
   1fcfc:	01065713          	srli	a4,a2,0x10
   1fd00:	00b6f6b3          	and	a3,a3,a1
   1fd04:	ff010113          	addi	sp,sp,-16
   1fd08:	00052f83          	lw	t6,0(a0)
   1fd0c:	00452803          	lw	a6,4(a0)
   1fd10:	00852e83          	lw	t4,8(a0)
   1fd14:	01035313          	srli	t1,t1,0x10
   1fd18:	01f7d793          	srli	a5,a5,0x1f
   1fd1c:	010e5e13          	srli	t3,t3,0x10
   1fd20:	00b77733          	and	a4,a4,a1
   1fd24:	01f65613          	srli	a2,a2,0x1f
   1fd28:	02b69063          	bne	a3,a1,1fd48 <__letf2+0x74>
   1fd2c:	01f865b3          	or	a1,a6,t6
   1fd30:	01d5e5b3          	or	a1,a1,t4
   1fd34:	0065e5b3          	or	a1,a1,t1
   1fd38:	00200513          	addi	a0,zero,2
   1fd3c:	0c058863          	beq	a1,zero,1fe0c <__letf2+0x138>
   1fd40:	01010113          	addi	sp,sp,16
   1fd44:	00008067          	jalr	zero,0(ra)
   1fd48:	00b71c63          	bne	a4,a1,1fd60 <__letf2+0x8c>
   1fd4c:	0058e5b3          	or	a1,a7,t0
   1fd50:	01e5e5b3          	or	a1,a1,t5
   1fd54:	01c5e5b3          	or	a1,a1,t3
   1fd58:	00200513          	addi	a0,zero,2
   1fd5c:	fe0592e3          	bne	a1,zero,1fd40 <__letf2+0x6c>
   1fd60:	0a069863          	bne	a3,zero,1fe10 <__letf2+0x13c>
   1fd64:	01f86533          	or	a0,a6,t6
   1fd68:	01d56533          	or	a0,a0,t4
   1fd6c:	00656533          	or	a0,a0,t1
   1fd70:	00153513          	sltiu	a0,a0,1
   1fd74:	00071a63          	bne	a4,zero,1fd88 <__letf2+0xb4>
   1fd78:	0058e5b3          	or	a1,a7,t0
   1fd7c:	01e5e5b3          	or	a1,a1,t5
   1fd80:	01c5e5b3          	or	a1,a1,t3
   1fd84:	06058663          	beq	a1,zero,1fdf0 <__letf2+0x11c>
   1fd88:	00051a63          	bne	a0,zero,1fd9c <__letf2+0xc8>
   1fd8c:	00c78e63          	beq	a5,a2,1fda8 <__letf2+0xd4>
   1fd90:	00100513          	addi	a0,zero,1
   1fd94:	fa0786e3          	beq	a5,zero,1fd40 <__letf2+0x6c>
   1fd98:	0080006f          	jal	zero,1fda0 <__letf2+0xcc>
   1fd9c:	fa0612e3          	bne	a2,zero,1fd40 <__letf2+0x6c>
   1fda0:	fff00513          	addi	a0,zero,-1
   1fda4:	f9dff06f          	jal	zero,1fd40 <__letf2+0x6c>
   1fda8:	fed744e3          	blt	a4,a3,1fd90 <__letf2+0xbc>
   1fdac:	00e6da63          	bge	a3,a4,1fdc0 <__letf2+0xec>
   1fdb0:	fff00513          	addi	a0,zero,-1
   1fdb4:	f80786e3          	beq	a5,zero,1fd40 <__letf2+0x6c>
   1fdb8:	00100513          	addi	a0,zero,1
   1fdbc:	f85ff06f          	jal	zero,1fd40 <__letf2+0x6c>
   1fdc0:	fc6e68e3          	bltu	t3,t1,1fd90 <__letf2+0xbc>
   1fdc4:	03c31c63          	bne	t1,t3,1fdfc <__letf2+0x128>
   1fdc8:	fddf64e3          	bltu	t5,t4,1fd90 <__letf2+0xbc>
   1fdcc:	03df1c63          	bne	t5,t4,1fe04 <__letf2+0x130>
   1fdd0:	fd08e0e3          	bltu	a7,a6,1fd90 <__letf2+0xbc>
   1fdd4:	01089463          	bne	a7,a6,1fddc <__letf2+0x108>
   1fdd8:	fbf2ece3          	bltu	t0,t6,1fd90 <__letf2+0xbc>
   1fddc:	fd186ae3          	bltu	a6,a7,1fdb0 <__letf2+0xdc>
   1fde0:	00000513          	addi	a0,zero,0
   1fde4:	f5089ee3          	bne	a7,a6,1fd40 <__letf2+0x6c>
   1fde8:	f45ffce3          	bgeu	t6,t0,1fd40 <__letf2+0x6c>
   1fdec:	fc5ff06f          	jal	zero,1fdb0 <__letf2+0xdc>
   1fdf0:	fa0500e3          	beq	a0,zero,1fd90 <__letf2+0xbc>
   1fdf4:	00000513          	addi	a0,zero,0
   1fdf8:	f49ff06f          	jal	zero,1fd40 <__letf2+0x6c>
   1fdfc:	fbc36ae3          	bltu	t1,t3,1fdb0 <__letf2+0xdc>
   1fe00:	ff5ff06f          	jal	zero,1fdf4 <__letf2+0x120>
   1fe04:	fbeee6e3          	bltu	t4,t5,1fdb0 <__letf2+0xdc>
   1fe08:	fedff06f          	jal	zero,1fdf4 <__letf2+0x120>
   1fe0c:	f4d700e3          	beq	a4,a3,1fd4c <__letf2+0x78>
   1fe10:	f6071ee3          	bne	a4,zero,1fd8c <__letf2+0xb8>
   1fe14:	00000513          	addi	a0,zero,0
   1fe18:	f61ff06f          	jal	zero,1fd78 <__letf2+0xa4>

0001fe1c <__multf3>:
   1fe1c:	f6010113          	addi	sp,sp,-160
   1fe20:	09412423          	sw	s4,136(sp)
   1fe24:	00c5aa03          	lw	s4,12(a1)
   1fe28:	0005a683          	lw	a3,0(a1)
   1fe2c:	0045a783          	lw	a5,4(a1)
   1fe30:	08812c23          	sw	s0,152(sp)
   1fe34:	00050413          	addi	s0,a0,0
   1fe38:	0085a503          	lw	a0,8(a1)
   1fe3c:	010a1713          	slli	a4,s4,0x10
   1fe40:	08912a23          	sw	s1,148(sp)
   1fe44:	09312623          	sw	s3,140(sp)
   1fe48:	09512223          	sw	s5,132(sp)
   1fe4c:	09612023          	sw	s6,128(sp)
   1fe50:	00062483          	lw	s1,0(a2)
   1fe54:	00462b03          	lw	s6,4(a2)
   1fe58:	00862a83          	lw	s5,8(a2)
   1fe5c:	00c62983          	lw	s3,12(a2)
   1fe60:	00008637          	lui	a2,0x8
   1fe64:	09212823          	sw	s2,144(sp)
   1fe68:	01075713          	srli	a4,a4,0x10
   1fe6c:	010a5913          	srli	s2,s4,0x10
   1fe70:	fff60613          	addi	a2,a2,-1 # 7fff <main-0x8075>
   1fe74:	05412623          	sw	s4,76(sp)
   1fe78:	08112e23          	sw	ra,156(sp)
   1fe7c:	07712e23          	sw	s7,124(sp)
   1fe80:	07812c23          	sw	s8,120(sp)
   1fe84:	07912a23          	sw	s9,116(sp)
   1fe88:	07a12823          	sw	s10,112(sp)
   1fe8c:	07b12623          	sw	s11,108(sp)
   1fe90:	04d12023          	sw	a3,64(sp)
   1fe94:	04f12223          	sw	a5,68(sp)
   1fe98:	04a12423          	sw	a0,72(sp)
   1fe9c:	00d12823          	sw	a3,16(sp)
   1fea0:	00f12a23          	sw	a5,20(sp)
   1fea4:	00a12c23          	sw	a0,24(sp)
   1fea8:	00e12e23          	sw	a4,28(sp)
   1feac:	00c97933          	and	s2,s2,a2
   1feb0:	01fa5a13          	srli	s4,s4,0x1f
   1feb4:	12090463          	beq	s2,zero,1ffdc <__multf3+0x1c0>
   1feb8:	24c90063          	beq	s2,a2,200f8 <__multf3+0x2dc>
   1febc:	000107b7          	lui	a5,0x10
   1fec0:	00f767b3          	or	a5,a4,a5
   1fec4:	00f12e23          	sw	a5,28(sp)
   1fec8:	01010613          	addi	a2,sp,16
   1fecc:	01c10793          	addi	a5,sp,28
   1fed0:	0007a703          	lw	a4,0(a5) # 10000 <main-0x74>
   1fed4:	ffc7a683          	lw	a3,-4(a5)
   1fed8:	ffc78793          	addi	a5,a5,-4
   1fedc:	00371713          	slli	a4,a4,0x3
   1fee0:	01d6d693          	srli	a3,a3,0x1d
   1fee4:	00d76733          	or	a4,a4,a3
   1fee8:	00e7a223          	sw	a4,4(a5)
   1feec:	fef612e3          	bne	a2,a5,1fed0 <__multf3+0xb4>
   1fef0:	01012783          	lw	a5,16(sp)
   1fef4:	ffffc537          	lui	a0,0xffffc
   1fef8:	00150513          	addi	a0,a0,1 # ffffc001 <__BSS_END__+0xfffd6409>
   1fefc:	00379793          	slli	a5,a5,0x3
   1ff00:	00f12823          	sw	a5,16(sp)
   1ff04:	00a90933          	add	s2,s2,a0
   1ff08:	00000c13          	addi	s8,zero,0
   1ff0c:	01099513          	slli	a0,s3,0x10
   1ff10:	00008737          	lui	a4,0x8
   1ff14:	0109d793          	srli	a5,s3,0x10
   1ff18:	01055513          	srli	a0,a0,0x10
   1ff1c:	fff70713          	addi	a4,a4,-1 # 7fff <main-0x8075>
   1ff20:	05312623          	sw	s3,76(sp)
   1ff24:	04912023          	sw	s1,64(sp)
   1ff28:	05612223          	sw	s6,68(sp)
   1ff2c:	05512423          	sw	s5,72(sp)
   1ff30:	02912023          	sw	s1,32(sp)
   1ff34:	03612223          	sw	s6,36(sp)
   1ff38:	03512423          	sw	s5,40(sp)
   1ff3c:	02a12623          	sw	a0,44(sp)
   1ff40:	00e7f7b3          	and	a5,a5,a4
   1ff44:	01f9d993          	srli	s3,s3,0x1f
   1ff48:	1c078c63          	beq	a5,zero,20120 <__multf3+0x304>
   1ff4c:	2ee78863          	beq	a5,a4,2023c <__multf3+0x420>
   1ff50:	00010ab7          	lui	s5,0x10
   1ff54:	01556ab3          	or	s5,a0,s5
   1ff58:	03512623          	sw	s5,44(sp)
   1ff5c:	02010593          	addi	a1,sp,32
   1ff60:	02c10713          	addi	a4,sp,44
   1ff64:	00072683          	lw	a3,0(a4)
   1ff68:	ffc72603          	lw	a2,-4(a4)
   1ff6c:	ffc70713          	addi	a4,a4,-4
   1ff70:	00369693          	slli	a3,a3,0x3
   1ff74:	01d65613          	srli	a2,a2,0x1d
   1ff78:	00c6e6b3          	or	a3,a3,a2
   1ff7c:	00d72223          	sw	a3,4(a4)
   1ff80:	fee592e3          	bne	a1,a4,1ff64 <__multf3+0x148>
   1ff84:	02012703          	lw	a4,32(sp)
   1ff88:	ffffc537          	lui	a0,0xffffc
   1ff8c:	00150513          	addi	a0,a0,1 # ffffc001 <__BSS_END__+0xfffd6409>
   1ff90:	00371713          	slli	a4,a4,0x3
   1ff94:	02e12023          	sw	a4,32(sp)
   1ff98:	00a787b3          	add	a5,a5,a0
   1ff9c:	00000713          	addi	a4,zero,0
   1ffa0:	00f907b3          	add	a5,s2,a5
   1ffa4:	00f12423          	sw	a5,8(sp)
   1ffa8:	00178b93          	addi	s7,a5,1
   1ffac:	002c1793          	slli	a5,s8,0x2
   1ffb0:	00e7e7b3          	or	a5,a5,a4
   1ffb4:	fff78793          	addi	a5,a5,-1
   1ffb8:	00e00693          	addi	a3,zero,14
   1ffbc:	013a44b3          	xor	s1,s4,s3
   1ffc0:	2af6e263          	bltu	a3,a5,20264 <__multf3+0x448>
   1ffc4:	000246b7          	lui	a3,0x24
   1ffc8:	00279793          	slli	a5,a5,0x2
   1ffcc:	fd868693          	addi	a3,a3,-40 # 23fd8 <zeroes.4476+0x88>
   1ffd0:	00d787b3          	add	a5,a5,a3
   1ffd4:	0007a783          	lw	a5,0(a5)
   1ffd8:	00078067          	jalr	zero,0(a5)
   1ffdc:	00d7e633          	or	a2,a5,a3
   1ffe0:	00a66633          	or	a2,a2,a0
   1ffe4:	00e66633          	or	a2,a2,a4
   1ffe8:	12060663          	beq	a2,zero,20114 <__multf3+0x2f8>
   1ffec:	06070063          	beq	a4,zero,2004c <__multf3+0x230>
   1fff0:	00070513          	addi	a0,a4,0
   1fff4:	018030ef          	jal	ra,2300c <__clzsi2>
   1fff8:	ff450693          	addi	a3,a0,-12
   1fffc:	4056d713          	srai	a4,a3,0x5
   20000:	01f6f693          	andi	a3,a3,31
   20004:	40e007b3          	sub	a5,zero,a4
   20008:	06068c63          	beq	a3,zero,20080 <__multf3+0x264>
   2000c:	00279793          	slli	a5,a5,0x2
   20010:	01010313          	addi	t1,sp,16
   20014:	00c78793          	addi	a5,a5,12
   20018:	02000813          	addi	a6,zero,32
   2001c:	00f307b3          	add	a5,t1,a5
   20020:	00271593          	slli	a1,a4,0x2
   20024:	40d80833          	sub	a6,a6,a3
   20028:	08f31263          	bne	t1,a5,200ac <__multf3+0x290>
   2002c:	fff70793          	addi	a5,a4,-1
   20030:	06010713          	addi	a4,sp,96
   20034:	00b705b3          	add	a1,a4,a1
   20038:	01012703          	lw	a4,16(sp)
   2003c:	00d716b3          	sll	a3,a4,a3
   20040:	fad5a823          	sw	a3,-80(a1)
   20044:	fff00693          	addi	a3,zero,-1
   20048:	09c0006f          	jal	zero,200e4 <__multf3+0x2c8>
   2004c:	00050863          	beq	a0,zero,2005c <__multf3+0x240>
   20050:	7bd020ef          	jal	ra,2300c <__clzsi2>
   20054:	02050513          	addi	a0,a0,32
   20058:	fa1ff06f          	jal	zero,1fff8 <__multf3+0x1dc>
   2005c:	00078a63          	beq	a5,zero,20070 <__multf3+0x254>
   20060:	00078513          	addi	a0,a5,0
   20064:	7a9020ef          	jal	ra,2300c <__clzsi2>
   20068:	04050513          	addi	a0,a0,64
   2006c:	f8dff06f          	jal	zero,1fff8 <__multf3+0x1dc>
   20070:	00068513          	addi	a0,a3,0
   20074:	799020ef          	jal	ra,2300c <__clzsi2>
   20078:	06050513          	addi	a0,a0,96
   2007c:	f7dff06f          	jal	zero,1fff8 <__multf3+0x1dc>
   20080:	01c10693          	addi	a3,sp,28
   20084:	00279793          	slli	a5,a5,0x2
   20088:	00300613          	addi	a2,zero,3
   2008c:	00f685b3          	add	a1,a3,a5
   20090:	0005a583          	lw	a1,0(a1)
   20094:	fff60613          	addi	a2,a2,-1
   20098:	ffc68693          	addi	a3,a3,-4
   2009c:	00b6a223          	sw	a1,4(a3)
   200a0:	fee656e3          	bge	a2,a4,2008c <__multf3+0x270>
   200a4:	fff70793          	addi	a5,a4,-1
   200a8:	f9dff06f          	jal	zero,20044 <__multf3+0x228>
   200ac:	ffc7a603          	lw	a2,-4(a5)
   200b0:	0007a883          	lw	a7,0(a5)
   200b4:	00b78e33          	add	t3,a5,a1
   200b8:	01065633          	srl	a2,a2,a6
   200bc:	00d898b3          	sll	a7,a7,a3
   200c0:	01166633          	or	a2,a2,a7
   200c4:	00ce2023          	sw	a2,0(t3)
   200c8:	ffc78793          	addi	a5,a5,-4
   200cc:	f5dff06f          	jal	zero,20028 <__multf3+0x20c>
   200d0:	00279713          	slli	a4,a5,0x2
   200d4:	01010613          	addi	a2,sp,16
   200d8:	00e60733          	add	a4,a2,a4
   200dc:	00072023          	sw	zero,0(a4)
   200e0:	fff78793          	addi	a5,a5,-1
   200e4:	fed796e3          	bne	a5,a3,200d0 <__multf3+0x2b4>
   200e8:	ffffc937          	lui	s2,0xffffc
   200ec:	01190913          	addi	s2,s2,17 # ffffc011 <__BSS_END__+0xfffd6419>
   200f0:	40a90933          	sub	s2,s2,a0
   200f4:	e15ff06f          	jal	zero,1ff08 <__multf3+0xec>
   200f8:	00d7e7b3          	or	a5,a5,a3
   200fc:	00a7e7b3          	or	a5,a5,a0
   20100:	00e7e7b3          	or	a5,a5,a4
   20104:	00300c13          	addi	s8,zero,3
   20108:	e00792e3          	bne	a5,zero,1ff0c <__multf3+0xf0>
   2010c:	00200c13          	addi	s8,zero,2
   20110:	dfdff06f          	jal	zero,1ff0c <__multf3+0xf0>
   20114:	00000913          	addi	s2,zero,0
   20118:	00100c13          	addi	s8,zero,1
   2011c:	df1ff06f          	jal	zero,1ff0c <__multf3+0xf0>
   20120:	0164e7b3          	or	a5,s1,s6
   20124:	0157e7b3          	or	a5,a5,s5
   20128:	00a7e7b3          	or	a5,a5,a0
   2012c:	12078663          	beq	a5,zero,20258 <__multf3+0x43c>
   20130:	04050e63          	beq	a0,zero,2018c <__multf3+0x370>
   20134:	6d9020ef          	jal	ra,2300c <__clzsi2>
   20138:	ff450613          	addi	a2,a0,-12
   2013c:	40565693          	srai	a3,a2,0x5
   20140:	01f67613          	andi	a2,a2,31
   20144:	40d00733          	sub	a4,zero,a3
   20148:	06060e63          	beq	a2,zero,201c4 <__multf3+0x3a8>
   2014c:	00271713          	slli	a4,a4,0x2
   20150:	02010313          	addi	t1,sp,32
   20154:	00c70713          	addi	a4,a4,12
   20158:	02000793          	addi	a5,zero,32
   2015c:	00e30733          	add	a4,t1,a4
   20160:	00269813          	slli	a6,a3,0x2
   20164:	40c787b3          	sub	a5,a5,a2
   20168:	08e31463          	bne	t1,a4,201f0 <__multf3+0x3d4>
   2016c:	06010793          	addi	a5,sp,96
   20170:	01078833          	add	a6,a5,a6
   20174:	02012783          	lw	a5,32(sp)
   20178:	fff68713          	addi	a4,a3,-1
   2017c:	00c79633          	sll	a2,a5,a2
   20180:	fcc82023          	sw	a2,-64(a6)
   20184:	fff00693          	addi	a3,zero,-1
   20188:	0a00006f          	jal	zero,20228 <__multf3+0x40c>
   2018c:	000a8a63          	beq	s5,zero,201a0 <__multf3+0x384>
   20190:	000a8513          	addi	a0,s5,0 # 10000 <main-0x74>
   20194:	679020ef          	jal	ra,2300c <__clzsi2>
   20198:	02050513          	addi	a0,a0,32
   2019c:	f9dff06f          	jal	zero,20138 <__multf3+0x31c>
   201a0:	000b0a63          	beq	s6,zero,201b4 <__multf3+0x398>
   201a4:	000b0513          	addi	a0,s6,0
   201a8:	665020ef          	jal	ra,2300c <__clzsi2>
   201ac:	04050513          	addi	a0,a0,64
   201b0:	f89ff06f          	jal	zero,20138 <__multf3+0x31c>
   201b4:	00048513          	addi	a0,s1,0
   201b8:	655020ef          	jal	ra,2300c <__clzsi2>
   201bc:	06050513          	addi	a0,a0,96
   201c0:	f79ff06f          	jal	zero,20138 <__multf3+0x31c>
   201c4:	02c10613          	addi	a2,sp,44
   201c8:	00271713          	slli	a4,a4,0x2
   201cc:	00300793          	addi	a5,zero,3
   201d0:	00e605b3          	add	a1,a2,a4
   201d4:	0005a583          	lw	a1,0(a1)
   201d8:	fff78793          	addi	a5,a5,-1
   201dc:	ffc60613          	addi	a2,a2,-4
   201e0:	00b62223          	sw	a1,4(a2)
   201e4:	fed7d6e3          	bge	a5,a3,201d0 <__multf3+0x3b4>
   201e8:	fff68713          	addi	a4,a3,-1
   201ec:	f99ff06f          	jal	zero,20184 <__multf3+0x368>
   201f0:	ffc72583          	lw	a1,-4(a4)
   201f4:	00072883          	lw	a7,0(a4)
   201f8:	01070e33          	add	t3,a4,a6
   201fc:	00f5d5b3          	srl	a1,a1,a5
   20200:	00c898b3          	sll	a7,a7,a2
   20204:	0115e5b3          	or	a1,a1,a7
   20208:	00be2023          	sw	a1,0(t3)
   2020c:	ffc70713          	addi	a4,a4,-4
   20210:	f59ff06f          	jal	zero,20168 <__multf3+0x34c>
   20214:	00271793          	slli	a5,a4,0x2
   20218:	02010613          	addi	a2,sp,32
   2021c:	00f607b3          	add	a5,a2,a5
   20220:	0007a023          	sw	zero,0(a5)
   20224:	fff70713          	addi	a4,a4,-1
   20228:	fed716e3          	bne	a4,a3,20214 <__multf3+0x3f8>
   2022c:	ffffc7b7          	lui	a5,0xffffc
   20230:	01178793          	addi	a5,a5,17 # ffffc011 <__BSS_END__+0xfffd6419>
   20234:	40a787b3          	sub	a5,a5,a0
   20238:	d65ff06f          	jal	zero,1ff9c <__multf3+0x180>
   2023c:	0164e4b3          	or	s1,s1,s6
   20240:	0154eab3          	or	s5,s1,s5
   20244:	00aaeab3          	or	s5,s5,a0
   20248:	00300713          	addi	a4,zero,3
   2024c:	d40a9ae3          	bne	s5,zero,1ffa0 <__multf3+0x184>
   20250:	00200713          	addi	a4,zero,2
   20254:	d4dff06f          	jal	zero,1ffa0 <__multf3+0x184>
   20258:	00000793          	addi	a5,zero,0
   2025c:	00100713          	addi	a4,zero,1
   20260:	d41ff06f          	jal	zero,1ffa0 <__multf3+0x184>
   20264:	01012283          	lw	t0,16(sp)
   20268:	02012f83          	lw	t6,32(sp)
   2026c:	00010337          	lui	t1,0x10
   20270:	fff30793          	addi	a5,t1,-1 # ffff <main-0x75>
   20274:	00f2f8b3          	and	a7,t0,a5
   20278:	00fff7b3          	and	a5,t6,a5
   2027c:	0102de13          	srli	t3,t0,0x10
   20280:	010fd713          	srli	a4,t6,0x10
   20284:	00088513          	addi	a0,a7,0
   20288:	00078593          	addi	a1,a5,0
   2028c:	4a9020ef          	jal	ra,22f34 <__mulsi3>
   20290:	00050813          	addi	a6,a0,0
   20294:	00070593          	addi	a1,a4,0
   20298:	00088513          	addi	a0,a7,0
   2029c:	499020ef          	jal	ra,22f34 <__mulsi3>
   202a0:	00050893          	addi	a7,a0,0
   202a4:	00078593          	addi	a1,a5,0
   202a8:	000e0513          	addi	a0,t3,0
   202ac:	489020ef          	jal	ra,22f34 <__mulsi3>
   202b0:	00050793          	addi	a5,a0,0
   202b4:	00070593          	addi	a1,a4,0
   202b8:	000e0513          	addi	a0,t3,0
   202bc:	479020ef          	jal	ra,22f34 <__mulsi3>
   202c0:	01085713          	srli	a4,a6,0x10
   202c4:	00f888b3          	add	a7,a7,a5
   202c8:	01170733          	add	a4,a4,a7
   202cc:	00f77463          	bgeu	a4,a5,202d4 <__multf3+0x4b8>
   202d0:	00650533          	add	a0,a0,t1
   202d4:	01075793          	srli	a5,a4,0x10
   202d8:	00a787b3          	add	a5,a5,a0
   202dc:	00010e37          	lui	t3,0x10
   202e0:	02412e83          	lw	t4,36(sp)
   202e4:	04f12223          	sw	a5,68(sp)
   202e8:	fffe0793          	addi	a5,t3,-1 # ffff <main-0x75>
   202ec:	00f77733          	and	a4,a4,a5
   202f0:	00f87833          	and	a6,a6,a5
   202f4:	01071713          	slli	a4,a4,0x10
   202f8:	01070733          	add	a4,a4,a6
   202fc:	00feff33          	and	t5,t4,a5
   20300:	00f2f833          	and	a6,t0,a5
   20304:	04e12023          	sw	a4,64(sp)
   20308:	0102d313          	srli	t1,t0,0x10
   2030c:	010ed713          	srli	a4,t4,0x10
   20310:	00080513          	addi	a0,a6,0
   20314:	000f0593          	addi	a1,t5,0
   20318:	41d020ef          	jal	ra,22f34 <__mulsi3>
   2031c:	00050893          	addi	a7,a0,0
   20320:	00070593          	addi	a1,a4,0
   20324:	00080513          	addi	a0,a6,0
   20328:	40d020ef          	jal	ra,22f34 <__mulsi3>
   2032c:	00050813          	addi	a6,a0,0
   20330:	000f0593          	addi	a1,t5,0
   20334:	00030513          	addi	a0,t1,0
   20338:	3fd020ef          	jal	ra,22f34 <__mulsi3>
   2033c:	00050f13          	addi	t5,a0,0
   20340:	00070593          	addi	a1,a4,0
   20344:	00030513          	addi	a0,t1,0
   20348:	3ed020ef          	jal	ra,22f34 <__mulsi3>
   2034c:	0108d713          	srli	a4,a7,0x10
   20350:	01e80833          	add	a6,a6,t5
   20354:	01070733          	add	a4,a4,a6
   20358:	00050c13          	addi	s8,a0,0
   2035c:	01e77463          	bgeu	a4,t5,20364 <__multf3+0x548>
   20360:	01c50c33          	add	s8,a0,t3
   20364:	01412f03          	lw	t5,20(sp)
   20368:	00f77833          	and	a6,a4,a5
   2036c:	00f8f8b3          	and	a7,a7,a5
   20370:	01081813          	slli	a6,a6,0x10
   20374:	01075693          	srli	a3,a4,0x10
   20378:	01180833          	add	a6,a6,a7
   2037c:	00ff78b3          	and	a7,t5,a5
   20380:	00fff7b3          	and	a5,t6,a5
   20384:	00d12623          	sw	a3,12(sp)
   20388:	010f5393          	srli	t2,t5,0x10
   2038c:	010fd713          	srli	a4,t6,0x10
   20390:	00088513          	addi	a0,a7,0
   20394:	00078593          	addi	a1,a5,0
   20398:	39d020ef          	jal	ra,22f34 <__mulsi3>
   2039c:	00050313          	addi	t1,a0,0
   203a0:	00070593          	addi	a1,a4,0
   203a4:	00088513          	addi	a0,a7,0
   203a8:	38d020ef          	jal	ra,22f34 <__mulsi3>
   203ac:	00050893          	addi	a7,a0,0
   203b0:	00078593          	addi	a1,a5,0
   203b4:	00038513          	addi	a0,t2,0
   203b8:	37d020ef          	jal	ra,22f34 <__mulsi3>
   203bc:	00050e13          	addi	t3,a0,0
   203c0:	00070593          	addi	a1,a4,0
   203c4:	00038513          	addi	a0,t2,0
   203c8:	36d020ef          	jal	ra,22f34 <__mulsi3>
   203cc:	01035793          	srli	a5,t1,0x10
   203d0:	01c888b3          	add	a7,a7,t3
   203d4:	011787b3          	add	a5,a5,a7
   203d8:	01c7f663          	bgeu	a5,t3,203e4 <__multf3+0x5c8>
   203dc:	00010737          	lui	a4,0x10
   203e0:	00e50533          	add	a0,a0,a4
   203e4:	000103b7          	lui	t2,0x10
   203e8:	fff38713          	addi	a4,t2,-1 # ffff <main-0x75>
   203ec:	00e7f8b3          	and	a7,a5,a4
   203f0:	0107da13          	srli	s4,a5,0x10
   203f4:	00aa0a33          	add	s4,s4,a0
   203f8:	00ef77b3          	and	a5,t5,a4
   203fc:	00e37533          	and	a0,t1,a4
   20400:	01089893          	slli	a7,a7,0x10
   20404:	00eef733          	and	a4,t4,a4
   20408:	00a888b3          	add	a7,a7,a0
   2040c:	010f5913          	srli	s2,t5,0x10
   20410:	010ede13          	srli	t3,t4,0x10
   20414:	00078513          	addi	a0,a5,0
   20418:	00070593          	addi	a1,a4,0 # 10000 <main-0x74>
   2041c:	319020ef          	jal	ra,22f34 <__mulsi3>
   20420:	00050313          	addi	t1,a0,0
   20424:	000e0593          	addi	a1,t3,0
   20428:	00078513          	addi	a0,a5,0
   2042c:	309020ef          	jal	ra,22f34 <__mulsi3>
   20430:	00050993          	addi	s3,a0,0
   20434:	00070593          	addi	a1,a4,0
   20438:	00090513          	addi	a0,s2,0
   2043c:	2f9020ef          	jal	ra,22f34 <__mulsi3>
   20440:	00050713          	addi	a4,a0,0
   20444:	000e0593          	addi	a1,t3,0
   20448:	00090513          	addi	a0,s2,0
   2044c:	2e9020ef          	jal	ra,22f34 <__mulsi3>
   20450:	01035793          	srli	a5,t1,0x10
   20454:	00e989b3          	add	s3,s3,a4
   20458:	013787b3          	add	a5,a5,s3
   2045c:	00e7f463          	bgeu	a5,a4,20464 <__multf3+0x648>
   20460:	00750533          	add	a0,a0,t2
   20464:	000103b7          	lui	t2,0x10
   20468:	fff38593          	addi	a1,t2,-1 # ffff <main-0x75>
   2046c:	00b7f733          	and	a4,a5,a1
   20470:	00b37333          	and	t1,t1,a1
   20474:	01071713          	slli	a4,a4,0x10
   20478:	00670733          	add	a4,a4,t1
   2047c:	02812303          	lw	t1,40(sp)
   20480:	0107d993          	srli	s3,a5,0x10
   20484:	00b2f7b3          	and	a5,t0,a1
   20488:	00b37ab3          	and	s5,t1,a1
   2048c:	00a989b3          	add	s3,s3,a0
   20490:	0102d913          	srli	s2,t0,0x10
   20494:	01035b13          	srli	s6,t1,0x10
   20498:	00078513          	addi	a0,a5,0
   2049c:	000a8593          	addi	a1,s5,0
   204a0:	295020ef          	jal	ra,22f34 <__mulsi3>
   204a4:	00050e13          	addi	t3,a0,0
   204a8:	000b0593          	addi	a1,s6,0
   204ac:	00078513          	addi	a0,a5,0
   204b0:	285020ef          	jal	ra,22f34 <__mulsi3>
   204b4:	00050793          	addi	a5,a0,0
   204b8:	000a8593          	addi	a1,s5,0
   204bc:	00090513          	addi	a0,s2,0
   204c0:	275020ef          	jal	ra,22f34 <__mulsi3>
   204c4:	00050a93          	addi	s5,a0,0
   204c8:	000b0593          	addi	a1,s6,0
   204cc:	00090513          	addi	a0,s2,0
   204d0:	265020ef          	jal	ra,22f34 <__mulsi3>
   204d4:	010e5693          	srli	a3,t3,0x10
   204d8:	015787b3          	add	a5,a5,s5
   204dc:	00f686b3          	add	a3,a3,a5
   204e0:	0156f463          	bgeu	a3,s5,204e8 <__multf3+0x6cc>
   204e4:	00750533          	add	a0,a0,t2
   204e8:	00010d37          	lui	s10,0x10
   204ec:	fffd0393          	addi	t2,s10,-1 # ffff <main-0x75>
   204f0:	0076f7b3          	and	a5,a3,t2
   204f4:	007e7e33          	and	t3,t3,t2
   204f8:	01079793          	slli	a5,a5,0x10
   204fc:	01c787b3          	add	a5,a5,t3
   20500:	01812e03          	lw	t3,24(sp)
   20504:	0106d913          	srli	s2,a3,0x10
   20508:	00a90933          	add	s2,s2,a0
   2050c:	007e7cb3          	and	s9,t3,t2
   20510:	007ff3b3          	and	t2,t6,t2
   20514:	010e5d93          	srli	s11,t3,0x10
   20518:	010fdb13          	srli	s6,t6,0x10
   2051c:	000c8513          	addi	a0,s9,0
   20520:	00038593          	addi	a1,t2,0
   20524:	211020ef          	jal	ra,22f34 <__mulsi3>
   20528:	00050a93          	addi	s5,a0,0
   2052c:	000b0593          	addi	a1,s6,0
   20530:	000c8513          	addi	a0,s9,0
   20534:	201020ef          	jal	ra,22f34 <__mulsi3>
   20538:	00050c93          	addi	s9,a0,0
   2053c:	00038593          	addi	a1,t2,0
   20540:	000d8513          	addi	a0,s11,0
   20544:	1f1020ef          	jal	ra,22f34 <__mulsi3>
   20548:	00050393          	addi	t2,a0,0
   2054c:	000b0593          	addi	a1,s6,0
   20550:	000d8513          	addi	a0,s11,0
   20554:	1e1020ef          	jal	ra,22f34 <__mulsi3>
   20558:	010ad613          	srli	a2,s5,0x10
   2055c:	007c8cb3          	add	s9,s9,t2
   20560:	01960cb3          	add	s9,a2,s9
   20564:	007cf463          	bgeu	s9,t2,2056c <__multf3+0x750>
   20568:	01a50533          	add	a0,a0,s10
   2056c:	04412603          	lw	a2,68(sp)
   20570:	010cd693          	srli	a3,s9,0x10
   20574:	00a686b3          	add	a3,a3,a0
   20578:	00c12503          	lw	a0,12(sp)
   2057c:	00c80633          	add	a2,a6,a2
   20580:	010630b3          	sltu	ra,a2,a6
   20584:	00150833          	add	a6,a0,ra
   20588:	000103b7          	lui	t2,0x10
   2058c:	fff38593          	addi	a1,t2,-1 # ffff <main-0x75>
   20590:	01880c33          	add	s8,a6,s8
   20594:	01160633          	add	a2,a2,a7
   20598:	011638b3          	sltu	a7,a2,a7
   2059c:	014c0533          	add	a0,s8,s4
   205a0:	00bcfcb3          	and	s9,s9,a1
   205a4:	01150833          	add	a6,a0,a7
   205a8:	00bafab3          	and	s5,s5,a1
   205ac:	010c9c93          	slli	s9,s9,0x10
   205b0:	015c8cb3          	add	s9,s9,s5
   205b4:	01453533          	sltu	a0,a0,s4
   205b8:	00e80ab3          	add	s5,a6,a4
   205bc:	01183833          	sltu	a6,a6,a7
   205c0:	001c3c33          	sltu	s8,s8,ra
   205c4:	01056833          	or	a6,a0,a6
   205c8:	01880833          	add	a6,a6,s8
   205cc:	00eab733          	sltu	a4,s5,a4
   205d0:	01380833          	add	a6,a6,s3
   205d4:	00e800b3          	add	ra,a6,a4
   205d8:	00fa8ab3          	add	s5,s5,a5
   205dc:	01208533          	add	a0,ra,s2
   205e0:	00fab7b3          	sltu	a5,s5,a5
   205e4:	00f508b3          	add	a7,a0,a5
   205e8:	019a8ab3          	add	s5,s5,s9
   205ec:	04c12223          	sw	a2,68(sp)
   205f0:	05512423          	sw	s5,72(sp)
   205f4:	00d88633          	add	a2,a7,a3
   205f8:	019abab3          	sltu	s5,s5,s9
   205fc:	01560a33          	add	s4,a2,s5
   20600:	00f8b7b3          	sltu	a5,a7,a5
   20604:	01383833          	sltu	a6,a6,s3
   20608:	00e0b733          	sltu	a4,ra,a4
   2060c:	01253533          	sltu	a0,a0,s2
   20610:	00f56533          	or	a0,a0,a5
   20614:	00e86833          	or	a6,a6,a4
   20618:	00d636b3          	sltu	a3,a2,a3
   2061c:	015a3ab3          	sltu	s5,s4,s5
   20620:	00a80833          	add	a6,a6,a0
   20624:	0156eab3          	or	s5,a3,s5
   20628:	01580ab3          	add	s5,a6,s5
   2062c:	02c12803          	lw	a6,44(sp)
   20630:	0102d913          	srli	s2,t0,0x10
   20634:	00b2f2b3          	and	t0,t0,a1
   20638:	00b877b3          	and	a5,a6,a1
   2063c:	05412623          	sw	s4,76(sp)
   20640:	05512823          	sw	s5,80(sp)
   20644:	01085893          	srli	a7,a6,0x10
   20648:	00028513          	addi	a0,t0,0
   2064c:	00078593          	addi	a1,a5,0
   20650:	0e5020ef          	jal	ra,22f34 <__mulsi3>
   20654:	00050c93          	addi	s9,a0,0
   20658:	00088593          	addi	a1,a7,0
   2065c:	00028513          	addi	a0,t0,0
   20660:	0d5020ef          	jal	ra,22f34 <__mulsi3>
   20664:	00050713          	addi	a4,a0,0
   20668:	00078593          	addi	a1,a5,0
   2066c:	00090513          	addi	a0,s2,0
   20670:	0c5020ef          	jal	ra,22f34 <__mulsi3>
   20674:	00050793          	addi	a5,a0,0
   20678:	00088593          	addi	a1,a7,0
   2067c:	00090513          	addi	a0,s2,0
   20680:	0b5020ef          	jal	ra,22f34 <__mulsi3>
   20684:	010cd613          	srli	a2,s9,0x10
   20688:	00f70733          	add	a4,a4,a5
   2068c:	00e60633          	add	a2,a2,a4
   20690:	00f67463          	bgeu	a2,a5,20698 <__multf3+0x87c>
   20694:	00750533          	add	a0,a0,t2
   20698:	01c12883          	lw	a7,28(sp)
   2069c:	00010737          	lui	a4,0x10
   206a0:	fff70793          	addi	a5,a4,-1 # ffff <main-0x75>
   206a4:	01065a13          	srli	s4,a2,0x10
   206a8:	00f67633          	and	a2,a2,a5
   206ac:	01061613          	slli	a2,a2,0x10
   206b0:	00fcfcb3          	and	s9,s9,a5
   206b4:	010fd293          	srli	t0,t6,0x10
   206b8:	00f8f933          	and	s2,a7,a5
   206bc:	00ffffb3          	and	t6,t6,a5
   206c0:	00aa0a33          	add	s4,s4,a0
   206c4:	01960cb3          	add	s9,a2,s9
   206c8:	0108d393          	srli	t2,a7,0x10
   206cc:	00090513          	addi	a0,s2,0
   206d0:	000f8593          	addi	a1,t6,0
   206d4:	061020ef          	jal	ra,22f34 <__mulsi3>
   206d8:	00050b13          	addi	s6,a0,0
   206dc:	00028593          	addi	a1,t0,0
   206e0:	00090513          	addi	a0,s2,0
   206e4:	051020ef          	jal	ra,22f34 <__mulsi3>
   206e8:	00050793          	addi	a5,a0,0
   206ec:	000f8593          	addi	a1,t6,0
   206f0:	00038513          	addi	a0,t2,0
   206f4:	041020ef          	jal	ra,22f34 <__mulsi3>
   206f8:	00050f93          	addi	t6,a0,0
   206fc:	00028593          	addi	a1,t0,0
   20700:	00038513          	addi	a0,t2,0
   20704:	031020ef          	jal	ra,22f34 <__mulsi3>
   20708:	010b5693          	srli	a3,s6,0x10
   2070c:	01f787b3          	add	a5,a5,t6
   20710:	00f686b3          	add	a3,a3,a5
   20714:	01f6f463          	bgeu	a3,t6,2071c <__multf3+0x900>
   20718:	00e50533          	add	a0,a0,a4
   2071c:	000102b7          	lui	t0,0x10
   20720:	fff28793          	addi	a5,t0,-1 # ffff <main-0x75>
   20724:	0106d993          	srli	s3,a3,0x10
   20728:	00f6f6b3          	and	a3,a3,a5
   2072c:	00ff7733          	and	a4,t5,a5
   20730:	01069693          	slli	a3,a3,0x10
   20734:	00fb7b33          	and	s6,s6,a5
   20738:	00f377b3          	and	a5,t1,a5
   2073c:	00a989b3          	add	s3,s3,a0
   20740:	01668b33          	add	s6,a3,s6
   20744:	010f5913          	srli	s2,t5,0x10
   20748:	01035393          	srli	t2,t1,0x10
   2074c:	00070513          	addi	a0,a4,0
   20750:	00078593          	addi	a1,a5,0
   20754:	7e0020ef          	jal	ra,22f34 <__mulsi3>
   20758:	00050f93          	addi	t6,a0,0
   2075c:	00038593          	addi	a1,t2,0
   20760:	00070513          	addi	a0,a4,0
   20764:	7d0020ef          	jal	ra,22f34 <__mulsi3>
   20768:	00050713          	addi	a4,a0,0
   2076c:	00078593          	addi	a1,a5,0
   20770:	00090513          	addi	a0,s2,0
   20774:	7c0020ef          	jal	ra,22f34 <__mulsi3>
   20778:	00050a93          	addi	s5,a0,0
   2077c:	00038593          	addi	a1,t2,0
   20780:	00090513          	addi	a0,s2,0
   20784:	7b0020ef          	jal	ra,22f34 <__mulsi3>
   20788:	010fd793          	srli	a5,t6,0x10
   2078c:	01570733          	add	a4,a4,s5
   20790:	00e787b3          	add	a5,a5,a4
   20794:	0157f463          	bgeu	a5,s5,2079c <__multf3+0x980>
   20798:	00550533          	add	a0,a0,t0
   2079c:	000103b7          	lui	t2,0x10
   207a0:	fff38693          	addi	a3,t2,-1 # ffff <main-0x75>
   207a4:	00d7f733          	and	a4,a5,a3
   207a8:	0107d913          	srli	s2,a5,0x10
   207ac:	00dfffb3          	and	t6,t6,a3
   207b0:	00de72b3          	and	t0,t3,a3
   207b4:	00defab3          	and	s5,t4,a3
   207b8:	01071713          	slli	a4,a4,0x10
   207bc:	00a90933          	add	s2,s2,a0
   207c0:	01f70733          	add	a4,a4,t6
   207c4:	010e5793          	srli	a5,t3,0x10
   207c8:	010edc13          	srli	s8,t4,0x10
   207cc:	00028513          	addi	a0,t0,0
   207d0:	000a8593          	addi	a1,s5,0
   207d4:	760020ef          	jal	ra,22f34 <__mulsi3>
   207d8:	00050f93          	addi	t6,a0,0
   207dc:	000c0593          	addi	a1,s8,0
   207e0:	00028513          	addi	a0,t0,0
   207e4:	750020ef          	jal	ra,22f34 <__mulsi3>
   207e8:	00050293          	addi	t0,a0,0
   207ec:	000a8593          	addi	a1,s5,0
   207f0:	00078513          	addi	a0,a5,0
   207f4:	740020ef          	jal	ra,22f34 <__mulsi3>
   207f8:	00050a93          	addi	s5,a0,0
   207fc:	000c0593          	addi	a1,s8,0
   20800:	00078513          	addi	a0,a5,0
   20804:	730020ef          	jal	ra,22f34 <__mulsi3>
   20808:	015286b3          	add	a3,t0,s5
   2080c:	010fd293          	srli	t0,t6,0x10
   20810:	005686b3          	add	a3,a3,t0
   20814:	0156f463          	bgeu	a3,s5,2081c <__multf3+0xa00>
   20818:	00750533          	add	a0,a0,t2
   2081c:	00010ab7          	lui	s5,0x10
   20820:	fffa8393          	addi	t2,s5,-1 # ffff <main-0x75>
   20824:	0076f7b3          	and	a5,a3,t2
   20828:	007ff2b3          	and	t0,t6,t2
   2082c:	01079793          	slli	a5,a5,0x10
   20830:	005782b3          	add	t0,a5,t0
   20834:	04c12783          	lw	a5,76(sp)
   20838:	05012f83          	lw	t6,80(sp)
   2083c:	0106dc13          	srli	s8,a3,0x10
   20840:	00fc87b3          	add	a5,s9,a5
   20844:	0197b633          	sltu	a2,a5,s9
   20848:	01fa0fb3          	add	t6,s4,t6
   2084c:	00cf8db3          	add	s11,t6,a2
   20850:	016787b3          	add	a5,a5,s6
   20854:	0167b6b3          	sltu	a3,a5,s6
   20858:	013d8b33          	add	s6,s11,s3
   2085c:	00db0d33          	add	s10,s6,a3
   20860:	00e787b3          	add	a5,a5,a4
   20864:	00e7b733          	sltu	a4,a5,a4
   20868:	012d05b3          	add	a1,s10,s2
   2086c:	00e58cb3          	add	s9,a1,a4
   20870:	00ac0c33          	add	s8,s8,a0
   20874:	005787b3          	add	a5,a5,t0
   20878:	04f12623          	sw	a5,76(sp)
   2087c:	014fbfb3          	sltu	t6,t6,s4
   20880:	0057b7b3          	sltu	a5,a5,t0
   20884:	00cdb633          	sltu	a2,s11,a2
   20888:	018c82b3          	add	t0,s9,s8
   2088c:	013b39b3          	sltu	s3,s6,s3
   20890:	00dd36b3          	sltu	a3,s10,a3
   20894:	00f280b3          	add	ra,t0,a5
   20898:	00ecb733          	sltu	a4,s9,a4
   2089c:	00cfefb3          	or	t6,t6,a2
   208a0:	00d9e9b3          	or	s3,s3,a3
   208a4:	0125b5b3          	sltu	a1,a1,s2
   208a8:	0182bc33          	sltu	s8,t0,s8
   208ac:	013f8fb3          	add	t6,t6,s3
   208b0:	00e5e5b3          	or	a1,a1,a4
   208b4:	00f0b7b3          	sltu	a5,ra,a5
   208b8:	00bf85b3          	add	a1,t6,a1
   208bc:	00fc67b3          	or	a5,s8,a5
   208c0:	00f587b3          	add	a5,a1,a5
   208c4:	007e7733          	and	a4,t3,t2
   208c8:	007373b3          	and	t2,t1,t2
   208cc:	04f12a23          	sw	a5,84(sp)
   208d0:	04112823          	sw	ra,80(sp)
   208d4:	010e5293          	srli	t0,t3,0x10
   208d8:	01035793          	srli	a5,t1,0x10
   208dc:	00070513          	addi	a0,a4,0
   208e0:	00038593          	addi	a1,t2,0
   208e4:	650020ef          	jal	ra,22f34 <__mulsi3>
   208e8:	00050f93          	addi	t6,a0,0
   208ec:	00078593          	addi	a1,a5,0
   208f0:	00070513          	addi	a0,a4,0
   208f4:	640020ef          	jal	ra,22f34 <__mulsi3>
   208f8:	00050713          	addi	a4,a0,0
   208fc:	00038593          	addi	a1,t2,0
   20900:	00028513          	addi	a0,t0,0
   20904:	630020ef          	jal	ra,22f34 <__mulsi3>
   20908:	00050393          	addi	t2,a0,0
   2090c:	00078593          	addi	a1,a5,0
   20910:	00028513          	addi	a0,t0,0
   20914:	620020ef          	jal	ra,22f34 <__mulsi3>
   20918:	010fd613          	srli	a2,t6,0x10
   2091c:	00770733          	add	a4,a4,t2
   20920:	00e60633          	add	a2,a2,a4
   20924:	00767463          	bgeu	a2,t2,2092c <__multf3+0xb10>
   20928:	01550533          	add	a0,a0,s5
   2092c:	000102b7          	lui	t0,0x10
   20930:	fff28793          	addi	a5,t0,-1 # ffff <main-0x75>
   20934:	01065713          	srli	a4,a2,0x10
   20938:	00f67633          	and	a2,a2,a5
   2093c:	00a709b3          	add	s3,a4,a0
   20940:	01061613          	slli	a2,a2,0x10
   20944:	00fff733          	and	a4,t6,a5
   20948:	010f5913          	srli	s2,t5,0x10
   2094c:	00f87fb3          	and	t6,a6,a5
   20950:	00ff7f33          	and	t5,t5,a5
   20954:	00e60733          	add	a4,a2,a4
   20958:	01085393          	srli	t2,a6,0x10
   2095c:	000f0513          	addi	a0,t5,0
   20960:	000f8593          	addi	a1,t6,0
   20964:	5d0020ef          	jal	ra,22f34 <__mulsi3>
   20968:	00050a13          	addi	s4,a0,0
   2096c:	00038593          	addi	a1,t2,0
   20970:	000f0513          	addi	a0,t5,0
   20974:	5c0020ef          	jal	ra,22f34 <__mulsi3>
   20978:	00050793          	addi	a5,a0,0
   2097c:	000f8593          	addi	a1,t6,0
   20980:	00090513          	addi	a0,s2,0
   20984:	5b0020ef          	jal	ra,22f34 <__mulsi3>
   20988:	00050f93          	addi	t6,a0,0
   2098c:	00038593          	addi	a1,t2,0
   20990:	00090513          	addi	a0,s2,0
   20994:	5a0020ef          	jal	ra,22f34 <__mulsi3>
   20998:	01f786b3          	add	a3,a5,t6
   2099c:	010a5793          	srli	a5,s4,0x10
   209a0:	00f686b3          	add	a3,a3,a5
   209a4:	01f6f463          	bgeu	a3,t6,209ac <__multf3+0xb90>
   209a8:	00550533          	add	a0,a0,t0
   209ac:	00010f37          	lui	t5,0x10
   209b0:	ffff0613          	addi	a2,t5,-1 # ffff <main-0x75>
   209b4:	0106d913          	srli	s2,a3,0x10
   209b8:	00c6f6b3          	and	a3,a3,a2
   209bc:	01069693          	slli	a3,a3,0x10
   209c0:	00ca7a33          	and	s4,s4,a2
   209c4:	010ed393          	srli	t2,t4,0x10
   209c8:	00c8f2b3          	and	t0,a7,a2
   209cc:	00cefeb3          	and	t4,t4,a2
   209d0:	00a90933          	add	s2,s2,a0
   209d4:	01468a33          	add	s4,a3,s4
   209d8:	0108d793          	srli	a5,a7,0x10
   209dc:	00028513          	addi	a0,t0,0
   209e0:	000e8593          	addi	a1,t4,0
   209e4:	550020ef          	jal	ra,22f34 <__mulsi3>
   209e8:	00050f93          	addi	t6,a0,0
   209ec:	00038593          	addi	a1,t2,0
   209f0:	00028513          	addi	a0,t0,0
   209f4:	540020ef          	jal	ra,22f34 <__mulsi3>
   209f8:	00050293          	addi	t0,a0,0
   209fc:	000e8593          	addi	a1,t4,0
   20a00:	00078513          	addi	a0,a5,0
   20a04:	530020ef          	jal	ra,22f34 <__mulsi3>
   20a08:	00050e93          	addi	t4,a0,0
   20a0c:	00038593          	addi	a1,t2,0
   20a10:	00078513          	addi	a0,a5,0
   20a14:	520020ef          	jal	ra,22f34 <__mulsi3>
   20a18:	010fd693          	srli	a3,t6,0x10
   20a1c:	01d282b3          	add	t0,t0,t4
   20a20:	005686b3          	add	a3,a3,t0
   20a24:	01d6f463          	bgeu	a3,t4,20a2c <__multf3+0xc10>
   20a28:	01e50533          	add	a0,a0,t5
   20a2c:	00010eb7          	lui	t4,0x10
   20a30:	fffe8793          	addi	a5,t4,-1 # ffff <main-0x75>
   20a34:	00f6f5b3          	and	a1,a3,a5
   20a38:	0106d393          	srli	t2,a3,0x10
   20a3c:	01059593          	slli	a1,a1,0x10
   20a40:	00ffffb3          	and	t6,t6,a5
   20a44:	010e5a93          	srli	s5,t3,0x10
   20a48:	00fe7e33          	and	t3,t3,a5
   20a4c:	00f877b3          	and	a5,a6,a5
   20a50:	00a383b3          	add	t2,t2,a0
   20a54:	01f58fb3          	add	t6,a1,t6
   20a58:	01085293          	srli	t0,a6,0x10
   20a5c:	000e0513          	addi	a0,t3,0
   20a60:	00078593          	addi	a1,a5,0
   20a64:	4d0020ef          	jal	ra,22f34 <__mulsi3>
   20a68:	00050f13          	addi	t5,a0,0
   20a6c:	00028593          	addi	a1,t0,0
   20a70:	000e0513          	addi	a0,t3,0
   20a74:	4c0020ef          	jal	ra,22f34 <__mulsi3>
   20a78:	00050e13          	addi	t3,a0,0
   20a7c:	00078593          	addi	a1,a5,0
   20a80:	000a8513          	addi	a0,s5,0
   20a84:	4b0020ef          	jal	ra,22f34 <__mulsi3>
   20a88:	00050793          	addi	a5,a0,0
   20a8c:	00028593          	addi	a1,t0,0
   20a90:	000a8513          	addi	a0,s5,0
   20a94:	4a0020ef          	jal	ra,22f34 <__mulsi3>
   20a98:	010f5693          	srli	a3,t5,0x10
   20a9c:	00fe0e33          	add	t3,t3,a5
   20aa0:	01c686b3          	add	a3,a3,t3
   20aa4:	00f6f463          	bgeu	a3,a5,20aac <__multf3+0xc90>
   20aa8:	01d50533          	add	a0,a0,t4
   20aac:	00010eb7          	lui	t4,0x10
   20ab0:	fffe8613          	addi	a2,t4,-1 # ffff <main-0x75>
   20ab4:	00c6fe33          	and	t3,a3,a2
   20ab8:	00cf7f33          	and	t5,t5,a2
   20abc:	010e1e13          	slli	t3,t3,0x10
   20ac0:	0106d793          	srli	a5,a3,0x10
   20ac4:	01ee0e33          	add	t3,t3,t5
   20ac8:	01035b13          	srli	s6,t1,0x10
   20acc:	00c8ff33          	and	t5,a7,a2
   20ad0:	00c37333          	and	t1,t1,a2
   20ad4:	00a782b3          	add	t0,a5,a0
   20ad8:	00030593          	addi	a1,t1,0
   20adc:	0108d793          	srli	a5,a7,0x10
   20ae0:	000f0513          	addi	a0,t5,0
   20ae4:	450020ef          	jal	ra,22f34 <__mulsi3>
   20ae8:	00050a93          	addi	s5,a0,0
   20aec:	000b0593          	addi	a1,s6,0
   20af0:	000f0513          	addi	a0,t5,0
   20af4:	440020ef          	jal	ra,22f34 <__mulsi3>
   20af8:	00050f13          	addi	t5,a0,0
   20afc:	00030593          	addi	a1,t1,0
   20b00:	00078513          	addi	a0,a5,0
   20b04:	430020ef          	jal	ra,22f34 <__mulsi3>
   20b08:	00050313          	addi	t1,a0,0
   20b0c:	000b0593          	addi	a1,s6,0
   20b10:	00078513          	addi	a0,a5,0
   20b14:	420020ef          	jal	ra,22f34 <__mulsi3>
   20b18:	010ad693          	srli	a3,s5,0x10
   20b1c:	006f0f33          	add	t5,t5,t1
   20b20:	01e686b3          	add	a3,a3,t5
   20b24:	0066f463          	bgeu	a3,t1,20b2c <__multf3+0xd10>
   20b28:	01d50533          	add	a0,a0,t4
   20b2c:	05012583          	lw	a1,80(sp)
   20b30:	00010eb7          	lui	t4,0x10
   20b34:	fffe8313          	addi	t1,t4,-1 # ffff <main-0x75>
   20b38:	00b705b3          	add	a1,a4,a1
   20b3c:	00e5b633          	sltu	a2,a1,a4
   20b40:	05412703          	lw	a4,84(sp)
   20b44:	0066ff33          	and	t5,a3,t1
   20b48:	006afab3          	and	s5,s5,t1
   20b4c:	00e98733          	add	a4,s3,a4
   20b50:	00c70cb3          	add	s9,a4,a2
   20b54:	014585b3          	add	a1,a1,s4
   20b58:	010f1f13          	slli	t5,t5,0x10
   20b5c:	0106d793          	srli	a5,a3,0x10
   20b60:	015f0f33          	add	t5,t5,s5
   20b64:	0145b6b3          	sltu	a3,a1,s4
   20b68:	012c8ab3          	add	s5,s9,s2
   20b6c:	00da8c33          	add	s8,s5,a3
   20b70:	01f585b3          	add	a1,a1,t6
   20b74:	007c0a33          	add	s4,s8,t2
   20b78:	00dc36b3          	sltu	a3,s8,a3
   20b7c:	04b12823          	sw	a1,80(sp)
   20b80:	01373733          	sltu	a4,a4,s3
   20b84:	01f5b5b3          	sltu	a1,a1,t6
   20b88:	00ccb633          	sltu	a2,s9,a2
   20b8c:	012ab933          	sltu	s2,s5,s2
   20b90:	00ba0b33          	add	s6,s4,a1
   20b94:	00a78533          	add	a0,a5,a0
   20b98:	00c76733          	or	a4,a4,a2
   20b9c:	00d967b3          	or	a5,s2,a3
   20ba0:	00f70733          	add	a4,a4,a5
   20ba4:	007a33b3          	sltu	t2,s4,t2
   20ba8:	00bb37b3          	sltu	a5,s6,a1
   20bac:	00f3e7b3          	or	a5,t2,a5
   20bb0:	01cb0fb3          	add	t6,s6,t3
   20bb4:	00f70733          	add	a4,a4,a5
   20bb8:	005707b3          	add	a5,a4,t0
   20bbc:	01cfbe33          	sltu	t3,t6,t3
   20bc0:	01c786b3          	add	a3,a5,t3
   20bc4:	01ef8fb3          	add	t6,t6,t5
   20bc8:	00a68733          	add	a4,a3,a0
   20bcc:	01efbf33          	sltu	t5,t6,t5
   20bd0:	05f12a23          	sw	t6,84(sp)
   20bd4:	01e70fb3          	add	t6,a4,t5
   20bd8:	00a73533          	sltu	a0,a4,a0
   20bdc:	0057b7b3          	sltu	a5,a5,t0
   20be0:	01c6be33          	sltu	t3,a3,t3
   20be4:	01efbf33          	sltu	t5,t6,t5
   20be8:	01e56f33          	or	t5,a0,t5
   20bec:	01c7e7b3          	or	a5,a5,t3
   20bf0:	01e787b3          	add	a5,a5,t5
   20bf4:	04f12e23          	sw	a5,92(sp)
   20bf8:	0108df13          	srli	t5,a7,0x10
   20bfc:	01085793          	srli	a5,a6,0x10
   20c00:	0068f8b3          	and	a7,a7,t1
   20c04:	00687833          	and	a6,a6,t1
   20c08:	05f12c23          	sw	t6,88(sp)
   20c0c:	00088513          	addi	a0,a7,0
   20c10:	00080593          	addi	a1,a6,0
   20c14:	320020ef          	jal	ra,22f34 <__mulsi3>
   20c18:	00050e13          	addi	t3,a0,0
   20c1c:	00078593          	addi	a1,a5,0
   20c20:	00088513          	addi	a0,a7,0
   20c24:	310020ef          	jal	ra,22f34 <__mulsi3>
   20c28:	00050713          	addi	a4,a0,0
   20c2c:	00080593          	addi	a1,a6,0
   20c30:	000f0513          	addi	a0,t5,0
   20c34:	300020ef          	jal	ra,22f34 <__mulsi3>
   20c38:	00050813          	addi	a6,a0,0
   20c3c:	00078593          	addi	a1,a5,0
   20c40:	000f0513          	addi	a0,t5,0
   20c44:	2f0020ef          	jal	ra,22f34 <__mulsi3>
   20c48:	010e5793          	srli	a5,t3,0x10
   20c4c:	01070733          	add	a4,a4,a6
   20c50:	00e787b3          	add	a5,a5,a4
   20c54:	0107f463          	bgeu	a5,a6,20c5c <__multf3+0xe40>
   20c58:	01d50533          	add	a0,a0,t4
   20c5c:	0067f733          	and	a4,a5,t1
   20c60:	01071713          	slli	a4,a4,0x10
   20c64:	006e7333          	and	t1,t3,t1
   20c68:	00670333          	add	t1,a4,t1
   20c6c:	05812703          	lw	a4,88(sp)
   20c70:	05c12683          	lw	a3,92(sp)
   20c74:	0107d793          	srli	a5,a5,0x10
   20c78:	00e30733          	add	a4,t1,a4
   20c7c:	00673333          	sltu	t1,a4,t1
   20c80:	00d787b3          	add	a5,a5,a3
   20c84:	006787b3          	add	a5,a5,t1
   20c88:	00a787b3          	add	a5,a5,a0
   20c8c:	04f12e23          	sw	a5,92(sp)
   20c90:	04e12c23          	sw	a4,88(sp)
   20c94:	04012783          	lw	a5,64(sp)
   20c98:	04412703          	lw	a4,68(sp)
   20c9c:	05010593          	addi	a1,sp,80
   20ca0:	00e7e7b3          	or	a5,a5,a4
   20ca4:	04812703          	lw	a4,72(sp)
   20ca8:	00e7e733          	or	a4,a5,a4
   20cac:	04c12783          	lw	a5,76(sp)
   20cb0:	00d79793          	slli	a5,a5,0xd
   20cb4:	00e7e7b3          	or	a5,a5,a4
   20cb8:	04010713          	addi	a4,sp,64
   20cbc:	00c72683          	lw	a3,12(a4)
   20cc0:	01072603          	lw	a2,16(a4)
   20cc4:	00470713          	addi	a4,a4,4
   20cc8:	0136d693          	srli	a3,a3,0x13
   20ccc:	00d61613          	slli	a2,a2,0xd
   20cd0:	00c6e6b3          	or	a3,a3,a2
   20cd4:	fed72e23          	sw	a3,-4(a4)
   20cd8:	fee592e3          	bne	a1,a4,20cbc <__multf3+0xea0>
   20cdc:	04012703          	lw	a4,64(sp)
   20ce0:	04812683          	lw	a3,72(sp)
   20ce4:	00f037b3          	sltu	a5,zero,a5
   20ce8:	00e7e7b3          	or	a5,a5,a4
   20cec:	02d12c23          	sw	a3,56(sp)
   20cf0:	04c12703          	lw	a4,76(sp)
   20cf4:	04412683          	lw	a3,68(sp)
   20cf8:	02f12823          	sw	a5,48(sp)
   20cfc:	02e12e23          	sw	a4,60(sp)
   20d00:	02d12a23          	sw	a3,52(sp)
   20d04:	00b71693          	slli	a3,a4,0xb
   20d08:	2206d063          	bge	a3,zero,20f28 <__multf3+0x110c>
   20d0c:	01f79793          	slli	a5,a5,0x1f
   20d10:	03010713          	addi	a4,sp,48
   20d14:	03c10593          	addi	a1,sp,60
   20d18:	00072683          	lw	a3,0(a4)
   20d1c:	00472603          	lw	a2,4(a4)
   20d20:	00470713          	addi	a4,a4,4
   20d24:	0016d693          	srli	a3,a3,0x1
   20d28:	01f61613          	slli	a2,a2,0x1f
   20d2c:	00c6e6b3          	or	a3,a3,a2
   20d30:	fed72e23          	sw	a3,-4(a4)
   20d34:	fee592e3          	bne	a1,a4,20d18 <__multf3+0xefc>
   20d38:	03c12703          	lw	a4,60(sp)
   20d3c:	00f037b3          	sltu	a5,zero,a5
   20d40:	00175713          	srli	a4,a4,0x1
   20d44:	02e12e23          	sw	a4,60(sp)
   20d48:	03012703          	lw	a4,48(sp)
   20d4c:	00f767b3          	or	a5,a4,a5
   20d50:	02f12823          	sw	a5,48(sp)
   20d54:	000047b7          	lui	a5,0x4
   20d58:	fff78793          	addi	a5,a5,-1 # 3fff <main-0xc075>
   20d5c:	00fb87b3          	add	a5,s7,a5
   20d60:	1ef05463          	bge	zero,a5,20f48 <__multf3+0x112c>
   20d64:	03012703          	lw	a4,48(sp)
   20d68:	00777693          	andi	a3,a4,7
   20d6c:	04068463          	beq	a3,zero,20db4 <__multf3+0xf98>
   20d70:	00f77693          	andi	a3,a4,15
   20d74:	00400613          	addi	a2,zero,4
   20d78:	02c68e63          	beq	a3,a2,20db4 <__multf3+0xf98>
   20d7c:	03412683          	lw	a3,52(sp)
   20d80:	00470713          	addi	a4,a4,4
   20d84:	02e12823          	sw	a4,48(sp)
   20d88:	00473713          	sltiu	a4,a4,4
   20d8c:	00d706b3          	add	a3,a4,a3
   20d90:	00e6b733          	sltu	a4,a3,a4
   20d94:	02d12a23          	sw	a3,52(sp)
   20d98:	03812683          	lw	a3,56(sp)
   20d9c:	00d706b3          	add	a3,a4,a3
   20da0:	02d12c23          	sw	a3,56(sp)
   20da4:	00e6b6b3          	sltu	a3,a3,a4
   20da8:	03c12703          	lw	a4,60(sp)
   20dac:	00e686b3          	add	a3,a3,a4
   20db0:	02d12e23          	sw	a3,60(sp)
   20db4:	03c12703          	lw	a4,60(sp)
   20db8:	00b71693          	slli	a3,a4,0xb
   20dbc:	0006de63          	bge	a3,zero,20dd8 <__multf3+0xfbc>
   20dc0:	fff007b7          	lui	a5,0xfff00
   20dc4:	fff78793          	addi	a5,a5,-1 # ffefffff <__BSS_END__+0xffeda407>
   20dc8:	00f77733          	and	a4,a4,a5
   20dcc:	000047b7          	lui	a5,0x4
   20dd0:	02e12e23          	sw	a4,60(sp)
   20dd4:	00fb87b3          	add	a5,s7,a5
   20dd8:	03010713          	addi	a4,sp,48
   20ddc:	03c10593          	addi	a1,sp,60
   20de0:	00072683          	lw	a3,0(a4)
   20de4:	00472603          	lw	a2,4(a4)
   20de8:	00470713          	addi	a4,a4,4
   20dec:	0036d693          	srli	a3,a3,0x3
   20df0:	01d61613          	slli	a2,a2,0x1d
   20df4:	00c6e6b3          	or	a3,a3,a2
   20df8:	fed72e23          	sw	a3,-4(a4)
   20dfc:	feb712e3          	bne	a4,a1,20de0 <__multf3+0xfc4>
   20e00:	00008737          	lui	a4,0x8
   20e04:	ffe70693          	addi	a3,a4,-2 # 7ffe <main-0x8076>
   20e08:	12f6c463          	blt	a3,a5,20f30 <__multf3+0x1114>
   20e0c:	03c12703          	lw	a4,60(sp)
   20e10:	00375713          	srli	a4,a4,0x3
   20e14:	02e12e23          	sw	a4,60(sp)
   20e18:	03c12703          	lw	a4,60(sp)
   20e1c:	01179793          	slli	a5,a5,0x11
   20e20:	800106b7          	lui	a3,0x80010
   20e24:	04e11623          	sh	a4,76(sp)
   20e28:	04c12703          	lw	a4,76(sp)
   20e2c:	0117d793          	srli	a5,a5,0x11
   20e30:	fff68693          	addi	a3,a3,-1 # 8000ffff <__BSS_END__+0x7ffea407>
   20e34:	00d77733          	and	a4,a4,a3
   20e38:	01079793          	slli	a5,a5,0x10
   20e3c:	00f767b3          	or	a5,a4,a5
   20e40:	03012703          	lw	a4,48(sp)
   20e44:	00179793          	slli	a5,a5,0x1
   20e48:	01f49493          	slli	s1,s1,0x1f
   20e4c:	00e42023          	sw	a4,0(s0)
   20e50:	03412703          	lw	a4,52(sp)
   20e54:	0017d793          	srli	a5,a5,0x1
   20e58:	0097e7b3          	or	a5,a5,s1
   20e5c:	00e42223          	sw	a4,4(s0)
   20e60:	03812703          	lw	a4,56(sp)
   20e64:	00f42623          	sw	a5,12(s0)
   20e68:	00040513          	addi	a0,s0,0
   20e6c:	00e42423          	sw	a4,8(s0)
   20e70:	09c12083          	lw	ra,156(sp)
   20e74:	09812403          	lw	s0,152(sp)
   20e78:	09412483          	lw	s1,148(sp)
   20e7c:	09012903          	lw	s2,144(sp)
   20e80:	08c12983          	lw	s3,140(sp)
   20e84:	08812a03          	lw	s4,136(sp)
   20e88:	08412a83          	lw	s5,132(sp)
   20e8c:	08012b03          	lw	s6,128(sp)
   20e90:	07c12b83          	lw	s7,124(sp)
   20e94:	07812c03          	lw	s8,120(sp)
   20e98:	07412c83          	lw	s9,116(sp)
   20e9c:	07012d03          	lw	s10,112(sp)
   20ea0:	06c12d83          	lw	s11,108(sp)
   20ea4:	0a010113          	addi	sp,sp,160
   20ea8:	00008067          	jalr	zero,0(ra)
   20eac:	000a0493          	addi	s1,s4,0
   20eb0:	01012783          	lw	a5,16(sp)
   20eb4:	02f12823          	sw	a5,48(sp)
   20eb8:	01412783          	lw	a5,20(sp)
   20ebc:	02f12a23          	sw	a5,52(sp)
   20ec0:	01812783          	lw	a5,24(sp)
   20ec4:	02f12c23          	sw	a5,56(sp)
   20ec8:	01c12783          	lw	a5,28(sp)
   20ecc:	02f12e23          	sw	a5,60(sp)
   20ed0:	00200793          	addi	a5,zero,2
   20ed4:	26fc0a63          	beq	s8,a5,21148 <__multf3+0x132c>
   20ed8:	00300793          	addi	a5,zero,3
   20edc:	28fc0463          	beq	s8,a5,21164 <__multf3+0x1348>
   20ee0:	00100793          	addi	a5,zero,1
   20ee4:	e6fc18e3          	bne	s8,a5,20d54 <__multf3+0xf38>
   20ee8:	02012e23          	sw	zero,60(sp)
   20eec:	02012c23          	sw	zero,56(sp)
   20ef0:	02012a23          	sw	zero,52(sp)
   20ef4:	02012823          	sw	zero,48(sp)
   20ef8:	2100006f          	jal	zero,21108 <__multf3+0x12ec>
   20efc:	00098493          	addi	s1,s3,0
   20f00:	02012783          	lw	a5,32(sp)
   20f04:	00070c13          	addi	s8,a4,0
   20f08:	02f12823          	sw	a5,48(sp)
   20f0c:	02412783          	lw	a5,36(sp)
   20f10:	02f12a23          	sw	a5,52(sp)
   20f14:	02812783          	lw	a5,40(sp)
   20f18:	02f12c23          	sw	a5,56(sp)
   20f1c:	02c12783          	lw	a5,44(sp)
   20f20:	02f12e23          	sw	a5,60(sp)
   20f24:	fadff06f          	jal	zero,20ed0 <__multf3+0x10b4>
   20f28:	00812b83          	lw	s7,8(sp)
   20f2c:	e29ff06f          	jal	zero,20d54 <__multf3+0xf38>
   20f30:	02012e23          	sw	zero,60(sp)
   20f34:	02012c23          	sw	zero,56(sp)
   20f38:	02012a23          	sw	zero,52(sp)
   20f3c:	02012823          	sw	zero,48(sp)
   20f40:	fff70793          	addi	a5,a4,-1
   20f44:	ed5ff06f          	jal	zero,20e18 <__multf3+0xffc>
   20f48:	00100713          	addi	a4,zero,1
   20f4c:	40f707b3          	sub	a5,a4,a5
   20f50:	07400713          	addi	a4,zero,116
   20f54:	1af74e63          	blt	a4,a5,21110 <__multf3+0x12f4>
   20f58:	4057d893          	srai	a7,a5,0x5
   20f5c:	00000713          	addi	a4,zero,0
   20f60:	01f7f793          	andi	a5,a5,31
   20f64:	00000693          	addi	a3,zero,0
   20f68:	00269613          	slli	a2,a3,0x2
   20f6c:	03169a63          	bne	a3,a7,20fa0 <__multf3+0x1184>
   20f70:	04079463          	bne	a5,zero,20fb8 <__multf3+0x119c>
   20f74:	00300513          	addi	a0,zero,3
   20f78:	03010593          	addi	a1,sp,48
   20f7c:	40d506b3          	sub	a3,a0,a3
   20f80:	00c58533          	add	a0,a1,a2
   20f84:	00052503          	lw	a0,0(a0)
   20f88:	00178793          	addi	a5,a5,1 # 4001 <main-0xc073>
   20f8c:	00458593          	addi	a1,a1,4
   20f90:	fea5ae23          	sw	a0,-4(a1)
   20f94:	fef6d6e3          	bge	a3,a5,20f80 <__multf3+0x1164>
   20f98:	00400613          	addi	a2,zero,4
   20f9c:	0b80006f          	jal	zero,21054 <__multf3+0x1238>
   20fa0:	03010593          	addi	a1,sp,48
   20fa4:	00c58633          	add	a2,a1,a2
   20fa8:	00062603          	lw	a2,0(a2)
   20fac:	00168693          	addi	a3,a3,1
   20fb0:	00c76733          	or	a4,a4,a2
   20fb4:	fb5ff06f          	jal	zero,20f68 <__multf3+0x114c>
   20fb8:	06010693          	addi	a3,sp,96
   20fbc:	00c686b3          	add	a3,a3,a2
   20fc0:	fd06a683          	lw	a3,-48(a3)
   20fc4:	02000813          	addi	a6,zero,32
   20fc8:	40f80833          	sub	a6,a6,a5
   20fcc:	010696b3          	sll	a3,a3,a6
   20fd0:	00d76733          	or	a4,a4,a3
   20fd4:	03010693          	addi	a3,sp,48
   20fd8:	00c68633          	add	a2,a3,a2
   20fdc:	00300693          	addi	a3,zero,3
   20fe0:	00000513          	addi	a0,zero,0
   20fe4:	411686b3          	sub	a3,a3,a7
   20fe8:	00460613          	addi	a2,a2,4
   20fec:	02d54463          	blt	a0,a3,21014 <__multf3+0x11f8>
   20ff0:	06010613          	addi	a2,sp,96
   20ff4:	00269693          	slli	a3,a3,0x2
   20ff8:	00d606b3          	add	a3,a2,a3
   20ffc:	03c12603          	lw	a2,60(sp)
   21000:	00f657b3          	srl	a5,a2,a5
   21004:	fcf6a823          	sw	a5,-48(a3)
   21008:	00400793          	addi	a5,zero,4
   2100c:	411787b3          	sub	a5,a5,a7
   21010:	f89ff06f          	jal	zero,20f98 <__multf3+0x117c>
   21014:	00251313          	slli	t1,a0,0x2
   21018:	03010593          	addi	a1,sp,48
   2101c:	00658333          	add	t1,a1,t1
   21020:	00062e03          	lw	t3,0(a2)
   21024:	ffc62583          	lw	a1,-4(a2)
   21028:	00150513          	addi	a0,a0,1
   2102c:	010e1e33          	sll	t3,t3,a6
   21030:	00f5d5b3          	srl	a1,a1,a5
   21034:	01c5e5b3          	or	a1,a1,t3
   21038:	00b32023          	sw	a1,0(t1)
   2103c:	fadff06f          	jal	zero,20fe8 <__multf3+0x11cc>
   21040:	00279693          	slli	a3,a5,0x2
   21044:	03010593          	addi	a1,sp,48
   21048:	00d586b3          	add	a3,a1,a3
   2104c:	0006a023          	sw	zero,0(a3)
   21050:	00178793          	addi	a5,a5,1
   21054:	fec796e3          	bne	a5,a2,21040 <__multf3+0x1224>
   21058:	03012683          	lw	a3,48(sp)
   2105c:	00e03733          	sltu	a4,zero,a4
   21060:	00d76733          	or	a4,a4,a3
   21064:	02e12823          	sw	a4,48(sp)
   21068:	00777693          	andi	a3,a4,7
   2106c:	04068263          	beq	a3,zero,210b0 <__multf3+0x1294>
   21070:	00f77693          	andi	a3,a4,15
   21074:	02f68e63          	beq	a3,a5,210b0 <__multf3+0x1294>
   21078:	03412783          	lw	a5,52(sp)
   2107c:	00470713          	addi	a4,a4,4
   21080:	02e12823          	sw	a4,48(sp)
   21084:	00473713          	sltiu	a4,a4,4
   21088:	00f707b3          	add	a5,a4,a5
   2108c:	00e7b733          	sltu	a4,a5,a4
   21090:	02f12a23          	sw	a5,52(sp)
   21094:	03812783          	lw	a5,56(sp)
   21098:	00f707b3          	add	a5,a4,a5
   2109c:	02f12c23          	sw	a5,56(sp)
   210a0:	00e7b7b3          	sltu	a5,a5,a4
   210a4:	03c12703          	lw	a4,60(sp)
   210a8:	00e787b3          	add	a5,a5,a4
   210ac:	02f12e23          	sw	a5,60(sp)
   210b0:	03c12783          	lw	a5,60(sp)
   210b4:	00c79713          	slli	a4,a5,0xc
   210b8:	00075e63          	bge	a4,zero,210d4 <__multf3+0x12b8>
   210bc:	02012e23          	sw	zero,60(sp)
   210c0:	02012c23          	sw	zero,56(sp)
   210c4:	02012a23          	sw	zero,52(sp)
   210c8:	02012823          	sw	zero,48(sp)
   210cc:	00100793          	addi	a5,zero,1
   210d0:	d49ff06f          	jal	zero,20e18 <__multf3+0xffc>
   210d4:	03010793          	addi	a5,sp,48
   210d8:	03c10613          	addi	a2,sp,60
   210dc:	0007a703          	lw	a4,0(a5)
   210e0:	0047a683          	lw	a3,4(a5)
   210e4:	00478793          	addi	a5,a5,4
   210e8:	00375713          	srli	a4,a4,0x3
   210ec:	01d69693          	slli	a3,a3,0x1d
   210f0:	00d76733          	or	a4,a4,a3
   210f4:	fee7ae23          	sw	a4,-4(a5)
   210f8:	fef612e3          	bne	a2,a5,210dc <__multf3+0x12c0>
   210fc:	03c12783          	lw	a5,60(sp)
   21100:	0037d793          	srli	a5,a5,0x3
   21104:	02f12e23          	sw	a5,60(sp)
   21108:	00000793          	addi	a5,zero,0
   2110c:	d0dff06f          	jal	zero,20e18 <__multf3+0xffc>
   21110:	03412783          	lw	a5,52(sp)
   21114:	03012703          	lw	a4,48(sp)
   21118:	00f76733          	or	a4,a4,a5
   2111c:	03812783          	lw	a5,56(sp)
   21120:	00f76733          	or	a4,a4,a5
   21124:	03c12783          	lw	a5,60(sp)
   21128:	00f76733          	or	a4,a4,a5
   2112c:	00000793          	addi	a5,zero,0
   21130:	ce0704e3          	beq	a4,zero,20e18 <__multf3+0xffc>
   21134:	02012e23          	sw	zero,60(sp)
   21138:	02012c23          	sw	zero,56(sp)
   2113c:	02012a23          	sw	zero,52(sp)
   21140:	02012823          	sw	zero,48(sp)
   21144:	cd5ff06f          	jal	zero,20e18 <__multf3+0xffc>
   21148:	000087b7          	lui	a5,0x8
   2114c:	02012e23          	sw	zero,60(sp)
   21150:	02012c23          	sw	zero,56(sp)
   21154:	02012a23          	sw	zero,52(sp)
   21158:	02012823          	sw	zero,48(sp)
   2115c:	fff78793          	addi	a5,a5,-1 # 7fff <main-0x8075>
   21160:	cb9ff06f          	jal	zero,20e18 <__multf3+0xffc>
   21164:	000087b7          	lui	a5,0x8
   21168:	02f12e23          	sw	a5,60(sp)
   2116c:	02012c23          	sw	zero,56(sp)
   21170:	02012a23          	sw	zero,52(sp)
   21174:	02012823          	sw	zero,48(sp)
   21178:	fff78793          	addi	a5,a5,-1 # 7fff <main-0x8075>
   2117c:	00000493          	addi	s1,zero,0
   21180:	c99ff06f          	jal	zero,20e18 <__multf3+0xffc>

00021184 <__subtf3>:
   21184:	fa010113          	addi	sp,sp,-96
   21188:	0085a783          	lw	a5,8(a1)
   2118c:	05212823          	sw	s2,80(sp)
   21190:	00c5a903          	lw	s2,12(a1)
   21194:	0005a803          	lw	a6,0(a1)
   21198:	0045a703          	lw	a4,4(a1)
   2119c:	04912a23          	sw	s1,84(sp)
   211a0:	02f12c23          	sw	a5,56(sp)
   211a4:	00050493          	addi	s1,a0,0
   211a8:	00f12c23          	sw	a5,24(sp)
   211ac:	00062303          	lw	t1,0(a2)
   211b0:	01091793          	slli	a5,s2,0x10
   211b4:	00462583          	lw	a1,4(a2)
   211b8:	00862683          	lw	a3,8(a2)
   211bc:	00c62503          	lw	a0,12(a2)
   211c0:	04812c23          	sw	s0,88(sp)
   211c4:	0107d793          	srli	a5,a5,0x10
   211c8:	00191413          	slli	s0,s2,0x1
   211cc:	03012823          	sw	a6,48(sp)
   211d0:	03212e23          	sw	s2,60(sp)
   211d4:	01012823          	sw	a6,16(sp)
   211d8:	04112e23          	sw	ra,92(sp)
   211dc:	05312623          	sw	s3,76(sp)
   211e0:	05412423          	sw	s4,72(sp)
   211e4:	05512223          	sw	s5,68(sp)
   211e8:	02e12a23          	sw	a4,52(sp)
   211ec:	00e12a23          	sw	a4,20(sp)
   211f0:	00f12e23          	sw	a5,28(sp)
   211f4:	01145413          	srli	s0,s0,0x11
   211f8:	01f95913          	srli	s2,s2,0x1f
   211fc:	01010893          	addi	a7,sp,16
   21200:	01c10813          	addi	a6,sp,28
   21204:	00082783          	lw	a5,0(a6)
   21208:	ffc82703          	lw	a4,-4(a6)
   2120c:	ffc80813          	addi	a6,a6,-4
   21210:	00379793          	slli	a5,a5,0x3
   21214:	01d75713          	srli	a4,a4,0x1d
   21218:	00e7e7b3          	or	a5,a5,a4
   2121c:	00f82223          	sw	a5,4(a6)
   21220:	ff0892e3          	bne	a7,a6,21204 <__subtf3+0x80>
   21224:	01012703          	lw	a4,16(sp)
   21228:	01051793          	slli	a5,a0,0x10
   2122c:	00151613          	slli	a2,a0,0x1
   21230:	00371713          	slli	a4,a4,0x3
   21234:	0107d793          	srli	a5,a5,0x10
   21238:	02612823          	sw	t1,48(sp)
   2123c:	02a12e23          	sw	a0,60(sp)
   21240:	02612023          	sw	t1,32(sp)
   21244:	00e12823          	sw	a4,16(sp)
   21248:	02b12a23          	sw	a1,52(sp)
   2124c:	02d12c23          	sw	a3,56(sp)
   21250:	02b12223          	sw	a1,36(sp)
   21254:	02d12423          	sw	a3,40(sp)
   21258:	02f12623          	sw	a5,44(sp)
   2125c:	01165613          	srli	a2,a2,0x11
   21260:	01f55513          	srli	a0,a0,0x1f
   21264:	02010313          	addi	t1,sp,32
   21268:	02c10e13          	addi	t3,sp,44
   2126c:	000e2783          	lw	a5,0(t3)
   21270:	ffce2683          	lw	a3,-4(t3)
   21274:	ffce0e13          	addi	t3,t3,-4
   21278:	00379793          	slli	a5,a5,0x3
   2127c:	01d6d693          	srli	a3,a3,0x1d
   21280:	00d7e7b3          	or	a5,a5,a3
   21284:	00fe2223          	sw	a5,4(t3)
   21288:	ffc312e3          	bne	t1,t3,2126c <__subtf3+0xe8>
   2128c:	02012783          	lw	a5,32(sp)
   21290:	000086b7          	lui	a3,0x8
   21294:	fff68693          	addi	a3,a3,-1 # 7fff <main-0x8075>
   21298:	00379793          	slli	a5,a5,0x3
   2129c:	02f12023          	sw	a5,32(sp)
   212a0:	02d61063          	bne	a2,a3,212c0 <__subtf3+0x13c>
   212a4:	02812583          	lw	a1,40(sp)
   212a8:	02412683          	lw	a3,36(sp)
   212ac:	00b6e6b3          	or	a3,a3,a1
   212b0:	02c12583          	lw	a1,44(sp)
   212b4:	00b6e6b3          	or	a3,a3,a1
   212b8:	00f6e6b3          	or	a3,a3,a5
   212bc:	00069463          	bne	a3,zero,212c4 <__subtf3+0x140>
   212c0:	00154513          	xori	a0,a0,1
   212c4:	40c405b3          	sub	a1,s0,a2
   212c8:	15251ce3          	bne	a0,s2,21c20 <__subtf3+0xa9c>
   212cc:	30b05463          	bge	zero,a1,215d4 <__subtf3+0x450>
   212d0:	0c061663          	bne	a2,zero,2139c <__subtf3+0x218>
   212d4:	02412503          	lw	a0,36(sp)
   212d8:	02812603          	lw	a2,40(sp)
   212dc:	02c12803          	lw	a6,44(sp)
   212e0:	00c566b3          	or	a3,a0,a2
   212e4:	0106e6b3          	or	a3,a3,a6
   212e8:	00f6e6b3          	or	a3,a3,a5
   212ec:	02069063          	bne	a3,zero,2130c <__subtf3+0x188>
   212f0:	01412783          	lw	a5,20(sp)
   212f4:	02e12823          	sw	a4,48(sp)
   212f8:	02f12a23          	sw	a5,52(sp)
   212fc:	01812783          	lw	a5,24(sp)
   21300:	02f12c23          	sw	a5,56(sp)
   21304:	01c12783          	lw	a5,28(sp)
   21308:	30c0006f          	jal	zero,21614 <__subtf3+0x490>
   2130c:	fff58693          	addi	a3,a1,-1
   21310:	06069063          	bne	a3,zero,21370 <__subtf3+0x1ec>
   21314:	01412683          	lw	a3,20(sp)
   21318:	00f707b3          	add	a5,a4,a5
   2131c:	00e7b733          	sltu	a4,a5,a4
   21320:	00d505b3          	add	a1,a0,a3
   21324:	02f12823          	sw	a5,48(sp)
   21328:	00e587b3          	add	a5,a1,a4
   2132c:	00e7b733          	sltu	a4,a5,a4
   21330:	02f12a23          	sw	a5,52(sp)
   21334:	01812783          	lw	a5,24(sp)
   21338:	00d5b6b3          	sltu	a3,a1,a3
   2133c:	00e6e733          	or	a4,a3,a4
   21340:	00f606b3          	add	a3,a2,a5
   21344:	00e68633          	add	a2,a3,a4
   21348:	00e63733          	sltu	a4,a2,a4
   2134c:	00f6b7b3          	sltu	a5,a3,a5
   21350:	00e7e7b3          	or	a5,a5,a4
   21354:	01c12703          	lw	a4,28(sp)
   21358:	02c12c23          	sw	a2,56(sp)
   2135c:	00e80833          	add	a6,a6,a4
   21360:	010787b3          	add	a5,a5,a6
   21364:	02f12e23          	sw	a5,60(sp)
   21368:	00100413          	addi	s0,zero,1
   2136c:	1dc0006f          	jal	zero,21548 <__subtf3+0x3c4>
   21370:	000087b7          	lui	a5,0x8
   21374:	fff78793          	addi	a5,a5,-1 # 7fff <main-0x8075>
   21378:	f6f58ce3          	beq	a1,a5,212f0 <__subtf3+0x16c>
   2137c:	07400793          	addi	a5,zero,116
   21380:	06d7d263          	bge	a5,a3,213e4 <__subtf3+0x260>
   21384:	00100793          	addi	a5,zero,1
   21388:	02012623          	sw	zero,44(sp)
   2138c:	02012423          	sw	zero,40(sp)
   21390:	02012223          	sw	zero,36(sp)
   21394:	02f12023          	sw	a5,32(sp)
   21398:	1480006f          	jal	zero,214e0 <__subtf3+0x35c>
   2139c:	000087b7          	lui	a5,0x8
   213a0:	fff78793          	addi	a5,a5,-1 # 7fff <main-0x8075>
   213a4:	02f41263          	bne	s0,a5,213c8 <__subtf3+0x244>
   213a8:	01412783          	lw	a5,20(sp)
   213ac:	02e12823          	sw	a4,48(sp)
   213b0:	02f12a23          	sw	a5,52(sp)
   213b4:	01812783          	lw	a5,24(sp)
   213b8:	02f12c23          	sw	a5,56(sp)
   213bc:	01c12783          	lw	a5,28(sp)
   213c0:	02f12e23          	sw	a5,60(sp)
   213c4:	2580006f          	jal	zero,2161c <__subtf3+0x498>
   213c8:	02c12783          	lw	a5,44(sp)
   213cc:	00080737          	lui	a4,0x80
   213d0:	00e7e7b3          	or	a5,a5,a4
   213d4:	02f12623          	sw	a5,44(sp)
   213d8:	07400793          	addi	a5,zero,116
   213dc:	fab7c4e3          	blt	a5,a1,21384 <__subtf3+0x200>
   213e0:	00058693          	addi	a3,a1,0
   213e4:	4056d893          	srai	a7,a3,0x5
   213e8:	01f6f793          	andi	a5,a3,31
   213ec:	00000613          	addi	a2,zero,0
   213f0:	00000713          	addi	a4,zero,0
   213f4:	00271693          	slli	a3,a4,0x2
   213f8:	03171863          	bne	a4,a7,21428 <__subtf3+0x2a4>
   213fc:	04079063          	bne	a5,zero,2143c <__subtf3+0x2b8>
   21400:	00300593          	addi	a1,zero,3
   21404:	40e58733          	sub	a4,a1,a4
   21408:	00de05b3          	add	a1,t3,a3
   2140c:	0005a583          	lw	a1,0(a1)
   21410:	00178793          	addi	a5,a5,1
   21414:	004e0e13          	addi	t3,t3,4
   21418:	febe2e23          	sw	a1,-4(t3)
   2141c:	fef756e3          	bge	a4,a5,21408 <__subtf3+0x284>
   21420:	00400693          	addi	a3,zero,4
   21424:	0a80006f          	jal	zero,214cc <__subtf3+0x348>
   21428:	00d306b3          	add	a3,t1,a3
   2142c:	0006a683          	lw	a3,0(a3)
   21430:	00170713          	addi	a4,a4,1 # 80001 <__BSS_END__+0x5a409>
   21434:	00d66633          	or	a2,a2,a3
   21438:	fbdff06f          	jal	zero,213f4 <__subtf3+0x270>
   2143c:	04010713          	addi	a4,sp,64
   21440:	00d70733          	add	a4,a4,a3
   21444:	fe072703          	lw	a4,-32(a4)
   21448:	02000813          	addi	a6,zero,32
   2144c:	40f80833          	sub	a6,a6,a5
   21450:	01071733          	sll	a4,a4,a6
   21454:	00e66633          	or	a2,a2,a4
   21458:	00300713          	addi	a4,zero,3
   2145c:	00d306b3          	add	a3,t1,a3
   21460:	00000513          	addi	a0,zero,0
   21464:	41170733          	sub	a4,a4,a7
   21468:	00468693          	addi	a3,a3,4
   2146c:	02e54463          	blt	a0,a4,21494 <__subtf3+0x310>
   21470:	04010693          	addi	a3,sp,64
   21474:	00271713          	slli	a4,a4,0x2
   21478:	00e68733          	add	a4,a3,a4
   2147c:	02c12683          	lw	a3,44(sp)
   21480:	00f6d7b3          	srl	a5,a3,a5
   21484:	fef72023          	sw	a5,-32(a4)
   21488:	00400793          	addi	a5,zero,4
   2148c:	411787b3          	sub	a5,a5,a7
   21490:	f91ff06f          	jal	zero,21420 <__subtf3+0x29c>
   21494:	ffc6a583          	lw	a1,-4(a3)
   21498:	0006ae83          	lw	t4,0(a3)
   2149c:	00251e13          	slli	t3,a0,0x2
   214a0:	00f5d5b3          	srl	a1,a1,a5
   214a4:	010e9eb3          	sll	t4,t4,a6
   214a8:	01c30e33          	add	t3,t1,t3
   214ac:	01d5e5b3          	or	a1,a1,t4
   214b0:	00be2023          	sw	a1,0(t3)
   214b4:	00150513          	addi	a0,a0,1
   214b8:	fb1ff06f          	jal	zero,21468 <__subtf3+0x2e4>
   214bc:	00279713          	slli	a4,a5,0x2
   214c0:	00e30733          	add	a4,t1,a4
   214c4:	00072023          	sw	zero,0(a4)
   214c8:	00178793          	addi	a5,a5,1
   214cc:	fed798e3          	bne	a5,a3,214bc <__subtf3+0x338>
   214d0:	02012783          	lw	a5,32(sp)
   214d4:	00c03633          	sltu	a2,zero,a2
   214d8:	00c7e633          	or	a2,a5,a2
   214dc:	02c12023          	sw	a2,32(sp)
   214e0:	01012683          	lw	a3,16(sp)
   214e4:	02012783          	lw	a5,32(sp)
   214e8:	01412703          	lw	a4,20(sp)
   214ec:	02812583          	lw	a1,40(sp)
   214f0:	00f687b3          	add	a5,a3,a5
   214f4:	00d7b6b3          	sltu	a3,a5,a3
   214f8:	02f12823          	sw	a5,48(sp)
   214fc:	02412783          	lw	a5,36(sp)
   21500:	02c12503          	lw	a0,44(sp)
   21504:	00f707b3          	add	a5,a4,a5
   21508:	00d78633          	add	a2,a5,a3
   2150c:	00e7b733          	sltu	a4,a5,a4
   21510:	00d637b3          	sltu	a5,a2,a3
   21514:	00f767b3          	or	a5,a4,a5
   21518:	01812703          	lw	a4,24(sp)
   2151c:	01c12683          	lw	a3,28(sp)
   21520:	02c12a23          	sw	a2,52(sp)
   21524:	00b705b3          	add	a1,a4,a1
   21528:	00f58633          	add	a2,a1,a5
   2152c:	00e5b733          	sltu	a4,a1,a4
   21530:	00f637b3          	sltu	a5,a2,a5
   21534:	00a686b3          	add	a3,a3,a0
   21538:	00f76733          	or	a4,a4,a5
   2153c:	00e68733          	add	a4,a3,a4
   21540:	02c12c23          	sw	a2,56(sp)
   21544:	02e12e23          	sw	a4,60(sp)
   21548:	03c12783          	lw	a5,60(sp)
   2154c:	00c79713          	slli	a4,a5,0xc
   21550:	0c075663          	bge	a4,zero,2161c <__subtf3+0x498>
   21554:	fff80737          	lui	a4,0xfff80
   21558:	fff70713          	addi	a4,a4,-1 # fff7ffff <__BSS_END__+0xfff5a407>
   2155c:	00e7f7b3          	and	a5,a5,a4
   21560:	02f12e23          	sw	a5,60(sp)
   21564:	03012783          	lw	a5,48(sp)
   21568:	00140413          	addi	s0,s0,1
   2156c:	03c10593          	addi	a1,sp,60
   21570:	01f79713          	slli	a4,a5,0x1f
   21574:	03010793          	addi	a5,sp,48
   21578:	0007a683          	lw	a3,0(a5)
   2157c:	0047a603          	lw	a2,4(a5)
   21580:	00478793          	addi	a5,a5,4
   21584:	0016d693          	srli	a3,a3,0x1
   21588:	01f61613          	slli	a2,a2,0x1f
   2158c:	00c6e6b3          	or	a3,a3,a2
   21590:	fed7ae23          	sw	a3,-4(a5)
   21594:	fef592e3          	bne	a1,a5,21578 <__subtf3+0x3f4>
   21598:	03c12783          	lw	a5,60(sp)
   2159c:	0017d793          	srli	a5,a5,0x1
   215a0:	02f12e23          	sw	a5,60(sp)
   215a4:	00e037b3          	sltu	a5,zero,a4
   215a8:	03012703          	lw	a4,48(sp)
   215ac:	00f767b3          	or	a5,a4,a5
   215b0:	02f12823          	sw	a5,48(sp)
   215b4:	000087b7          	lui	a5,0x8
   215b8:	fff78793          	addi	a5,a5,-1 # 7fff <main-0x8075>
   215bc:	06f41063          	bne	s0,a5,2161c <__subtf3+0x498>
   215c0:	02012e23          	sw	zero,60(sp)
   215c4:	02012c23          	sw	zero,56(sp)
   215c8:	02012a23          	sw	zero,52(sp)
   215cc:	02012823          	sw	zero,48(sp)
   215d0:	04c0006f          	jal	zero,2161c <__subtf3+0x498>
   215d4:	42058863          	beq	a1,zero,21a04 <__subtf3+0x880>
   215d8:	408605b3          	sub	a1,a2,s0
   215dc:	22041a63          	bne	s0,zero,21810 <__subtf3+0x68c>
   215e0:	01412303          	lw	t1,20(sp)
   215e4:	01812503          	lw	a0,24(sp)
   215e8:	01c12e03          	lw	t3,28(sp)
   215ec:	00a366b3          	or	a3,t1,a0
   215f0:	01c6e6b3          	or	a3,a3,t3
   215f4:	00e6e6b3          	or	a3,a3,a4
   215f8:	18069863          	bne	a3,zero,21788 <__subtf3+0x604>
   215fc:	02f12823          	sw	a5,48(sp)
   21600:	02412783          	lw	a5,36(sp)
   21604:	02f12a23          	sw	a5,52(sp)
   21608:	02812783          	lw	a5,40(sp)
   2160c:	02f12c23          	sw	a5,56(sp)
   21610:	02c12783          	lw	a5,44(sp)
   21614:	02f12e23          	sw	a5,60(sp)
   21618:	00058413          	addi	s0,a1,0
   2161c:	03012783          	lw	a5,48(sp)
   21620:	0077f713          	andi	a4,a5,7
   21624:	04070463          	beq	a4,zero,2166c <__subtf3+0x4e8>
   21628:	00f7f713          	andi	a4,a5,15
   2162c:	00400693          	addi	a3,zero,4
   21630:	02d70e63          	beq	a4,a3,2166c <__subtf3+0x4e8>
   21634:	03412703          	lw	a4,52(sp)
   21638:	00478793          	addi	a5,a5,4
   2163c:	02f12823          	sw	a5,48(sp)
   21640:	0047b793          	sltiu	a5,a5,4
   21644:	00e78733          	add	a4,a5,a4
   21648:	00f737b3          	sltu	a5,a4,a5
   2164c:	02e12a23          	sw	a4,52(sp)
   21650:	03812703          	lw	a4,56(sp)
   21654:	00e78733          	add	a4,a5,a4
   21658:	02e12c23          	sw	a4,56(sp)
   2165c:	00f73733          	sltu	a4,a4,a5
   21660:	03c12783          	lw	a5,60(sp)
   21664:	00f70733          	add	a4,a4,a5
   21668:	02e12e23          	sw	a4,60(sp)
   2166c:	03c12783          	lw	a5,60(sp)
   21670:	00c79713          	slli	a4,a5,0xc
   21674:	02075463          	bge	a4,zero,2169c <__subtf3+0x518>
   21678:	00008737          	lui	a4,0x8
   2167c:	00140413          	addi	s0,s0,1
   21680:	fff70713          	addi	a4,a4,-1 # 7fff <main-0x8075>
   21684:	00e41463          	bne	s0,a4,2168c <__subtf3+0x508>
   21688:	0800106f          	jal	zero,22708 <__subtf3+0x1584>
   2168c:	fff80737          	lui	a4,0xfff80
   21690:	fff70713          	addi	a4,a4,-1 # fff7ffff <__BSS_END__+0xfff5a407>
   21694:	00e7f7b3          	and	a5,a5,a4
   21698:	02f12e23          	sw	a5,60(sp)
   2169c:	03010793          	addi	a5,sp,48
   216a0:	03c10613          	addi	a2,sp,60
   216a4:	0007a703          	lw	a4,0(a5)
   216a8:	0047a683          	lw	a3,4(a5)
   216ac:	00478793          	addi	a5,a5,4
   216b0:	00375713          	srli	a4,a4,0x3
   216b4:	01d69693          	slli	a3,a3,0x1d
   216b8:	00d76733          	or	a4,a4,a3
   216bc:	fee7ae23          	sw	a4,-4(a5)
   216c0:	fef612e3          	bne	a2,a5,216a4 <__subtf3+0x520>
   216c4:	03c12783          	lw	a5,60(sp)
   216c8:	000086b7          	lui	a3,0x8
   216cc:	0037d713          	srli	a4,a5,0x3
   216d0:	02e12e23          	sw	a4,60(sp)
   216d4:	fff68793          	addi	a5,a3,-1 # 7fff <main-0x8075>
   216d8:	02f41a63          	bne	s0,a5,2170c <__subtf3+0x588>
   216dc:	03412603          	lw	a2,52(sp)
   216e0:	03012783          	lw	a5,48(sp)
   216e4:	00c7e7b3          	or	a5,a5,a2
   216e8:	03812603          	lw	a2,56(sp)
   216ec:	00c7e7b3          	or	a5,a5,a2
   216f0:	00e7e7b3          	or	a5,a5,a4
   216f4:	00078c63          	beq	a5,zero,2170c <__subtf3+0x588>
   216f8:	02d12e23          	sw	a3,60(sp)
   216fc:	02012c23          	sw	zero,56(sp)
   21700:	02012a23          	sw	zero,52(sp)
   21704:	02012823          	sw	zero,48(sp)
   21708:	00000913          	addi	s2,zero,0
   2170c:	03c12783          	lw	a5,60(sp)
   21710:	01141413          	slli	s0,s0,0x11
   21714:	01145413          	srli	s0,s0,0x11
   21718:	00f11623          	sh	a5,12(sp)
   2171c:	01041793          	slli	a5,s0,0x10
   21720:	00c12403          	lw	s0,12(sp)
   21724:	80010737          	lui	a4,0x80010
   21728:	fff70713          	addi	a4,a4,-1 # 8000ffff <__BSS_END__+0x7ffea407>
   2172c:	00e47433          	and	s0,s0,a4
   21730:	00f46433          	or	s0,s0,a5
   21734:	03012783          	lw	a5,48(sp)
   21738:	00141413          	slli	s0,s0,0x1
   2173c:	01f91913          	slli	s2,s2,0x1f
   21740:	00f4a023          	sw	a5,0(s1)
   21744:	03412783          	lw	a5,52(sp)
   21748:	00145413          	srli	s0,s0,0x1
   2174c:	01246433          	or	s0,s0,s2
   21750:	00f4a223          	sw	a5,4(s1)
   21754:	03812783          	lw	a5,56(sp)
   21758:	0084a623          	sw	s0,12(s1)
   2175c:	05c12083          	lw	ra,92(sp)
   21760:	05812403          	lw	s0,88(sp)
   21764:	00f4a423          	sw	a5,8(s1)
   21768:	00048513          	addi	a0,s1,0
   2176c:	05012903          	lw	s2,80(sp)
   21770:	05412483          	lw	s1,84(sp)
   21774:	04c12983          	lw	s3,76(sp)
   21778:	04812a03          	lw	s4,72(sp)
   2177c:	04412a83          	lw	s5,68(sp)
   21780:	06010113          	addi	sp,sp,96
   21784:	00008067          	jalr	zero,0(ra)
   21788:	fff58693          	addi	a3,a1,-1
   2178c:	04069e63          	bne	a3,zero,217e8 <__subtf3+0x664>
   21790:	02412683          	lw	a3,36(sp)
   21794:	00f70733          	add	a4,a4,a5
   21798:	00f737b3          	sltu	a5,a4,a5
   2179c:	00d30633          	add	a2,t1,a3
   217a0:	02e12823          	sw	a4,48(sp)
   217a4:	00f60733          	add	a4,a2,a5
   217a8:	00f737b3          	sltu	a5,a4,a5
   217ac:	02e12a23          	sw	a4,52(sp)
   217b0:	02812703          	lw	a4,40(sp)
   217b4:	00d636b3          	sltu	a3,a2,a3
   217b8:	00f6e7b3          	or	a5,a3,a5
   217bc:	00e506b3          	add	a3,a0,a4
   217c0:	00f68633          	add	a2,a3,a5
   217c4:	00f637b3          	sltu	a5,a2,a5
   217c8:	00e6b733          	sltu	a4,a3,a4
   217cc:	00f76733          	or	a4,a4,a5
   217d0:	02c12783          	lw	a5,44(sp)
   217d4:	02c12c23          	sw	a2,56(sp)
   217d8:	00fe0e33          	add	t3,t3,a5
   217dc:	01c70733          	add	a4,a4,t3
   217e0:	02e12e23          	sw	a4,60(sp)
   217e4:	b85ff06f          	jal	zero,21368 <__subtf3+0x1e4>
   217e8:	00008737          	lui	a4,0x8
   217ec:	fff70713          	addi	a4,a4,-1 # 7fff <main-0x8075>
   217f0:	e0e586e3          	beq	a1,a4,215fc <__subtf3+0x478>
   217f4:	07400793          	addi	a5,zero,116
   217f8:	06d7d263          	bge	a5,a3,2185c <__subtf3+0x6d8>
   217fc:	00012e23          	sw	zero,28(sp)
   21800:	00012c23          	sw	zero,24(sp)
   21804:	00012a23          	sw	zero,20(sp)
   21808:	00100793          	addi	a5,zero,1
   2180c:	1840006f          	jal	zero,21990 <__subtf3+0x80c>
   21810:	00008737          	lui	a4,0x8
   21814:	fff70713          	addi	a4,a4,-1 # 7fff <main-0x8075>
   21818:	02e61463          	bne	a2,a4,21840 <__subtf3+0x6bc>
   2181c:	02f12823          	sw	a5,48(sp)
   21820:	02412783          	lw	a5,36(sp)
   21824:	00060413          	addi	s0,a2,0
   21828:	02f12a23          	sw	a5,52(sp)
   2182c:	02812783          	lw	a5,40(sp)
   21830:	02f12c23          	sw	a5,56(sp)
   21834:	02c12783          	lw	a5,44(sp)
   21838:	02f12e23          	sw	a5,60(sp)
   2183c:	de1ff06f          	jal	zero,2161c <__subtf3+0x498>
   21840:	01c12783          	lw	a5,28(sp)
   21844:	00080737          	lui	a4,0x80
   21848:	00e7e7b3          	or	a5,a5,a4
   2184c:	00f12e23          	sw	a5,28(sp)
   21850:	07400793          	addi	a5,zero,116
   21854:	fab7c4e3          	blt	a5,a1,217fc <__subtf3+0x678>
   21858:	00058693          	addi	a3,a1,0
   2185c:	41f6d793          	srai	a5,a3,0x1f
   21860:	80000737          	lui	a4,0x80000
   21864:	01f7f793          	andi	a5,a5,31
   21868:	01f70713          	addi	a4,a4,31 # 8000001f <__BSS_END__+0x7ffda427>
   2186c:	00d787b3          	add	a5,a5,a3
   21870:	00e6f6b3          	and	a3,a3,a4
   21874:	4057d793          	srai	a5,a5,0x5
   21878:	0006d863          	bge	a3,zero,21888 <__subtf3+0x704>
   2187c:	fff68693          	addi	a3,a3,-1
   21880:	fe06e693          	ori	a3,a3,-32
   21884:	00168693          	addi	a3,a3,1
   21888:	00068713          	addi	a4,a3,0
   2188c:	00000313          	addi	t1,zero,0
   21890:	00000593          	addi	a1,zero,0
   21894:	04f5c063          	blt	a1,a5,218d4 <__subtf3+0x750>
   21898:	00078513          	addi	a0,a5,0
   2189c:	0007d463          	bge	a5,zero,218a4 <__subtf3+0x720>
   218a0:	00000513          	addi	a0,zero,0
   218a4:	00279593          	slli	a1,a5,0x2
   218a8:	04069263          	bne	a3,zero,218ec <__subtf3+0x768>
   218ac:	00300693          	addi	a3,zero,3
   218b0:	40f687b3          	sub	a5,a3,a5
   218b4:	00b806b3          	add	a3,a6,a1
   218b8:	0006a683          	lw	a3,0(a3)
   218bc:	00170713          	addi	a4,a4,1
   218c0:	00480813          	addi	a6,a6,4
   218c4:	fed82e23          	sw	a3,-4(a6)
   218c8:	fee7d6e3          	bge	a5,a4,218b4 <__subtf3+0x730>
   218cc:	00300693          	addi	a3,zero,3
   218d0:	0b00006f          	jal	zero,21980 <__subtf3+0x7fc>
   218d4:	00259513          	slli	a0,a1,0x2
   218d8:	00a88533          	add	a0,a7,a0
   218dc:	00052503          	lw	a0,0(a0)
   218e0:	00158593          	addi	a1,a1,1
   218e4:	00a36333          	or	t1,t1,a0
   218e8:	fadff06f          	jal	zero,21894 <__subtf3+0x710>
   218ec:	04010713          	addi	a4,sp,64
   218f0:	00251513          	slli	a0,a0,0x2
   218f4:	00a70533          	add	a0,a4,a0
   218f8:	fd052703          	lw	a4,-48(a0)
   218fc:	02000e13          	addi	t3,zero,32
   21900:	40de0e33          	sub	t3,t3,a3
   21904:	01c71733          	sll	a4,a4,t3
   21908:	00e36333          	or	t1,t1,a4
   2190c:	00300713          	addi	a4,zero,3
   21910:	00b885b3          	add	a1,a7,a1
   21914:	00000813          	addi	a6,zero,0
   21918:	40f70733          	sub	a4,a4,a5
   2191c:	00458593          	addi	a1,a1,4
   21920:	02e84463          	blt	a6,a4,21948 <__subtf3+0x7c4>
   21924:	04010593          	addi	a1,sp,64
   21928:	00271713          	slli	a4,a4,0x2
   2192c:	00e58733          	add	a4,a1,a4
   21930:	01c12583          	lw	a1,28(sp)
   21934:	00d5d6b3          	srl	a3,a1,a3
   21938:	fcd72823          	sw	a3,-48(a4)
   2193c:	00400713          	addi	a4,zero,4
   21940:	40f70733          	sub	a4,a4,a5
   21944:	f89ff06f          	jal	zero,218cc <__subtf3+0x748>
   21948:	ffc5a503          	lw	a0,-4(a1)
   2194c:	0005af03          	lw	t5,0(a1)
   21950:	00281e93          	slli	t4,a6,0x2
   21954:	00d55533          	srl	a0,a0,a3
   21958:	01cf1f33          	sll	t5,t5,t3
   2195c:	01d88eb3          	add	t4,a7,t4
   21960:	01e56533          	or	a0,a0,t5
   21964:	00aea023          	sw	a0,0(t4)
   21968:	00180813          	addi	a6,a6,1
   2196c:	fb1ff06f          	jal	zero,2191c <__subtf3+0x798>
   21970:	00271793          	slli	a5,a4,0x2
   21974:	00f887b3          	add	a5,a7,a5
   21978:	0007a023          	sw	zero,0(a5)
   2197c:	00170713          	addi	a4,a4,1
   21980:	fee6d8e3          	bge	a3,a4,21970 <__subtf3+0x7ec>
   21984:	01012703          	lw	a4,16(sp)
   21988:	006037b3          	sltu	a5,zero,t1
   2198c:	00f767b3          	or	a5,a4,a5
   21990:	00f12823          	sw	a5,16(sp)
   21994:	02012683          	lw	a3,32(sp)
   21998:	01012783          	lw	a5,16(sp)
   2199c:	02412703          	lw	a4,36(sp)
   219a0:	01812503          	lw	a0,24(sp)
   219a4:	00f687b3          	add	a5,a3,a5
   219a8:	00d7b6b3          	sltu	a3,a5,a3
   219ac:	02f12823          	sw	a5,48(sp)
   219b0:	01412783          	lw	a5,20(sp)
   219b4:	01c12803          	lw	a6,28(sp)
   219b8:	00060413          	addi	s0,a2,0
   219bc:	00f707b3          	add	a5,a4,a5
   219c0:	00d785b3          	add	a1,a5,a3
   219c4:	00e7b733          	sltu	a4,a5,a4
   219c8:	00d5b7b3          	sltu	a5,a1,a3
   219cc:	00f767b3          	or	a5,a4,a5
   219d0:	02812703          	lw	a4,40(sp)
   219d4:	02c12683          	lw	a3,44(sp)
   219d8:	02b12a23          	sw	a1,52(sp)
   219dc:	00a70533          	add	a0,a4,a0
   219e0:	00f505b3          	add	a1,a0,a5
   219e4:	00e53733          	sltu	a4,a0,a4
   219e8:	00f5b7b3          	sltu	a5,a1,a5
   219ec:	010686b3          	add	a3,a3,a6
   219f0:	00f76733          	or	a4,a4,a5
   219f4:	00e68733          	add	a4,a3,a4
   219f8:	02b12c23          	sw	a1,56(sp)
   219fc:	02e12e23          	sw	a4,60(sp)
   21a00:	b49ff06f          	jal	zero,21548 <__subtf3+0x3c4>
   21a04:	00008fb7          	lui	t6,0x8
   21a08:	00140513          	addi	a0,s0,1
   21a0c:	ffef8613          	addi	a2,t6,-2 # 7ffe <main-0x8076>
   21a10:	00c57633          	and	a2,a0,a2
   21a14:	02412683          	lw	a3,36(sp)
   21a18:	02812583          	lw	a1,40(sp)
   21a1c:	02c12803          	lw	a6,44(sp)
   21a20:	01412f03          	lw	t5,20(sp)
   21a24:	01812e83          	lw	t4,24(sp)
   21a28:	01c12883          	lw	a7,28(sp)
   21a2c:	03010313          	addi	t1,sp,48
   21a30:	03c10e13          	addi	t3,sp,60
   21a34:	14061663          	bne	a2,zero,21b80 <__subtf3+0x9fc>
   21a38:	01df6533          	or	a0,t5,t4
   21a3c:	01156533          	or	a0,a0,a7
   21a40:	00e56533          	or	a0,a0,a4
   21a44:	0a041663          	bne	s0,zero,21af0 <__subtf3+0x96c>
   21a48:	00051c63          	bne	a0,zero,21a60 <__subtf3+0x8dc>
   21a4c:	02f12823          	sw	a5,48(sp)
   21a50:	02d12a23          	sw	a3,52(sp)
   21a54:	02b12c23          	sw	a1,56(sp)
   21a58:	03012e23          	sw	a6,60(sp)
   21a5c:	bc1ff06f          	jal	zero,2161c <__subtf3+0x498>
   21a60:	00b6e633          	or	a2,a3,a1
   21a64:	01066633          	or	a2,a2,a6
   21a68:	00f66633          	or	a2,a2,a5
   21a6c:	00061c63          	bne	a2,zero,21a84 <__subtf3+0x900>
   21a70:	02e12823          	sw	a4,48(sp)
   21a74:	03e12a23          	sw	t5,52(sp)
   21a78:	03d12c23          	sw	t4,56(sp)
   21a7c:	03112e23          	sw	a7,60(sp)
   21a80:	b9dff06f          	jal	zero,2161c <__subtf3+0x498>
   21a84:	00f707b3          	add	a5,a4,a5
   21a88:	00e7b733          	sltu	a4,a5,a4
   21a8c:	01e686b3          	add	a3,a3,t5
   21a90:	02f12823          	sw	a5,48(sp)
   21a94:	00e687b3          	add	a5,a3,a4
   21a98:	00e7b733          	sltu	a4,a5,a4
   21a9c:	01e6b6b3          	sltu	a3,a3,t5
   21aa0:	00e6e733          	or	a4,a3,a4
   21aa4:	01d585b3          	add	a1,a1,t4
   21aa8:	02f12a23          	sw	a5,52(sp)
   21aac:	00e587b3          	add	a5,a1,a4
   21ab0:	01d5b633          	sltu	a2,a1,t4
   21ab4:	00e7b733          	sltu	a4,a5,a4
   21ab8:	00e66733          	or	a4,a2,a4
   21abc:	01180633          	add	a2,a6,a7
   21ac0:	00c70633          	add	a2,a4,a2
   21ac4:	02f12c23          	sw	a5,56(sp)
   21ac8:	00c61793          	slli	a5,a2,0xc
   21acc:	0007c663          	blt	a5,zero,21ad8 <__subtf3+0x954>
   21ad0:	02c12e23          	sw	a2,60(sp)
   21ad4:	b49ff06f          	jal	zero,2161c <__subtf3+0x498>
   21ad8:	fff80737          	lui	a4,0xfff80
   21adc:	fff70713          	addi	a4,a4,-1 # fff7ffff <__BSS_END__+0xfff5a407>
   21ae0:	00e67633          	and	a2,a2,a4
   21ae4:	02c12e23          	sw	a2,60(sp)
   21ae8:	00100413          	addi	s0,zero,1
   21aec:	b31ff06f          	jal	zero,2161c <__subtf3+0x498>
   21af0:	00051e63          	bne	a0,zero,21b0c <__subtf3+0x988>
   21af4:	02f12823          	sw	a5,48(sp)
   21af8:	02d12a23          	sw	a3,52(sp)
   21afc:	02b12c23          	sw	a1,56(sp)
   21b00:	03012e23          	sw	a6,60(sp)
   21b04:	ffff8413          	addi	s0,t6,-1
   21b08:	b15ff06f          	jal	zero,2161c <__subtf3+0x498>
   21b0c:	00b6e633          	or	a2,a3,a1
   21b10:	01066633          	or	a2,a2,a6
   21b14:	00f667b3          	or	a5,a2,a5
   21b18:	00079c63          	bne	a5,zero,21b30 <__subtf3+0x9ac>
   21b1c:	02e12823          	sw	a4,48(sp)
   21b20:	03e12a23          	sw	t5,52(sp)
   21b24:	03d12c23          	sw	t4,56(sp)
   21b28:	03112e23          	sw	a7,60(sp)
   21b2c:	fd9ff06f          	jal	zero,21b04 <__subtf3+0x980>
   21b30:	03f12e23          	sw	t6,60(sp)
   21b34:	02012c23          	sw	zero,56(sp)
   21b38:	02012a23          	sw	zero,52(sp)
   21b3c:	02012823          	sw	zero,48(sp)
   21b40:	000e0713          	addi	a4,t3,0
   21b44:	00072783          	lw	a5,0(a4)
   21b48:	ffc72683          	lw	a3,-4(a4)
   21b4c:	ffc70713          	addi	a4,a4,-4
   21b50:	00379793          	slli	a5,a5,0x3
   21b54:	01d6d693          	srli	a3,a3,0x1d
   21b58:	00d7e7b3          	or	a5,a5,a3
   21b5c:	00f72223          	sw	a5,4(a4)
   21b60:	fee312e3          	bne	t1,a4,21b44 <__subtf3+0x9c0>
   21b64:	03012783          	lw	a5,48(sp)
   21b68:	00008437          	lui	s0,0x8
   21b6c:	00000913          	addi	s2,zero,0
   21b70:	00379793          	slli	a5,a5,0x3
   21b74:	02f12823          	sw	a5,48(sp)
   21b78:	fff40413          	addi	s0,s0,-1 # 7fff <main-0x8075>
   21b7c:	aa1ff06f          	jal	zero,2161c <__subtf3+0x498>
   21b80:	00f707b3          	add	a5,a4,a5
   21b84:	00e7b733          	sltu	a4,a5,a4
   21b88:	01e686b3          	add	a3,a3,t5
   21b8c:	02f12823          	sw	a5,48(sp)
   21b90:	00e687b3          	add	a5,a3,a4
   21b94:	00e7b733          	sltu	a4,a5,a4
   21b98:	01e6b6b3          	sltu	a3,a3,t5
   21b9c:	00e6e733          	or	a4,a3,a4
   21ba0:	01d58633          	add	a2,a1,t4
   21ba4:	00e606b3          	add	a3,a2,a4
   21ba8:	00e6b733          	sltu	a4,a3,a4
   21bac:	01d63633          	sltu	a2,a2,t4
   21bb0:	00e66633          	or	a2,a2,a4
   21bb4:	01180733          	add	a4,a6,a7
   21bb8:	00e60633          	add	a2,a2,a4
   21bbc:	02f12a23          	sw	a5,52(sp)
   21bc0:	02d12c23          	sw	a3,56(sp)
   21bc4:	02c12e23          	sw	a2,60(sp)
   21bc8:	00030793          	addi	a5,t1,0
   21bcc:	0007a703          	lw	a4,0(a5)
   21bd0:	0047a683          	lw	a3,4(a5)
   21bd4:	00478793          	addi	a5,a5,4
   21bd8:	00175713          	srli	a4,a4,0x1
   21bdc:	01f69693          	slli	a3,a3,0x1f
   21be0:	00d76733          	or	a4,a4,a3
   21be4:	fee7ae23          	sw	a4,-4(a5)
   21be8:	fefe12e3          	bne	t3,a5,21bcc <__subtf3+0xa48>
   21bec:	000087b7          	lui	a5,0x8
   21bf0:	fff78793          	addi	a5,a5,-1 # 7fff <main-0x8075>
   21bf4:	00f50c63          	beq	a0,a5,21c0c <__subtf3+0xa88>
   21bf8:	03c12783          	lw	a5,60(sp)
   21bfc:	0017d793          	srli	a5,a5,0x1
   21c00:	02f12e23          	sw	a5,60(sp)
   21c04:	00050413          	addi	s0,a0,0
   21c08:	a15ff06f          	jal	zero,2161c <__subtf3+0x498>
   21c0c:	02012e23          	sw	zero,60(sp)
   21c10:	02012c23          	sw	zero,56(sp)
   21c14:	02012a23          	sw	zero,52(sp)
   21c18:	02012823          	sw	zero,48(sp)
   21c1c:	fe9ff06f          	jal	zero,21c04 <__subtf3+0xa80>
   21c20:	28b05063          	bge	zero,a1,21ea0 <__subtf3+0xd1c>
   21c24:	0c061063          	bne	a2,zero,21ce4 <__subtf3+0xb60>
   21c28:	02412503          	lw	a0,36(sp)
   21c2c:	02812683          	lw	a3,40(sp)
   21c30:	02c12e83          	lw	t4,44(sp)
   21c34:	00d56633          	or	a2,a0,a3
   21c38:	01d66633          	or	a2,a2,t4
   21c3c:	00f66633          	or	a2,a2,a5
   21c40:	ea060863          	beq	a2,zero,212f0 <__subtf3+0x16c>
   21c44:	fff58813          	addi	a6,a1,-1
   21c48:	06081a63          	bne	a6,zero,21cbc <__subtf3+0xb38>
   21c4c:	01412883          	lw	a7,20(sp)
   21c50:	40f707b3          	sub	a5,a4,a5
   21c54:	00f73633          	sltu	a2,a4,a5
   21c58:	40a885b3          	sub	a1,a7,a0
   21c5c:	00b8b333          	sltu	t1,a7,a1
   21c60:	40c585b3          	sub	a1,a1,a2
   21c64:	02f12823          	sw	a5,48(sp)
   21c68:	02b12a23          	sw	a1,52(sp)
   21c6c:	00000613          	addi	a2,zero,0
   21c70:	00f77663          	bgeu	a4,a5,21c7c <__subtf3+0xaf8>
   21c74:	41150633          	sub	a2,a0,a7
   21c78:	00163613          	sltiu	a2,a2,1
   21c7c:	01812503          	lw	a0,24(sp)
   21c80:	00666633          	or	a2,a2,t1
   21c84:	40d505b3          	sub	a1,a0,a3
   21c88:	00b537b3          	sltu	a5,a0,a1
   21c8c:	40c585b3          	sub	a1,a1,a2
   21c90:	02b12c23          	sw	a1,56(sp)
   21c94:	00060663          	beq	a2,zero,21ca0 <__subtf3+0xb1c>
   21c98:	40a686b3          	sub	a3,a3,a0
   21c9c:	0016b813          	sltiu	a6,a3,1
   21ca0:	01c12703          	lw	a4,28(sp)
   21ca4:	00f867b3          	or	a5,a6,a5
   21ca8:	41d70733          	sub	a4,a4,t4
   21cac:	40f707b3          	sub	a5,a4,a5
   21cb0:	02f12e23          	sw	a5,60(sp)
   21cb4:	00100413          	addi	s0,zero,1
   21cb8:	1c80006f          	jal	zero,21e80 <__subtf3+0xcfc>
   21cbc:	000087b7          	lui	a5,0x8
   21cc0:	fff78793          	addi	a5,a5,-1 # 7fff <main-0x8075>
   21cc4:	e2f58663          	beq	a1,a5,212f0 <__subtf3+0x16c>
   21cc8:	07400793          	addi	a5,zero,116
   21ccc:	0507d063          	bge	a5,a6,21d0c <__subtf3+0xb88>
   21cd0:	02012623          	sw	zero,44(sp)
   21cd4:	02012423          	sw	zero,40(sp)
   21cd8:	02012223          	sw	zero,36(sp)
   21cdc:	00100793          	addi	a5,zero,1
   21ce0:	1240006f          	jal	zero,21e04 <__subtf3+0xc80>
   21ce4:	000087b7          	lui	a5,0x8
   21ce8:	fff78793          	addi	a5,a5,-1 # 7fff <main-0x8075>
   21cec:	eaf40e63          	beq	s0,a5,213a8 <__subtf3+0x224>
   21cf0:	02c12783          	lw	a5,44(sp)
   21cf4:	00080737          	lui	a4,0x80
   21cf8:	00e7e7b3          	or	a5,a5,a4
   21cfc:	02f12623          	sw	a5,44(sp)
   21d00:	07400793          	addi	a5,zero,116
   21d04:	fcb7c6e3          	blt	a5,a1,21cd0 <__subtf3+0xb4c>
   21d08:	00058813          	addi	a6,a1,0
   21d0c:	40585893          	srai	a7,a6,0x5
   21d10:	01f87793          	andi	a5,a6,31
   21d14:	00000593          	addi	a1,zero,0
   21d18:	00000713          	addi	a4,zero,0
   21d1c:	00271693          	slli	a3,a4,0x2
   21d20:	03171863          	bne	a4,a7,21d50 <__subtf3+0xbcc>
   21d24:	04079063          	bne	a5,zero,21d64 <__subtf3+0xbe0>
   21d28:	00300613          	addi	a2,zero,3
   21d2c:	40e60733          	sub	a4,a2,a4
   21d30:	00de0633          	add	a2,t3,a3
   21d34:	00062603          	lw	a2,0(a2)
   21d38:	00178793          	addi	a5,a5,1
   21d3c:	004e0e13          	addi	t3,t3,4
   21d40:	fece2e23          	sw	a2,-4(t3)
   21d44:	fef756e3          	bge	a4,a5,21d30 <__subtf3+0xbac>
   21d48:	00400693          	addi	a3,zero,4
   21d4c:	0a80006f          	jal	zero,21df4 <__subtf3+0xc70>
   21d50:	00d306b3          	add	a3,t1,a3
   21d54:	0006a683          	lw	a3,0(a3)
   21d58:	00170713          	addi	a4,a4,1 # 80001 <__BSS_END__+0x5a409>
   21d5c:	00d5e5b3          	or	a1,a1,a3
   21d60:	fbdff06f          	jal	zero,21d1c <__subtf3+0xb98>
   21d64:	04010713          	addi	a4,sp,64
   21d68:	00d70733          	add	a4,a4,a3
   21d6c:	fe072703          	lw	a4,-32(a4)
   21d70:	02000813          	addi	a6,zero,32
   21d74:	40f80833          	sub	a6,a6,a5
   21d78:	01071733          	sll	a4,a4,a6
   21d7c:	00e5e5b3          	or	a1,a1,a4
   21d80:	00300713          	addi	a4,zero,3
   21d84:	00d306b3          	add	a3,t1,a3
   21d88:	00000513          	addi	a0,zero,0
   21d8c:	41170733          	sub	a4,a4,a7
   21d90:	00468693          	addi	a3,a3,4
   21d94:	02e54463          	blt	a0,a4,21dbc <__subtf3+0xc38>
   21d98:	04010693          	addi	a3,sp,64
   21d9c:	00271713          	slli	a4,a4,0x2
   21da0:	00e68733          	add	a4,a3,a4
   21da4:	02c12683          	lw	a3,44(sp)
   21da8:	00f6d7b3          	srl	a5,a3,a5
   21dac:	fef72023          	sw	a5,-32(a4)
   21db0:	00400793          	addi	a5,zero,4
   21db4:	411787b3          	sub	a5,a5,a7
   21db8:	f91ff06f          	jal	zero,21d48 <__subtf3+0xbc4>
   21dbc:	ffc6a603          	lw	a2,-4(a3)
   21dc0:	0006ae83          	lw	t4,0(a3)
   21dc4:	00251e13          	slli	t3,a0,0x2
   21dc8:	00f65633          	srl	a2,a2,a5
   21dcc:	010e9eb3          	sll	t4,t4,a6
   21dd0:	01c30e33          	add	t3,t1,t3
   21dd4:	01d66633          	or	a2,a2,t4
   21dd8:	00ce2023          	sw	a2,0(t3)
   21ddc:	00150513          	addi	a0,a0,1
   21de0:	fb1ff06f          	jal	zero,21d90 <__subtf3+0xc0c>
   21de4:	00279713          	slli	a4,a5,0x2
   21de8:	00e30733          	add	a4,t1,a4
   21dec:	00072023          	sw	zero,0(a4)
   21df0:	00178793          	addi	a5,a5,1
   21df4:	fed798e3          	bne	a5,a3,21de4 <__subtf3+0xc60>
   21df8:	02012703          	lw	a4,32(sp)
   21dfc:	00b037b3          	sltu	a5,zero,a1
   21e00:	00f767b3          	or	a5,a4,a5
   21e04:	02f12023          	sw	a5,32(sp)
   21e08:	01412683          	lw	a3,20(sp)
   21e0c:	01012583          	lw	a1,16(sp)
   21e10:	02012703          	lw	a4,32(sp)
   21e14:	02412783          	lw	a5,36(sp)
   21e18:	40e58733          	sub	a4,a1,a4
   21e1c:	40f687b3          	sub	a5,a3,a5
   21e20:	00f6b633          	sltu	a2,a3,a5
   21e24:	00e5b6b3          	sltu	a3,a1,a4
   21e28:	40d786b3          	sub	a3,a5,a3
   21e2c:	02d12a23          	sw	a3,52(sp)
   21e30:	02e12823          	sw	a4,48(sp)
   21e34:	00000693          	addi	a3,zero,0
   21e38:	00e5f463          	bgeu	a1,a4,21e40 <__subtf3+0xcbc>
   21e3c:	0017b693          	sltiu	a3,a5,1
   21e40:	00c6e6b3          	or	a3,a3,a2
   21e44:	02812703          	lw	a4,40(sp)
   21e48:	01812603          	lw	a2,24(sp)
   21e4c:	40e60733          	sub	a4,a2,a4
   21e50:	40d707b3          	sub	a5,a4,a3
   21e54:	02f12c23          	sw	a5,56(sp)
   21e58:	00e635b3          	sltu	a1,a2,a4
   21e5c:	00000613          	addi	a2,zero,0
   21e60:	00068463          	beq	a3,zero,21e68 <__subtf3+0xce4>
   21e64:	00173613          	sltiu	a2,a4,1
   21e68:	01c12783          	lw	a5,28(sp)
   21e6c:	02c12703          	lw	a4,44(sp)
   21e70:	00b66633          	or	a2,a2,a1
   21e74:	40e787b3          	sub	a5,a5,a4
   21e78:	40c787b3          	sub	a5,a5,a2
   21e7c:	02f12e23          	sw	a5,60(sp)
   21e80:	03c12783          	lw	a5,60(sp)
   21e84:	00c79713          	slli	a4,a5,0xc
   21e88:	f8075a63          	bge	a4,zero,2161c <__subtf3+0x498>
   21e8c:	00080737          	lui	a4,0x80
   21e90:	fff70713          	addi	a4,a4,-1 # 7ffff <__BSS_END__+0x5a407>
   21e94:	00e7f7b3          	and	a5,a5,a4
   21e98:	02f12e23          	sw	a5,60(sp)
   21e9c:	5bc0006f          	jal	zero,22458 <__subtf3+0x12d4>
   21ea0:	2e058e63          	beq	a1,zero,2219c <__subtf3+0x1018>
   21ea4:	40860eb3          	sub	t4,a2,s0
   21ea8:	0e041463          	bne	s0,zero,21f90 <__subtf3+0xe0c>
   21eac:	01412303          	lw	t1,20(sp)
   21eb0:	01812583          	lw	a1,24(sp)
   21eb4:	01c12f03          	lw	t5,28(sp)
   21eb8:	00b36e33          	or	t3,t1,a1
   21ebc:	01ee6e33          	or	t3,t3,t5
   21ec0:	00ee6e33          	or	t3,t3,a4
   21ec4:	020e1663          	bne	t3,zero,21ef0 <__subtf3+0xd6c>
   21ec8:	02f12823          	sw	a5,48(sp)
   21ecc:	02412783          	lw	a5,36(sp)
   21ed0:	000e8413          	addi	s0,t4,0
   21ed4:	02f12a23          	sw	a5,52(sp)
   21ed8:	02812783          	lw	a5,40(sp)
   21edc:	02f12c23          	sw	a5,56(sp)
   21ee0:	02c12783          	lw	a5,44(sp)
   21ee4:	02f12e23          	sw	a5,60(sp)
   21ee8:	00050913          	addi	s2,a0,0
   21eec:	f30ff06f          	jal	zero,2161c <__subtf3+0x498>
   21ef0:	fffe8693          	addi	a3,t4,-1
   21ef4:	06069a63          	bne	a3,zero,21f68 <__subtf3+0xde4>
   21ef8:	02412883          	lw	a7,36(sp)
   21efc:	40e78733          	sub	a4,a5,a4
   21f00:	00e7b633          	sltu	a2,a5,a4
   21f04:	40688833          	sub	a6,a7,t1
   21f08:	0108be33          	sltu	t3,a7,a6
   21f0c:	40c80833          	sub	a6,a6,a2
   21f10:	02e12823          	sw	a4,48(sp)
   21f14:	03012a23          	sw	a6,52(sp)
   21f18:	00000613          	addi	a2,zero,0
   21f1c:	00e7f663          	bgeu	a5,a4,21f28 <__subtf3+0xda4>
   21f20:	41130633          	sub	a2,t1,a7
   21f24:	00163613          	sltiu	a2,a2,1
   21f28:	02812883          	lw	a7,40(sp)
   21f2c:	01c66733          	or	a4,a2,t3
   21f30:	40b88633          	sub	a2,a7,a1
   21f34:	00c8b833          	sltu	a6,a7,a2
   21f38:	40e60633          	sub	a2,a2,a4
   21f3c:	02c12c23          	sw	a2,56(sp)
   21f40:	00070663          	beq	a4,zero,21f4c <__subtf3+0xdc8>
   21f44:	411585b3          	sub	a1,a1,a7
   21f48:	0015b693          	sltiu	a3,a1,1
   21f4c:	02c12783          	lw	a5,44(sp)
   21f50:	0106e6b3          	or	a3,a3,a6
   21f54:	00050913          	addi	s2,a0,0
   21f58:	41e787b3          	sub	a5,a5,t5
   21f5c:	40d786b3          	sub	a3,a5,a3
   21f60:	02d12e23          	sw	a3,60(sp)
   21f64:	d51ff06f          	jal	zero,21cb4 <__subtf3+0xb30>
   21f68:	00008737          	lui	a4,0x8
   21f6c:	fff70713          	addi	a4,a4,-1 # 7fff <main-0x8075>
   21f70:	f4ee8ce3          	beq	t4,a4,21ec8 <__subtf3+0xd44>
   21f74:	07400793          	addi	a5,zero,116
   21f78:	0cd7dc63          	bge	a5,a3,22050 <__subtf3+0xecc>
   21f7c:	00012e23          	sw	zero,28(sp)
   21f80:	00012c23          	sw	zero,24(sp)
   21f84:	00012a23          	sw	zero,20(sp)
   21f88:	00100793          	addi	a5,zero,1
   21f8c:	1880006f          	jal	zero,22114 <__subtf3+0xf90>
   21f90:	00008737          	lui	a4,0x8
   21f94:	fff70713          	addi	a4,a4,-1 # 7fff <main-0x8075>
   21f98:	02e61463          	bne	a2,a4,21fc0 <__subtf3+0xe3c>
   21f9c:	02f12823          	sw	a5,48(sp)
   21fa0:	02412783          	lw	a5,36(sp)
   21fa4:	00060413          	addi	s0,a2,0
   21fa8:	02f12a23          	sw	a5,52(sp)
   21fac:	02812783          	lw	a5,40(sp)
   21fb0:	02f12c23          	sw	a5,56(sp)
   21fb4:	02c12783          	lw	a5,44(sp)
   21fb8:	02f12e23          	sw	a5,60(sp)
   21fbc:	f2dff06f          	jal	zero,21ee8 <__subtf3+0xd64>
   21fc0:	01c12783          	lw	a5,28(sp)
   21fc4:	00080737          	lui	a4,0x80
   21fc8:	00e7e7b3          	or	a5,a5,a4
   21fcc:	00f12e23          	sw	a5,28(sp)
   21fd0:	07400793          	addi	a5,zero,116
   21fd4:	fbd7c4e3          	blt	a5,t4,21f7c <__subtf3+0xdf8>
   21fd8:	41fed793          	srai	a5,t4,0x1f
   21fdc:	800005b7          	lui	a1,0x80000
   21fe0:	01f7f793          	andi	a5,a5,31
   21fe4:	01f58593          	addi	a1,a1,31 # 8000001f <__BSS_END__+0x7ffda427>
   21fe8:	01d787b3          	add	a5,a5,t4
   21fec:	00bef5b3          	and	a1,t4,a1
   21ff0:	4057d313          	srai	t1,a5,0x5
   21ff4:	0005d863          	bge	a1,zero,22004 <__subtf3+0xe80>
   21ff8:	fff58593          	addi	a1,a1,-1
   21ffc:	fe05e593          	ori	a1,a1,-32
   22000:	00158593          	addi	a1,a1,1
   22004:	00058793          	addi	a5,a1,0
   22008:	00000e13          	addi	t3,zero,0
   2200c:	00000713          	addi	a4,zero,0
   22010:	04674463          	blt	a4,t1,22058 <__subtf3+0xed4>
   22014:	00030693          	addi	a3,t1,0
   22018:	00035463          	bge	t1,zero,22020 <__subtf3+0xe9c>
   2201c:	00000693          	addi	a3,zero,0
   22020:	00231713          	slli	a4,t1,0x2
   22024:	04059663          	bne	a1,zero,22070 <__subtf3+0xeec>
   22028:	00300693          	addi	a3,zero,3
   2202c:	40668333          	sub	t1,a3,t1
   22030:	00e806b3          	add	a3,a6,a4
   22034:	0006a683          	lw	a3,0(a3)
   22038:	00178793          	addi	a5,a5,1
   2203c:	00480813          	addi	a6,a6,4
   22040:	fed82e23          	sw	a3,-4(a6)
   22044:	fef356e3          	bge	t1,a5,22030 <__subtf3+0xeac>
   22048:	00300693          	addi	a3,zero,3
   2204c:	0b80006f          	jal	zero,22104 <__subtf3+0xf80>
   22050:	00068e93          	addi	t4,a3,0
   22054:	f85ff06f          	jal	zero,21fd8 <__subtf3+0xe54>
   22058:	00271693          	slli	a3,a4,0x2
   2205c:	00d886b3          	add	a3,a7,a3
   22060:	0006a683          	lw	a3,0(a3)
   22064:	00170713          	addi	a4,a4,1 # 80001 <__BSS_END__+0x5a409>
   22068:	00de6e33          	or	t3,t3,a3
   2206c:	fa5ff06f          	jal	zero,22010 <__subtf3+0xe8c>
   22070:	04010793          	addi	a5,sp,64
   22074:	00269693          	slli	a3,a3,0x2
   22078:	00d786b3          	add	a3,a5,a3
   2207c:	fd06a783          	lw	a5,-48(a3)
   22080:	02000e93          	addi	t4,zero,32
   22084:	40be8eb3          	sub	t4,t4,a1
   22088:	01d797b3          	sll	a5,a5,t4
   2208c:	00fe6e33          	or	t3,t3,a5
   22090:	00300793          	addi	a5,zero,3
   22094:	00e88733          	add	a4,a7,a4
   22098:	00000813          	addi	a6,zero,0
   2209c:	406787b3          	sub	a5,a5,t1
   220a0:	00470713          	addi	a4,a4,4
   220a4:	02f84463          	blt	a6,a5,220cc <__subtf3+0xf48>
   220a8:	04010713          	addi	a4,sp,64
   220ac:	00279793          	slli	a5,a5,0x2
   220b0:	00f707b3          	add	a5,a4,a5
   220b4:	01c12703          	lw	a4,28(sp)
   220b8:	00b755b3          	srl	a1,a4,a1
   220bc:	fcb7a823          	sw	a1,-48(a5)
   220c0:	00400793          	addi	a5,zero,4
   220c4:	406787b3          	sub	a5,a5,t1
   220c8:	f81ff06f          	jal	zero,22048 <__subtf3+0xec4>
   220cc:	ffc72683          	lw	a3,-4(a4)
   220d0:	00072f83          	lw	t6,0(a4)
   220d4:	00281f13          	slli	t5,a6,0x2
   220d8:	00b6d6b3          	srl	a3,a3,a1
   220dc:	01df9fb3          	sll	t6,t6,t4
   220e0:	01e88f33          	add	t5,a7,t5
   220e4:	01f6e6b3          	or	a3,a3,t6
   220e8:	00df2023          	sw	a3,0(t5)
   220ec:	00180813          	addi	a6,a6,1
   220f0:	fb1ff06f          	jal	zero,220a0 <__subtf3+0xf1c>
   220f4:	00279713          	slli	a4,a5,0x2
   220f8:	00e88733          	add	a4,a7,a4
   220fc:	00072023          	sw	zero,0(a4)
   22100:	00178793          	addi	a5,a5,1
   22104:	fef6d8e3          	bge	a3,a5,220f4 <__subtf3+0xf70>
   22108:	01012703          	lw	a4,16(sp)
   2210c:	01c037b3          	sltu	a5,zero,t3
   22110:	00f767b3          	or	a5,a4,a5
   22114:	00f12823          	sw	a5,16(sp)
   22118:	02412683          	lw	a3,36(sp)
   2211c:	02012803          	lw	a6,32(sp)
   22120:	01012703          	lw	a4,16(sp)
   22124:	01412783          	lw	a5,20(sp)
   22128:	40e80733          	sub	a4,a6,a4
   2212c:	40f687b3          	sub	a5,a3,a5
   22130:	00f6b5b3          	sltu	a1,a3,a5
   22134:	00e836b3          	sltu	a3,a6,a4
   22138:	40d786b3          	sub	a3,a5,a3
   2213c:	02d12a23          	sw	a3,52(sp)
   22140:	02e12823          	sw	a4,48(sp)
   22144:	00000693          	addi	a3,zero,0
   22148:	00e87463          	bgeu	a6,a4,22150 <__subtf3+0xfcc>
   2214c:	0017b693          	sltiu	a3,a5,1
   22150:	00b6e6b3          	or	a3,a3,a1
   22154:	01812703          	lw	a4,24(sp)
   22158:	02812583          	lw	a1,40(sp)
   2215c:	40e58733          	sub	a4,a1,a4
   22160:	40d707b3          	sub	a5,a4,a3
   22164:	02f12c23          	sw	a5,56(sp)
   22168:	00e5b833          	sltu	a6,a1,a4
   2216c:	00000593          	addi	a1,zero,0
   22170:	00068463          	beq	a3,zero,22178 <__subtf3+0xff4>
   22174:	00173593          	sltiu	a1,a4,1
   22178:	02c12783          	lw	a5,44(sp)
   2217c:	01c12703          	lw	a4,28(sp)
   22180:	0105e5b3          	or	a1,a1,a6
   22184:	00060413          	addi	s0,a2,0
   22188:	40e787b3          	sub	a5,a5,a4
   2218c:	40b787b3          	sub	a5,a5,a1
   22190:	02f12e23          	sw	a5,60(sp)
   22194:	00050913          	addi	s2,a0,0
   22198:	ce9ff06f          	jal	zero,21e80 <__subtf3+0xcfc>
   2219c:	00008fb7          	lui	t6,0x8
   221a0:	ffef8693          	addi	a3,t6,-2 # 7ffe <main-0x8076>
   221a4:	00140e93          	addi	t4,s0,1
   221a8:	00defeb3          	and	t4,t4,a3
   221ac:	02412603          	lw	a2,36(sp)
   221b0:	01412683          	lw	a3,20(sp)
   221b4:	01812803          	lw	a6,24(sp)
   221b8:	01c12e03          	lw	t3,28(sp)
   221bc:	02812883          	lw	a7,40(sp)
   221c0:	02c12303          	lw	t1,44(sp)
   221c4:	1c0e9c63          	bne	t4,zero,2239c <__subtf3+0x1218>
   221c8:	01166eb3          	or	t4,a2,a7
   221cc:	0106ef33          	or	t5,a3,a6
   221d0:	006eeeb3          	or	t4,t4,t1
   221d4:	01cf6f33          	or	t5,t5,t3
   221d8:	00feeeb3          	or	t4,t4,a5
   221dc:	00ef6f33          	or	t5,t5,a4
   221e0:	10041863          	bne	s0,zero,222f0 <__subtf3+0x116c>
   221e4:	020f1463          	bne	t5,zero,2220c <__subtf3+0x1088>
   221e8:	02f12823          	sw	a5,48(sp)
   221ec:	02c12a23          	sw	a2,52(sp)
   221f0:	03112c23          	sw	a7,56(sp)
   221f4:	02612e23          	sw	t1,60(sp)
   221f8:	00050913          	addi	s2,a0,0
   221fc:	c20e9063          	bne	t4,zero,2161c <__subtf3+0x498>
   22200:	00000413          	addi	s0,zero,0
   22204:	00000913          	addi	s2,zero,0
   22208:	c14ff06f          	jal	zero,2161c <__subtf3+0x498>
   2220c:	000e9c63          	bne	t4,zero,22224 <__subtf3+0x10a0>
   22210:	02e12823          	sw	a4,48(sp)
   22214:	02d12a23          	sw	a3,52(sp)
   22218:	03012c23          	sw	a6,56(sp)
   2221c:	03c12e23          	sw	t3,60(sp)
   22220:	bfcff06f          	jal	zero,2161c <__subtf3+0x498>
   22224:	40f70eb3          	sub	t4,a4,a5
   22228:	40c682b3          	sub	t0,a3,a2
   2222c:	01d73fb3          	sltu	t6,a4,t4
   22230:	0056bf33          	sltu	t5,a3,t0
   22234:	41f282b3          	sub	t0,t0,t6
   22238:	03d12823          	sw	t4,48(sp)
   2223c:	02512a23          	sw	t0,52(sp)
   22240:	00000f93          	addi	t6,zero,0
   22244:	01d77663          	bgeu	a4,t4,22250 <__subtf3+0x10cc>
   22248:	40d60fb3          	sub	t6,a2,a3
   2224c:	001fbf93          	sltiu	t6,t6,1
   22250:	411803b3          	sub	t2,a6,a7
   22254:	01efefb3          	or	t6,t6,t5
   22258:	41f38a33          	sub	s4,t2,t6
   2225c:	03412c23          	sw	s4,56(sp)
   22260:	00783ab3          	sltu	s5,a6,t2
   22264:	00000993          	addi	s3,zero,0
   22268:	000f8463          	beq	t6,zero,22270 <__subtf3+0x10ec>
   2226c:	0013b993          	sltiu	s3,t2,1
   22270:	406e0f33          	sub	t5,t3,t1
   22274:	0159e9b3          	or	s3,s3,s5
   22278:	413f0f33          	sub	t5,t5,s3
   2227c:	03e12e23          	sw	t5,60(sp)
   22280:	00cf1f93          	slli	t6,t5,0xc
   22284:	040fde63          	bge	t6,zero,222e0 <__subtf3+0x115c>
   22288:	40e78733          	sub	a4,a5,a4
   2228c:	40d606b3          	sub	a3,a2,a3
   22290:	00e7beb3          	sltu	t4,a5,a4
   22294:	41d68eb3          	sub	t4,a3,t4
   22298:	03d12a23          	sw	t4,52(sp)
   2229c:	02e12823          	sw	a4,48(sp)
   222a0:	00d63633          	sltu	a2,a2,a3
   222a4:	00000e93          	addi	t4,zero,0
   222a8:	00e7f463          	bgeu	a5,a4,222b0 <__subtf3+0x112c>
   222ac:	0016be93          	sltiu	t4,a3,1
   222b0:	41088733          	sub	a4,a7,a6
   222b4:	00cee633          	or	a2,t4,a2
   222b8:	00e8b7b3          	sltu	a5,a7,a4
   222bc:	40c70733          	sub	a4,a4,a2
   222c0:	02e12c23          	sw	a4,56(sp)
   222c4:	00060463          	beq	a2,zero,222cc <__subtf3+0x1148>
   222c8:	0013b593          	sltiu	a1,t2,1
   222cc:	41c30733          	sub	a4,t1,t3
   222d0:	00f5e7b3          	or	a5,a1,a5
   222d4:	40f707b3          	sub	a5,a4,a5
   222d8:	02f12e23          	sw	a5,60(sp)
   222dc:	c0dff06f          	jal	zero,21ee8 <__subtf3+0xd64>
   222e0:	005eeeb3          	or	t4,t4,t0
   222e4:	014eeeb3          	or	t4,t4,s4
   222e8:	01eeeeb3          	or	t4,t4,t5
   222ec:	f11ff06f          	jal	zero,221fc <__subtf3+0x1078>
   222f0:	03010593          	addi	a1,sp,48
   222f4:	040f1c63          	bne	t5,zero,2234c <__subtf3+0x11c8>
   222f8:	020e9e63          	bne	t4,zero,22334 <__subtf3+0x11b0>
   222fc:	03f12e23          	sw	t6,60(sp)
   22300:	02012c23          	sw	zero,56(sp)
   22304:	02012a23          	sw	zero,52(sp)
   22308:	02012823          	sw	zero,48(sp)
   2230c:	03c10793          	addi	a5,sp,60
   22310:	0007a703          	lw	a4,0(a5)
   22314:	ffc7a683          	lw	a3,-4(a5)
   22318:	ffc78793          	addi	a5,a5,-4
   2231c:	00371713          	slli	a4,a4,0x3
   22320:	01d6d693          	srli	a3,a3,0x1d
   22324:	00d76733          	or	a4,a4,a3
   22328:	00e7a223          	sw	a4,4(a5)
   2232c:	fef592e3          	bne	a1,a5,22310 <__subtf3+0x118c>
   22330:	835ff06f          	jal	zero,21b64 <__subtf3+0x9e0>
   22334:	02f12823          	sw	a5,48(sp)
   22338:	02c12a23          	sw	a2,52(sp)
   2233c:	03112c23          	sw	a7,56(sp)
   22340:	02612e23          	sw	t1,60(sp)
   22344:	00050913          	addi	s2,a0,0
   22348:	fbcff06f          	jal	zero,21b04 <__subtf3+0x980>
   2234c:	000e9c63          	bne	t4,zero,22364 <__subtf3+0x11e0>
   22350:	02e12823          	sw	a4,48(sp)
   22354:	02d12a23          	sw	a3,52(sp)
   22358:	03012c23          	sw	a6,56(sp)
   2235c:	03c12e23          	sw	t3,60(sp)
   22360:	fa4ff06f          	jal	zero,21b04 <__subtf3+0x980>
   22364:	03f12e23          	sw	t6,60(sp)
   22368:	02012c23          	sw	zero,56(sp)
   2236c:	02012a23          	sw	zero,52(sp)
   22370:	02012823          	sw	zero,48(sp)
   22374:	03c10793          	addi	a5,sp,60
   22378:	0007a703          	lw	a4,0(a5)
   2237c:	ffc7a683          	lw	a3,-4(a5)
   22380:	ffc78793          	addi	a5,a5,-4
   22384:	00371713          	slli	a4,a4,0x3
   22388:	01d6d693          	srli	a3,a3,0x1d
   2238c:	00d76733          	or	a4,a4,a3
   22390:	00e7a223          	sw	a4,4(a5)
   22394:	fef592e3          	bne	a1,a5,22378 <__subtf3+0x11f4>
   22398:	fccff06f          	jal	zero,21b64 <__subtf3+0x9e0>
   2239c:	40f70eb3          	sub	t4,a4,a5
   223a0:	40c682b3          	sub	t0,a3,a2
   223a4:	01d73fb3          	sltu	t6,a4,t4
   223a8:	0056bf33          	sltu	t5,a3,t0
   223ac:	41f282b3          	sub	t0,t0,t6
   223b0:	03d12823          	sw	t4,48(sp)
   223b4:	02512a23          	sw	t0,52(sp)
   223b8:	00000f93          	addi	t6,zero,0
   223bc:	01d77663          	bgeu	a4,t4,223c8 <__subtf3+0x1244>
   223c0:	40d60fb3          	sub	t6,a2,a3
   223c4:	001fbf93          	sltiu	t6,t6,1
   223c8:	411803b3          	sub	t2,a6,a7
   223cc:	01efefb3          	or	t6,t6,t5
   223d0:	41f38a33          	sub	s4,t2,t6
   223d4:	03412c23          	sw	s4,56(sp)
   223d8:	00783ab3          	sltu	s5,a6,t2
   223dc:	00000993          	addi	s3,zero,0
   223e0:	000f8463          	beq	t6,zero,223e8 <__subtf3+0x1264>
   223e4:	0013b993          	sltiu	s3,t2,1
   223e8:	406e0f33          	sub	t5,t3,t1
   223ec:	0159e9b3          	or	s3,s3,s5
   223f0:	413f0f33          	sub	t5,t5,s3
   223f4:	03e12e23          	sw	t5,60(sp)
   223f8:	00cf1f93          	slli	t6,t5,0xc
   223fc:	0e0fd063          	bge	t6,zero,224dc <__subtf3+0x1358>
   22400:	40e78733          	sub	a4,a5,a4
   22404:	40d606b3          	sub	a3,a2,a3
   22408:	00e7beb3          	sltu	t4,a5,a4
   2240c:	41d68eb3          	sub	t4,a3,t4
   22410:	03d12a23          	sw	t4,52(sp)
   22414:	02e12823          	sw	a4,48(sp)
   22418:	00d63633          	sltu	a2,a2,a3
   2241c:	00000e93          	addi	t4,zero,0
   22420:	00e7f463          	bgeu	a5,a4,22428 <__subtf3+0x12a4>
   22424:	0016be93          	sltiu	t4,a3,1
   22428:	41088733          	sub	a4,a7,a6
   2242c:	00cee633          	or	a2,t4,a2
   22430:	00e8b8b3          	sltu	a7,a7,a4
   22434:	40c70733          	sub	a4,a4,a2
   22438:	02e12c23          	sw	a4,56(sp)
   2243c:	00060463          	beq	a2,zero,22444 <__subtf3+0x12c0>
   22440:	0013b593          	sltiu	a1,t2,1
   22444:	41c30733          	sub	a4,t1,t3
   22448:	0115e7b3          	or	a5,a1,a7
   2244c:	40f707b3          	sub	a5,a4,a5
   22450:	02f12e23          	sw	a5,60(sp)
   22454:	00050913          	addi	s2,a0,0
   22458:	03c12503          	lw	a0,60(sp)
   2245c:	08050a63          	beq	a0,zero,224f0 <__subtf3+0x136c>
   22460:	3ad000ef          	jal	ra,2300c <__clzsi2>
   22464:	ff450513          	addi	a0,a0,-12
   22468:	41f55793          	srai	a5,a0,0x1f
   2246c:	80000737          	lui	a4,0x80000
   22470:	01f7f793          	andi	a5,a5,31
   22474:	01f70713          	addi	a4,a4,31 # 8000001f <__BSS_END__+0x7ffda427>
   22478:	00a787b3          	add	a5,a5,a0
   2247c:	00e57733          	and	a4,a0,a4
   22480:	4057d793          	srai	a5,a5,0x5
   22484:	00075863          	bge	a4,zero,22494 <__subtf3+0x1310>
   22488:	fff70713          	addi	a4,a4,-1
   2248c:	fe076713          	ori	a4,a4,-32
   22490:	00170713          	addi	a4,a4,1
   22494:	40f006b3          	sub	a3,zero,a5
   22498:	08070863          	beq	a4,zero,22528 <__subtf3+0x13a4>
   2249c:	00269693          	slli	a3,a3,0x2
   224a0:	03010313          	addi	t1,sp,48
   224a4:	00c68693          	addi	a3,a3,12
   224a8:	02000813          	addi	a6,zero,32
   224ac:	00d306b3          	add	a3,t1,a3
   224b0:	00279593          	slli	a1,a5,0x2
   224b4:	40e80833          	sub	a6,a6,a4
   224b8:	08d31e63          	bne	t1,a3,22554 <__subtf3+0x13d0>
   224bc:	04010693          	addi	a3,sp,64
   224c0:	00b685b3          	add	a1,a3,a1
   224c4:	03012683          	lw	a3,48(sp)
   224c8:	fff78793          	addi	a5,a5,-1
   224cc:	00e69733          	sll	a4,a3,a4
   224d0:	fee5a823          	sw	a4,-16(a1)
   224d4:	fff00693          	addi	a3,zero,-1
   224d8:	0b40006f          	jal	zero,2258c <__subtf3+0x1408>
   224dc:	005eeeb3          	or	t4,t4,t0
   224e0:	014eeeb3          	or	t4,t4,s4
   224e4:	01eeeeb3          	or	t4,t4,t5
   224e8:	d00e8ce3          	beq	t4,zero,22200 <__subtf3+0x107c>
   224ec:	f6dff06f          	jal	zero,22458 <__subtf3+0x12d4>
   224f0:	03812503          	lw	a0,56(sp)
   224f4:	00050863          	beq	a0,zero,22504 <__subtf3+0x1380>
   224f8:	315000ef          	jal	ra,2300c <__clzsi2>
   224fc:	02050513          	addi	a0,a0,32
   22500:	f65ff06f          	jal	zero,22464 <__subtf3+0x12e0>
   22504:	03412503          	lw	a0,52(sp)
   22508:	00050863          	beq	a0,zero,22518 <__subtf3+0x1394>
   2250c:	301000ef          	jal	ra,2300c <__clzsi2>
   22510:	04050513          	addi	a0,a0,64
   22514:	f51ff06f          	jal	zero,22464 <__subtf3+0x12e0>
   22518:	03012503          	lw	a0,48(sp)
   2251c:	2f1000ef          	jal	ra,2300c <__clzsi2>
   22520:	06050513          	addi	a0,a0,96
   22524:	f41ff06f          	jal	zero,22464 <__subtf3+0x12e0>
   22528:	03c10713          	addi	a4,sp,60
   2252c:	00269693          	slli	a3,a3,0x2
   22530:	00300613          	addi	a2,zero,3
   22534:	00d705b3          	add	a1,a4,a3
   22538:	0005a583          	lw	a1,0(a1)
   2253c:	fff60613          	addi	a2,a2,-1
   22540:	ffc70713          	addi	a4,a4,-4
   22544:	00b72223          	sw	a1,4(a4)
   22548:	fef656e3          	bge	a2,a5,22534 <__subtf3+0x13b0>
   2254c:	fff78793          	addi	a5,a5,-1
   22550:	f85ff06f          	jal	zero,224d4 <__subtf3+0x1350>
   22554:	ffc6a603          	lw	a2,-4(a3)
   22558:	0006a883          	lw	a7,0(a3)
   2255c:	00b68e33          	add	t3,a3,a1
   22560:	01065633          	srl	a2,a2,a6
   22564:	00e898b3          	sll	a7,a7,a4
   22568:	01166633          	or	a2,a2,a7
   2256c:	00ce2023          	sw	a2,0(t3)
   22570:	ffc68693          	addi	a3,a3,-4
   22574:	f45ff06f          	jal	zero,224b8 <__subtf3+0x1334>
   22578:	00279713          	slli	a4,a5,0x2
   2257c:	03010613          	addi	a2,sp,48
   22580:	00e60733          	add	a4,a2,a4
   22584:	00072023          	sw	zero,0(a4)
   22588:	fff78793          	addi	a5,a5,-1
   2258c:	fed796e3          	bne	a5,a3,22578 <__subtf3+0x13f4>
   22590:	16854063          	blt	a0,s0,226f0 <__subtf3+0x156c>
   22594:	40850433          	sub	s0,a0,s0
   22598:	00140413          	addi	s0,s0,1
   2259c:	41f45793          	srai	a5,s0,0x1f
   225a0:	01f7f793          	andi	a5,a5,31
   225a4:	008787b3          	add	a5,a5,s0
   225a8:	4057d513          	srai	a0,a5,0x5
   225ac:	800007b7          	lui	a5,0x80000
   225b0:	01f78793          	addi	a5,a5,31 # 8000001f <__BSS_END__+0x7ffda427>
   225b4:	00f47433          	and	s0,s0,a5
   225b8:	00045863          	bge	s0,zero,225c8 <__subtf3+0x1444>
   225bc:	fff40413          	addi	s0,s0,-1
   225c0:	fe046413          	ori	s0,s0,-32
   225c4:	00140413          	addi	s0,s0,1
   225c8:	00040793          	addi	a5,s0,0
   225cc:	00000813          	addi	a6,zero,0
   225d0:	00000713          	addi	a4,zero,0
   225d4:	04a74263          	blt	a4,a0,22618 <__subtf3+0x1494>
   225d8:	00050693          	addi	a3,a0,0
   225dc:	00055463          	bge	a0,zero,225e4 <__subtf3+0x1460>
   225e0:	00000693          	addi	a3,zero,0
   225e4:	00251713          	slli	a4,a0,0x2
   225e8:	04041663          	bne	s0,zero,22634 <__subtf3+0x14b0>
   225ec:	00300613          	addi	a2,zero,3
   225f0:	03010693          	addi	a3,sp,48
   225f4:	40a60533          	sub	a0,a2,a0
   225f8:	00e68633          	add	a2,a3,a4
   225fc:	00062603          	lw	a2,0(a2)
   22600:	00178793          	addi	a5,a5,1
   22604:	00468693          	addi	a3,a3,4
   22608:	fec6ae23          	sw	a2,-4(a3)
   2260c:	fef556e3          	bge	a0,a5,225f8 <__subtf3+0x1474>
   22610:	00300693          	addi	a3,zero,3
   22614:	0c00006f          	jal	zero,226d4 <__subtf3+0x1550>
   22618:	00271693          	slli	a3,a4,0x2
   2261c:	03010613          	addi	a2,sp,48
   22620:	00d606b3          	add	a3,a2,a3
   22624:	0006a683          	lw	a3,0(a3)
   22628:	00170713          	addi	a4,a4,1
   2262c:	00d86833          	or	a6,a6,a3
   22630:	fa5ff06f          	jal	zero,225d4 <__subtf3+0x1450>
   22634:	04010793          	addi	a5,sp,64
   22638:	00269693          	slli	a3,a3,0x2
   2263c:	00d786b3          	add	a3,a5,a3
   22640:	ff06a783          	lw	a5,-16(a3)
   22644:	02000593          	addi	a1,zero,32
   22648:	408585b3          	sub	a1,a1,s0
   2264c:	00b797b3          	sll	a5,a5,a1
   22650:	00f86833          	or	a6,a6,a5
   22654:	03010793          	addi	a5,sp,48
   22658:	00e78733          	add	a4,a5,a4
   2265c:	00300793          	addi	a5,zero,3
   22660:	00000613          	addi	a2,zero,0
   22664:	40a787b3          	sub	a5,a5,a0
   22668:	00470713          	addi	a4,a4,4
   2266c:	02f64463          	blt	a2,a5,22694 <__subtf3+0x1510>
   22670:	04010713          	addi	a4,sp,64
   22674:	00279793          	slli	a5,a5,0x2
   22678:	00f707b3          	add	a5,a4,a5
   2267c:	03c12703          	lw	a4,60(sp)
   22680:	00875433          	srl	s0,a4,s0
   22684:	fe87a823          	sw	s0,-16(a5)
   22688:	00400793          	addi	a5,zero,4
   2268c:	40a787b3          	sub	a5,a5,a0
   22690:	f81ff06f          	jal	zero,22610 <__subtf3+0x148c>
   22694:	00261893          	slli	a7,a2,0x2
   22698:	03010693          	addi	a3,sp,48
   2269c:	011688b3          	add	a7,a3,a7
   226a0:	00072303          	lw	t1,0(a4)
   226a4:	ffc72683          	lw	a3,-4(a4)
   226a8:	00160613          	addi	a2,a2,1
   226ac:	00b31333          	sll	t1,t1,a1
   226b0:	0086d6b3          	srl	a3,a3,s0
   226b4:	0066e6b3          	or	a3,a3,t1
   226b8:	00d8a023          	sw	a3,0(a7)
   226bc:	fadff06f          	jal	zero,22668 <__subtf3+0x14e4>
   226c0:	00279713          	slli	a4,a5,0x2
   226c4:	03010613          	addi	a2,sp,48
   226c8:	00e60733          	add	a4,a2,a4
   226cc:	00072023          	sw	zero,0(a4)
   226d0:	00178793          	addi	a5,a5,1
   226d4:	fef6d6e3          	bge	a3,a5,226c0 <__subtf3+0x153c>
   226d8:	03012703          	lw	a4,48(sp)
   226dc:	010037b3          	sltu	a5,zero,a6
   226e0:	00000413          	addi	s0,zero,0
   226e4:	00f767b3          	or	a5,a4,a5
   226e8:	02f12823          	sw	a5,48(sp)
   226ec:	f31fe06f          	jal	zero,2161c <__subtf3+0x498>
   226f0:	03c12783          	lw	a5,60(sp)
   226f4:	fff80737          	lui	a4,0xfff80
   226f8:	fff70713          	addi	a4,a4,-1 # fff7ffff <__BSS_END__+0xfff5a407>
   226fc:	40a40433          	sub	s0,s0,a0
   22700:	00e7f7b3          	and	a5,a5,a4
   22704:	cbdfe06f          	jal	zero,213c0 <__subtf3+0x23c>
   22708:	02012e23          	sw	zero,60(sp)
   2270c:	02012c23          	sw	zero,56(sp)
   22710:	02012a23          	sw	zero,52(sp)
   22714:	02012823          	sw	zero,48(sp)
   22718:	f85fe06f          	jal	zero,2169c <__subtf3+0x518>

0002271c <__fixtfsi>:
   2271c:	00c52703          	lw	a4,12(a0)
   22720:	00852783          	lw	a5,8(a0)
   22724:	00452683          	lw	a3,4(a0)
   22728:	00052603          	lw	a2,0(a0)
   2272c:	fe010113          	addi	sp,sp,-32
   22730:	00f12423          	sw	a5,8(sp)
   22734:	00e12623          	sw	a4,12(sp)
   22738:	00f12c23          	sw	a5,24(sp)
   2273c:	01071593          	slli	a1,a4,0x10
   22740:	00171793          	slli	a5,a4,0x1
   22744:	01f75813          	srli	a6,a4,0x1f
   22748:	00004737          	lui	a4,0x4
   2274c:	00d12223          	sw	a3,4(sp)
   22750:	00d12a23          	sw	a3,20(sp)
   22754:	00c12023          	sw	a2,0(sp)
   22758:	0117d693          	srli	a3,a5,0x11
   2275c:	00c12823          	sw	a2,16(sp)
   22760:	ffe70793          	addi	a5,a4,-2 # 3ffe <main-0xc076>
   22764:	00000513          	addi	a0,zero,0
   22768:	00d7dc63          	bge	a5,a3,22780 <__fixtfsi+0x64>
   2276c:	01d70793          	addi	a5,a4,29
   22770:	00d7dc63          	bge	a5,a3,22788 <__fixtfsi+0x6c>
   22774:	80000537          	lui	a0,0x80000
   22778:	fff54513          	xori	a0,a0,-1
   2277c:	00a80533          	add	a0,a6,a0
   22780:	02010113          	addi	sp,sp,32
   22784:	00008067          	jalr	zero,0(ra)
   22788:	000107b7          	lui	a5,0x10
   2278c:	0105d593          	srli	a1,a1,0x10
   22790:	00f5e5b3          	or	a1,a1,a5
   22794:	06f70793          	addi	a5,a4,111
   22798:	40d787b3          	sub	a5,a5,a3
   2279c:	4057d713          	srai	a4,a5,0x5
   227a0:	00b12e23          	sw	a1,28(sp)
   227a4:	01f7f793          	andi	a5,a5,31
   227a8:	08079863          	bne	a5,zero,22838 <__fixtfsi+0x11c>
   227ac:	00271793          	slli	a5,a4,0x2
   227b0:	02010693          	addi	a3,sp,32
   227b4:	00f687b3          	add	a5,a3,a5
   227b8:	ff07a783          	lw	a5,-16(a5) # fff0 <main-0x84>
   227bc:	00200613          	addi	a2,zero,2
   227c0:	00f12823          	sw	a5,16(sp)
   227c4:	00200793          	addi	a5,zero,2
   227c8:	00e78463          	beq	a5,a4,227d0 <__fixtfsi+0xb4>
   227cc:	00100613          	addi	a2,zero,1
   227d0:	00400713          	addi	a4,zero,4
   227d4:	00261793          	slli	a5,a2,0x2
   227d8:	01010693          	addi	a3,sp,16
   227dc:	00f687b3          	add	a5,a3,a5
   227e0:	0007a023          	sw	zero,0(a5)
   227e4:	00160613          	addi	a2,a2,1
   227e8:	fee616e3          	bne	a2,a4,227d4 <__fixtfsi+0xb8>
   227ec:	01012503          	lw	a0,16(sp)
   227f0:	f80808e3          	beq	a6,zero,22780 <__fixtfsi+0x64>
   227f4:	40a00533          	sub	a0,zero,a0
   227f8:	f89ff06f          	jal	zero,22780 <__fixtfsi+0x64>
   227fc:	ff062683          	lw	a3,-16(a2)
   22800:	ff072303          	lw	t1,-16(a4)
   22804:	011696b3          	sll	a3,a3,a7
   22808:	00f35333          	srl	t1,t1,a5
   2280c:	0066e6b3          	or	a3,a3,t1
   22810:	00d12823          	sw	a3,16(sp)
   22814:	00100693          	addi	a3,zero,1
   22818:	fea6c2e3          	blt	a3,a0,227fc <__fixtfsi+0xe0>
   2281c:	00168613          	addi	a2,a3,1
   22820:	02010713          	addi	a4,sp,32
   22824:	00269693          	slli	a3,a3,0x2
   22828:	00d706b3          	add	a3,a4,a3
   2282c:	00f5d7b3          	srl	a5,a1,a5
   22830:	fef6a823          	sw	a5,-16(a3)
   22834:	f9dff06f          	jal	zero,227d0 <__fixtfsi+0xb4>
   22838:	00170613          	addi	a2,a4,1
   2283c:	02010893          	addi	a7,sp,32
   22840:	00300513          	addi	a0,zero,3
   22844:	00261613          	slli	a2,a2,0x2
   22848:	40e50533          	sub	a0,a0,a4
   2284c:	00c88633          	add	a2,a7,a2
   22850:	00271713          	slli	a4,a4,0x2
   22854:	02000893          	addi	a7,zero,32
   22858:	02010313          	addi	t1,sp,32
   2285c:	00000693          	addi	a3,zero,0
   22860:	40f888b3          	sub	a7,a7,a5
   22864:	00e30733          	add	a4,t1,a4
   22868:	fb1ff06f          	jal	zero,22818 <__fixtfsi+0xfc>

0002286c <__floatsitf>:
   2286c:	fd010113          	addi	sp,sp,-48
   22870:	02912223          	sw	s1,36(sp)
   22874:	02112623          	sw	ra,44(sp)
   22878:	02812423          	sw	s0,40(sp)
   2287c:	03212023          	sw	s2,32(sp)
   22880:	00050493          	addi	s1,a0,0 # 80000000 <__BSS_END__+0x7ffda408>
   22884:	14058c63          	beq	a1,zero,229dc <__floatsitf+0x170>
   22888:	41f5d793          	srai	a5,a1,0x1f
   2288c:	00b7c433          	xor	s0,a5,a1
   22890:	40f40433          	sub	s0,s0,a5
   22894:	00040513          	addi	a0,s0,0
   22898:	01f5d913          	srli	s2,a1,0x1f
   2289c:	770000ef          	jal	ra,2300c <__clzsi2>
   228a0:	00004737          	lui	a4,0x4
   228a4:	01e70713          	addi	a4,a4,30 # 401e <main-0xc056>
   228a8:	40a70733          	sub	a4,a4,a0
   228ac:	05150513          	addi	a0,a0,81
   228b0:	00812823          	sw	s0,16(sp)
   228b4:	00012a23          	sw	zero,20(sp)
   228b8:	00012c23          	sw	zero,24(sp)
   228bc:	00012e23          	sw	zero,28(sp)
   228c0:	01f57593          	andi	a1,a0,31
   228c4:	04058063          	beq	a1,zero,22904 <__floatsitf+0x98>
   228c8:	05f00793          	addi	a5,zero,95
   228cc:	00300693          	addi	a3,zero,3
   228d0:	00a7cc63          	blt	a5,a0,228e8 <__floatsitf+0x7c>
   228d4:	02000693          	addi	a3,zero,32
   228d8:	40b686b3          	sub	a3,a3,a1
   228dc:	00d456b3          	srl	a3,s0,a3
   228e0:	00d12e23          	sw	a3,28(sp)
   228e4:	00200693          	addi	a3,zero,2
   228e8:	fff68613          	addi	a2,a3,-1
   228ec:	02010793          	addi	a5,sp,32
   228f0:	00269693          	slli	a3,a3,0x2
   228f4:	00d786b3          	add	a3,a5,a3
   228f8:	00b41433          	sll	s0,s0,a1
   228fc:	fe86a823          	sw	s0,-16(a3)
   22900:	0500006f          	jal	zero,22950 <__floatsitf+0xe4>
   22904:	40555793          	srai	a5,a0,0x5
   22908:	00300613          	addi	a2,zero,3
   2290c:	40f60633          	sub	a2,a2,a5
   22910:	02010693          	addi	a3,sp,32
   22914:	00261613          	slli	a2,a2,0x2
   22918:	00c68633          	add	a2,a3,a2
   2291c:	ff062683          	lw	a3,-16(a2)
   22920:	00200613          	addi	a2,zero,2
   22924:	00d12e23          	sw	a3,28(sp)
   22928:	05f00693          	addi	a3,zero,95
   2292c:	02a6c263          	blt	a3,a0,22950 <__floatsitf+0xe4>
   22930:	00200693          	addi	a3,zero,2
   22934:	40f686b3          	sub	a3,a3,a5
   22938:	00269693          	slli	a3,a3,0x2
   2293c:	02010793          	addi	a5,sp,32
   22940:	00d786b3          	add	a3,a5,a3
   22944:	ff06a783          	lw	a5,-16(a3)
   22948:	00100613          	addi	a2,zero,1
   2294c:	00f12c23          	sw	a5,24(sp)
   22950:	fff00693          	addi	a3,zero,-1
   22954:	00261793          	slli	a5,a2,0x2
   22958:	01010593          	addi	a1,sp,16
   2295c:	00f587b3          	add	a5,a1,a5
   22960:	0007a023          	sw	zero,0(a5)
   22964:	fff60613          	addi	a2,a2,-1
   22968:	fed616e3          	bne	a2,a3,22954 <__floatsitf+0xe8>
   2296c:	01c12783          	lw	a5,28(sp)
   22970:	01171713          	slli	a4,a4,0x11
   22974:	01175713          	srli	a4,a4,0x11
   22978:	00f11623          	sh	a5,12(sp)
   2297c:	01071793          	slli	a5,a4,0x10
   22980:	00c12703          	lw	a4,12(sp)
   22984:	800106b7          	lui	a3,0x80010
   22988:	fff68693          	addi	a3,a3,-1 # 8000ffff <__BSS_END__+0x7ffea407>
   2298c:	00d77733          	and	a4,a4,a3
   22990:	00f76733          	or	a4,a4,a5
   22994:	00171793          	slli	a5,a4,0x1
   22998:	01012703          	lw	a4,16(sp)
   2299c:	01f91913          	slli	s2,s2,0x1f
   229a0:	02c12083          	lw	ra,44(sp)
   229a4:	00e4a023          	sw	a4,0(s1)
   229a8:	01412703          	lw	a4,20(sp)
   229ac:	02812403          	lw	s0,40(sp)
   229b0:	0017d793          	srli	a5,a5,0x1
   229b4:	00e4a223          	sw	a4,4(s1)
   229b8:	01812703          	lw	a4,24(sp)
   229bc:	0127e7b3          	or	a5,a5,s2
   229c0:	00f4a623          	sw	a5,12(s1)
   229c4:	00e4a423          	sw	a4,8(s1)
   229c8:	00048513          	addi	a0,s1,0
   229cc:	02012903          	lw	s2,32(sp)
   229d0:	02412483          	lw	s1,36(sp)
   229d4:	03010113          	addi	sp,sp,48
   229d8:	00008067          	jalr	zero,0(ra)
   229dc:	00012e23          	sw	zero,28(sp)
   229e0:	00012c23          	sw	zero,24(sp)
   229e4:	00012a23          	sw	zero,20(sp)
   229e8:	00012823          	sw	zero,16(sp)
   229ec:	00000713          	addi	a4,zero,0
   229f0:	00000913          	addi	s2,zero,0
   229f4:	f79ff06f          	jal	zero,2296c <__floatsitf+0x100>

000229f8 <__extenddftf2>:
   229f8:	01465793          	srli	a5,a2,0x14
   229fc:	00c61713          	slli	a4,a2,0xc
   22a00:	7ff7f793          	andi	a5,a5,2047
   22a04:	fd010113          	addi	sp,sp,-48
   22a08:	00c75713          	srli	a4,a4,0xc
   22a0c:	00178693          	addi	a3,a5,1
   22a10:	02812423          	sw	s0,40(sp)
   22a14:	02912223          	sw	s1,36(sp)
   22a18:	02112623          	sw	ra,44(sp)
   22a1c:	00b12823          	sw	a1,16(sp)
   22a20:	00e12a23          	sw	a4,20(sp)
   22a24:	00012e23          	sw	zero,28(sp)
   22a28:	00012c23          	sw	zero,24(sp)
   22a2c:	7fe6f693          	andi	a3,a3,2046
   22a30:	00050493          	addi	s1,a0,0
   22a34:	01f65413          	srli	s0,a2,0x1f
   22a38:	0a068063          	beq	a3,zero,22ad8 <__extenddftf2+0xe0>
   22a3c:	000046b7          	lui	a3,0x4
   22a40:	c0068693          	addi	a3,a3,-1024 # 3c00 <main-0xc474>
   22a44:	0045d513          	srli	a0,a1,0x4
   22a48:	00d787b3          	add	a5,a5,a3
   22a4c:	00475693          	srli	a3,a4,0x4
   22a50:	01c71713          	slli	a4,a4,0x1c
   22a54:	00a76733          	or	a4,a4,a0
   22a58:	01c59593          	slli	a1,a1,0x1c
   22a5c:	00d12e23          	sw	a3,28(sp)
   22a60:	00e12c23          	sw	a4,24(sp)
   22a64:	00b12a23          	sw	a1,20(sp)
   22a68:	00012823          	sw	zero,16(sp)
   22a6c:	01c12703          	lw	a4,28(sp)
   22a70:	01179793          	slli	a5,a5,0x11
   22a74:	800106b7          	lui	a3,0x80010
   22a78:	00e11623          	sh	a4,12(sp)
   22a7c:	00c12703          	lw	a4,12(sp)
   22a80:	0117d793          	srli	a5,a5,0x11
   22a84:	fff68693          	addi	a3,a3,-1 # 8000ffff <__BSS_END__+0x7ffea407>
   22a88:	00d77733          	and	a4,a4,a3
   22a8c:	01079793          	slli	a5,a5,0x10
   22a90:	00f767b3          	or	a5,a4,a5
   22a94:	01012703          	lw	a4,16(sp)
   22a98:	00179793          	slli	a5,a5,0x1
   22a9c:	01f41413          	slli	s0,s0,0x1f
   22aa0:	00e4a023          	sw	a4,0(s1)
   22aa4:	01412703          	lw	a4,20(sp)
   22aa8:	0017d793          	srli	a5,a5,0x1
   22aac:	0087e7b3          	or	a5,a5,s0
   22ab0:	00e4a223          	sw	a4,4(s1)
   22ab4:	01812703          	lw	a4,24(sp)
   22ab8:	02c12083          	lw	ra,44(sp)
   22abc:	02812403          	lw	s0,40(sp)
   22ac0:	00e4a423          	sw	a4,8(s1)
   22ac4:	00f4a623          	sw	a5,12(s1)
   22ac8:	00048513          	addi	a0,s1,0
   22acc:	02412483          	lw	s1,36(sp)
   22ad0:	03010113          	addi	sp,sp,48
   22ad4:	00008067          	jalr	zero,0(ra)
   22ad8:	00b76533          	or	a0,a4,a1
   22adc:	0e079463          	bne	a5,zero,22bc4 <__extenddftf2+0x1cc>
   22ae0:	f80506e3          	beq	a0,zero,22a6c <__extenddftf2+0x74>
   22ae4:	04070e63          	beq	a4,zero,22b40 <__extenddftf2+0x148>
   22ae8:	00070513          	addi	a0,a4,0
   22aec:	520000ef          	jal	ra,2300c <__clzsi2>
   22af0:	03150613          	addi	a2,a0,49
   22af4:	40565693          	srai	a3,a2,0x5
   22af8:	01f67613          	andi	a2,a2,31
   22afc:	40d00733          	sub	a4,zero,a3
   22b00:	04060663          	beq	a2,zero,22b4c <__extenddftf2+0x154>
   22b04:	00271713          	slli	a4,a4,0x2
   22b08:	01010313          	addi	t1,sp,16
   22b0c:	00c70713          	addi	a4,a4,12
   22b10:	02000793          	addi	a5,zero,32
   22b14:	00e30733          	add	a4,t1,a4
   22b18:	00269813          	slli	a6,a3,0x2
   22b1c:	40c787b3          	sub	a5,a5,a2
   22b20:	08e31063          	bne	t1,a4,22ba0 <__extenddftf2+0x1a8>
   22b24:	02010793          	addi	a5,sp,32
   22b28:	01078833          	add	a6,a5,a6
   22b2c:	01012783          	lw	a5,16(sp)
   22b30:	fff68713          	addi	a4,a3,-1
   22b34:	00c79633          	sll	a2,a5,a2
   22b38:	fec82823          	sw	a2,-16(a6)
   22b3c:	0380006f          	jal	zero,22b74 <__extenddftf2+0x17c>
   22b40:	4cc000ef          	jal	ra,2300c <__clzsi2>
   22b44:	02050513          	addi	a0,a0,32
   22b48:	fa9ff06f          	jal	zero,22af0 <__extenddftf2+0xf8>
   22b4c:	01c10613          	addi	a2,sp,28
   22b50:	00271713          	slli	a4,a4,0x2
   22b54:	00300793          	addi	a5,zero,3
   22b58:	00e605b3          	add	a1,a2,a4
   22b5c:	0005a583          	lw	a1,0(a1)
   22b60:	fff78793          	addi	a5,a5,-1
   22b64:	ffc60613          	addi	a2,a2,-4
   22b68:	00b62223          	sw	a1,4(a2)
   22b6c:	fed7d6e3          	bge	a5,a3,22b58 <__extenddftf2+0x160>
   22b70:	fff68713          	addi	a4,a3,-1
   22b74:	fff00693          	addi	a3,zero,-1
   22b78:	00271793          	slli	a5,a4,0x2
   22b7c:	01010613          	addi	a2,sp,16
   22b80:	00f607b3          	add	a5,a2,a5
   22b84:	0007a023          	sw	zero,0(a5)
   22b88:	fff70713          	addi	a4,a4,-1
   22b8c:	fed716e3          	bne	a4,a3,22b78 <__extenddftf2+0x180>
   22b90:	000047b7          	lui	a5,0x4
   22b94:	c0c78793          	addi	a5,a5,-1012 # 3c0c <main-0xc468>
   22b98:	40a787b3          	sub	a5,a5,a0
   22b9c:	ed1ff06f          	jal	zero,22a6c <__extenddftf2+0x74>
   22ba0:	ffc72583          	lw	a1,-4(a4)
   22ba4:	00072883          	lw	a7,0(a4)
   22ba8:	01070e33          	add	t3,a4,a6
   22bac:	00f5d5b3          	srl	a1,a1,a5
   22bb0:	00c898b3          	sll	a7,a7,a2
   22bb4:	0115e5b3          	or	a1,a1,a7
   22bb8:	00be2023          	sw	a1,0(t3)
   22bbc:	ffc70713          	addi	a4,a4,-4
   22bc0:	f61ff06f          	jal	zero,22b20 <__extenddftf2+0x128>
   22bc4:	000087b7          	lui	a5,0x8
   22bc8:	02050863          	beq	a0,zero,22bf8 <__extenddftf2+0x200>
   22bcc:	01c71793          	slli	a5,a4,0x1c
   22bd0:	0045d693          	srli	a3,a1,0x4
   22bd4:	00d7e7b3          	or	a5,a5,a3
   22bd8:	00f12c23          	sw	a5,24(sp)
   22bdc:	00475713          	srli	a4,a4,0x4
   22be0:	000087b7          	lui	a5,0x8
   22be4:	01c59593          	slli	a1,a1,0x1c
   22be8:	00f76733          	or	a4,a4,a5
   22bec:	00b12a23          	sw	a1,20(sp)
   22bf0:	00012823          	sw	zero,16(sp)
   22bf4:	00e12e23          	sw	a4,28(sp)
   22bf8:	fff78793          	addi	a5,a5,-1 # 7fff <main-0x8075>
   22bfc:	e71ff06f          	jal	zero,22a6c <__extenddftf2+0x74>

00022c00 <__trunctfdf2>:
   22c00:	00c52583          	lw	a1,12(a0)
   22c04:	00852783          	lw	a5,8(a0)
   22c08:	00452703          	lw	a4,4(a0)
   22c0c:	fe010113          	addi	sp,sp,-32
   22c10:	00052683          	lw	a3,0(a0)
   22c14:	00f12423          	sw	a5,8(sp)
   22c18:	00f12c23          	sw	a5,24(sp)
   22c1c:	01059793          	slli	a5,a1,0x10
   22c20:	00e12223          	sw	a4,4(sp)
   22c24:	00e12a23          	sw	a4,20(sp)
   22c28:	0107d793          	srli	a5,a5,0x10
   22c2c:	00159713          	slli	a4,a1,0x1
   22c30:	00b12623          	sw	a1,12(sp)
   22c34:	00d12023          	sw	a3,0(sp)
   22c38:	00d12823          	sw	a3,16(sp)
   22c3c:	00f12e23          	sw	a5,28(sp)
   22c40:	01175713          	srli	a4,a4,0x11
   22c44:	01f5d593          	srli	a1,a1,0x1f
   22c48:	01010313          	addi	t1,sp,16
   22c4c:	01c10613          	addi	a2,sp,28
   22c50:	00062783          	lw	a5,0(a2)
   22c54:	ffc62683          	lw	a3,-4(a2)
   22c58:	ffc60613          	addi	a2,a2,-4
   22c5c:	00379793          	slli	a5,a5,0x3
   22c60:	01d6d693          	srli	a3,a3,0x1d
   22c64:	00d7e7b3          	or	a5,a5,a3
   22c68:	00f62223          	sw	a5,4(a2)
   22c6c:	fec312e3          	bne	t1,a2,22c50 <__trunctfdf2+0x50>
   22c70:	01012683          	lw	a3,16(sp)
   22c74:	00170793          	addi	a5,a4,1
   22c78:	00369513          	slli	a0,a3,0x3
   22c7c:	000086b7          	lui	a3,0x8
   22c80:	ffe68693          	addi	a3,a3,-2 # 7ffe <main-0x8076>
   22c84:	00a12823          	sw	a0,16(sp)
   22c88:	00d7f7b3          	and	a5,a5,a3
   22c8c:	1a078a63          	beq	a5,zero,22e40 <__trunctfdf2+0x240>
   22c90:	ffffc7b7          	lui	a5,0xffffc
   22c94:	40078793          	addi	a5,a5,1024 # ffffc400 <__BSS_END__+0xfffd6808>
   22c98:	00f70733          	add	a4,a4,a5
   22c9c:	7fe00793          	addi	a5,zero,2046
   22ca0:	1ee7cc63          	blt	a5,a4,22e98 <__trunctfdf2+0x298>
   22ca4:	06e05863          	bge	zero,a4,22d14 <__trunctfdf2+0x114>
   22ca8:	01812803          	lw	a6,24(sp)
   22cac:	01c12603          	lw	a2,28(sp)
   22cb0:	01412783          	lw	a5,20(sp)
   22cb4:	01c85693          	srli	a3,a6,0x1c
   22cb8:	00461613          	slli	a2,a2,0x4
   22cbc:	00d66633          	or	a2,a2,a3
   22cc0:	00479693          	slli	a3,a5,0x4
   22cc4:	00a6e6b3          	or	a3,a3,a0
   22cc8:	01c7d793          	srli	a5,a5,0x1c
   22ccc:	00481813          	slli	a6,a6,0x4
   22cd0:	00d036b3          	sltu	a3,zero,a3
   22cd4:	0107e7b3          	or	a5,a5,a6
   22cd8:	00f6e6b3          	or	a3,a3,a5
   22cdc:	00c12a23          	sw	a2,20(sp)
   22ce0:	00d12823          	sw	a3,16(sp)
   22ce4:	01012683          	lw	a3,16(sp)
   22ce8:	01412783          	lw	a5,20(sp)
   22cec:	0076f613          	andi	a2,a3,7
   22cf0:	1a060a63          	beq	a2,zero,22ea4 <__trunctfdf2+0x2a4>
   22cf4:	00f6f613          	andi	a2,a3,15
   22cf8:	00400513          	addi	a0,zero,4
   22cfc:	1aa60463          	beq	a2,a0,22ea4 <__trunctfdf2+0x2a4>
   22d00:	00468613          	addi	a2,a3,4
   22d04:	00d636b3          	sltu	a3,a2,a3
   22d08:	00d787b3          	add	a5,a5,a3
   22d0c:	00060693          	addi	a3,a2,0
   22d10:	1940006f          	jal	zero,22ea4 <__trunctfdf2+0x2a4>
   22d14:	fcc00793          	addi	a5,zero,-52
   22d18:	00f75c63          	bge	a4,a5,22d30 <__trunctfdf2+0x130>
   22d1c:	00012a23          	sw	zero,20(sp)
   22d20:	00100793          	addi	a5,zero,1
   22d24:	00f12823          	sw	a5,16(sp)
   22d28:	00000713          	addi	a4,zero,0
   22d2c:	fb9ff06f          	jal	zero,22ce4 <__trunctfdf2+0xe4>
   22d30:	01c12783          	lw	a5,28(sp)
   22d34:	000806b7          	lui	a3,0x80
   22d38:	00000e13          	addi	t3,zero,0
   22d3c:	00d7e7b3          	or	a5,a5,a3
   22d40:	00f12e23          	sw	a5,28(sp)
   22d44:	03d00793          	addi	a5,zero,61
   22d48:	40e78733          	sub	a4,a5,a4
   22d4c:	40575513          	srai	a0,a4,0x5
   22d50:	00030693          	addi	a3,t1,0
   22d54:	01f77713          	andi	a4,a4,31
   22d58:	00000793          	addi	a5,zero,0
   22d5c:	0006a803          	lw	a6,0(a3) # 80000 <__BSS_END__+0x5a408>
   22d60:	00178793          	addi	a5,a5,1
   22d64:	00468693          	addi	a3,a3,4
   22d68:	010e6e33          	or	t3,t3,a6
   22d6c:	fef518e3          	bne	a0,a5,22d5c <__trunctfdf2+0x15c>
   22d70:	00251693          	slli	a3,a0,0x2
   22d74:	04071663          	bne	a4,zero,22dc0 <__trunctfdf2+0x1c0>
   22d78:	00300793          	addi	a5,zero,3
   22d7c:	40a78533          	sub	a0,a5,a0
   22d80:	00d607b3          	add	a5,a2,a3
   22d84:	0007a783          	lw	a5,0(a5)
   22d88:	00170713          	addi	a4,a4,1
   22d8c:	00460613          	addi	a2,a2,4
   22d90:	fef62e23          	sw	a5,-4(a2)
   22d94:	fee556e3          	bge	a0,a4,22d80 <__trunctfdf2+0x180>
   22d98:	00400693          	addi	a3,zero,4
   22d9c:	00271793          	slli	a5,a4,0x2
   22da0:	00f307b3          	add	a5,t1,a5
   22da4:	0007a023          	sw	zero,0(a5)
   22da8:	00170713          	addi	a4,a4,1
   22dac:	fed718e3          	bne	a4,a3,22d9c <__trunctfdf2+0x19c>
   22db0:	01012703          	lw	a4,16(sp)
   22db4:	01c037b3          	sltu	a5,zero,t3
   22db8:	00f767b3          	or	a5,a4,a5
   22dbc:	f69ff06f          	jal	zero,22d24 <__trunctfdf2+0x124>
   22dc0:	02010793          	addi	a5,sp,32
   22dc4:	00d787b3          	add	a5,a5,a3
   22dc8:	ff07a783          	lw	a5,-16(a5)
   22dcc:	02000893          	addi	a7,zero,32
   22dd0:	40e888b3          	sub	a7,a7,a4
   22dd4:	011797b3          	sll	a5,a5,a7
   22dd8:	00fe6e33          	or	t3,t3,a5
   22ddc:	00300793          	addi	a5,zero,3
   22de0:	00d306b3          	add	a3,t1,a3
   22de4:	00000813          	addi	a6,zero,0
   22de8:	40a787b3          	sub	a5,a5,a0
   22dec:	00468693          	addi	a3,a3,4
   22df0:	02f84463          	blt	a6,a5,22e18 <__trunctfdf2+0x218>
   22df4:	02010693          	addi	a3,sp,32
   22df8:	00279793          	slli	a5,a5,0x2
   22dfc:	00f687b3          	add	a5,a3,a5
   22e00:	01c12683          	lw	a3,28(sp)
   22e04:	00e6d733          	srl	a4,a3,a4
   22e08:	fee7a823          	sw	a4,-16(a5)
   22e0c:	00400713          	addi	a4,zero,4
   22e10:	40a70733          	sub	a4,a4,a0
   22e14:	f85ff06f          	jal	zero,22d98 <__trunctfdf2+0x198>
   22e18:	ffc6a603          	lw	a2,-4(a3)
   22e1c:	0006af03          	lw	t5,0(a3)
   22e20:	00281e93          	slli	t4,a6,0x2
   22e24:	00e65633          	srl	a2,a2,a4
   22e28:	011f1f33          	sll	t5,t5,a7
   22e2c:	01d30eb3          	add	t4,t1,t4
   22e30:	01e66633          	or	a2,a2,t5
   22e34:	00cea023          	sw	a2,0(t4)
   22e38:	00180813          	addi	a6,a6,1
   22e3c:	fb1ff06f          	jal	zero,22dec <__trunctfdf2+0x1ec>
   22e40:	01412603          	lw	a2,20(sp)
   22e44:	01812783          	lw	a5,24(sp)
   22e48:	01c12803          	lw	a6,28(sp)
   22e4c:	00f666b3          	or	a3,a2,a5
   22e50:	0106e6b3          	or	a3,a3,a6
   22e54:	00a6e6b3          	or	a3,a3,a0
   22e58:	00071863          	bne	a4,zero,22e68 <__trunctfdf2+0x268>
   22e5c:	00d036b3          	sltu	a3,zero,a3
   22e60:	00000793          	addi	a5,zero,0
   22e64:	e89ff06f          	jal	zero,22cec <__trunctfdf2+0xec>
   22e68:	0a068c63          	beq	a3,zero,22f20 <__trunctfdf2+0x320>
   22e6c:	01c65693          	srli	a3,a2,0x1c
   22e70:	00481813          	slli	a6,a6,0x4
   22e74:	00479613          	slli	a2,a5,0x4
   22e78:	01c7d793          	srli	a5,a5,0x1c
   22e7c:	00400737          	lui	a4,0x400
   22e80:	00c6e6b3          	or	a3,a3,a2
   22e84:	0107e7b3          	or	a5,a5,a6
   22e88:	00e7e7b3          	or	a5,a5,a4
   22e8c:	ff86f693          	andi	a3,a3,-8
   22e90:	7ff00713          	addi	a4,zero,2047
   22e94:	e59ff06f          	jal	zero,22cec <__trunctfdf2+0xec>
   22e98:	00000793          	addi	a5,zero,0
   22e9c:	00000693          	addi	a3,zero,0
   22ea0:	7ff00713          	addi	a4,zero,2047
   22ea4:	00879613          	slli	a2,a5,0x8
   22ea8:	00065e63          	bge	a2,zero,22ec4 <__trunctfdf2+0x2c4>
   22eac:	00170713          	addi	a4,a4,1 # 400001 <__BSS_END__+0x3da409>
   22eb0:	7ff00613          	addi	a2,zero,2047
   22eb4:	06c70a63          	beq	a4,a2,22f28 <__trunctfdf2+0x328>
   22eb8:	ff800637          	lui	a2,0xff800
   22ebc:	fff60613          	addi	a2,a2,-1 # ff7fffff <__BSS_END__+0xff7da407>
   22ec0:	00c7f7b3          	and	a5,a5,a2
   22ec4:	01d79613          	slli	a2,a5,0x1d
   22ec8:	0036d693          	srli	a3,a3,0x3
   22ecc:	00d666b3          	or	a3,a2,a3
   22ed0:	7ff00613          	addi	a2,zero,2047
   22ed4:	0037d793          	srli	a5,a5,0x3
   22ed8:	00c71e63          	bne	a4,a2,22ef4 <__trunctfdf2+0x2f4>
   22edc:	00f6e6b3          	or	a3,a3,a5
   22ee0:	00000793          	addi	a5,zero,0
   22ee4:	00068863          	beq	a3,zero,22ef4 <__trunctfdf2+0x2f4>
   22ee8:	000807b7          	lui	a5,0x80
   22eec:	00000693          	addi	a3,zero,0
   22ef0:	00000593          	addi	a1,zero,0
   22ef4:	00c79793          	slli	a5,a5,0xc
   22ef8:	7ff77713          	andi	a4,a4,2047
   22efc:	01471713          	slli	a4,a4,0x14
   22f00:	00c7d793          	srli	a5,a5,0xc
   22f04:	01f59593          	slli	a1,a1,0x1f
   22f08:	00e7e7b3          	or	a5,a5,a4
   22f0c:	00b7e733          	or	a4,a5,a1
   22f10:	00068513          	addi	a0,a3,0
   22f14:	00070593          	addi	a1,a4,0
   22f18:	02010113          	addi	sp,sp,32
   22f1c:	00008067          	jalr	zero,0(ra)
   22f20:	00000793          	addi	a5,zero,0
   22f24:	f7dff06f          	jal	zero,22ea0 <__trunctfdf2+0x2a0>
   22f28:	00000793          	addi	a5,zero,0
   22f2c:	00000693          	addi	a3,zero,0
   22f30:	f95ff06f          	jal	zero,22ec4 <__trunctfdf2+0x2c4>

00022f34 <__mulsi3>:
   22f34:	00050613          	addi	a2,a0,0
   22f38:	00000513          	addi	a0,zero,0
   22f3c:	0015f693          	andi	a3,a1,1
   22f40:	00068463          	beq	a3,zero,22f48 <__mulsi3+0x14>
   22f44:	00c50533          	add	a0,a0,a2
   22f48:	0015d593          	srli	a1,a1,0x1
   22f4c:	00161613          	slli	a2,a2,0x1
   22f50:	fe0596e3          	bne	a1,zero,22f3c <__mulsi3+0x8>
   22f54:	00008067          	jalr	zero,0(ra)

00022f58 <__divsi3>:
   22f58:	06054063          	blt	a0,zero,22fb8 <__umodsi3+0x10>
   22f5c:	0605c663          	blt	a1,zero,22fc8 <__umodsi3+0x20>

00022f60 <__udivsi3>:
   22f60:	00058613          	addi	a2,a1,0
   22f64:	00050593          	addi	a1,a0,0
   22f68:	fff00513          	addi	a0,zero,-1
   22f6c:	02060c63          	beq	a2,zero,22fa4 <__udivsi3+0x44>
   22f70:	00100693          	addi	a3,zero,1
   22f74:	00b67a63          	bgeu	a2,a1,22f88 <__udivsi3+0x28>
   22f78:	00c05863          	bge	zero,a2,22f88 <__udivsi3+0x28>
   22f7c:	00161613          	slli	a2,a2,0x1
   22f80:	00169693          	slli	a3,a3,0x1
   22f84:	feb66ae3          	bltu	a2,a1,22f78 <__udivsi3+0x18>
   22f88:	00000513          	addi	a0,zero,0
   22f8c:	00c5e663          	bltu	a1,a2,22f98 <__udivsi3+0x38>
   22f90:	40c585b3          	sub	a1,a1,a2
   22f94:	00d56533          	or	a0,a0,a3
   22f98:	0016d693          	srli	a3,a3,0x1
   22f9c:	00165613          	srli	a2,a2,0x1
   22fa0:	fe0696e3          	bne	a3,zero,22f8c <__udivsi3+0x2c>
   22fa4:	00008067          	jalr	zero,0(ra)

00022fa8 <__umodsi3>:
   22fa8:	00008293          	addi	t0,ra,0
   22fac:	fb5ff0ef          	jal	ra,22f60 <__udivsi3>
   22fb0:	00058513          	addi	a0,a1,0
   22fb4:	00028067          	jalr	zero,0(t0)
   22fb8:	40a00533          	sub	a0,zero,a0
   22fbc:	0005d863          	bge	a1,zero,22fcc <__umodsi3+0x24>
   22fc0:	40b005b3          	sub	a1,zero,a1
   22fc4:	f9dff06f          	jal	zero,22f60 <__udivsi3>
   22fc8:	40b005b3          	sub	a1,zero,a1
   22fcc:	00008293          	addi	t0,ra,0
   22fd0:	f91ff0ef          	jal	ra,22f60 <__udivsi3>
   22fd4:	40a00533          	sub	a0,zero,a0
   22fd8:	00028067          	jalr	zero,0(t0)

00022fdc <__modsi3>:
   22fdc:	00008293          	addi	t0,ra,0
   22fe0:	0005ca63          	blt	a1,zero,22ff4 <__modsi3+0x18>
   22fe4:	00054c63          	blt	a0,zero,22ffc <__modsi3+0x20>
   22fe8:	f79ff0ef          	jal	ra,22f60 <__udivsi3>
   22fec:	00058513          	addi	a0,a1,0
   22ff0:	00028067          	jalr	zero,0(t0)
   22ff4:	40b005b3          	sub	a1,zero,a1
   22ff8:	fe0558e3          	bge	a0,zero,22fe8 <__modsi3+0xc>
   22ffc:	40a00533          	sub	a0,zero,a0
   23000:	f61ff0ef          	jal	ra,22f60 <__udivsi3>
   23004:	40b00533          	sub	a0,zero,a1
   23008:	00028067          	jalr	zero,0(t0)

0002300c <__clzsi2>:
   2300c:	000107b7          	lui	a5,0x10
   23010:	02f57a63          	bgeu	a0,a5,23044 <__clzsi2+0x38>
   23014:	0ff00793          	addi	a5,zero,255
   23018:	00a7b7b3          	sltu	a5,a5,a0
   2301c:	00379793          	slli	a5,a5,0x3
   23020:	02000713          	addi	a4,zero,32
   23024:	40f70733          	sub	a4,a4,a5
   23028:	00f557b3          	srl	a5,a0,a5
   2302c:	00024537          	lui	a0,0x24
   23030:	01450513          	addi	a0,a0,20 # 24014 <__clz_tab>
   23034:	00a787b3          	add	a5,a5,a0
   23038:	0007c503          	lbu	a0,0(a5) # 10000 <main-0x74>
   2303c:	40a70533          	sub	a0,a4,a0
   23040:	00008067          	jalr	zero,0(ra)
   23044:	01000737          	lui	a4,0x1000
   23048:	01000793          	addi	a5,zero,16
   2304c:	fce56ae3          	bltu	a0,a4,23020 <__clzsi2+0x14>
   23050:	01800793          	addi	a5,zero,24
   23054:	fcdff06f          	jal	zero,23020 <__clzsi2+0x14>
